 IBA

 Timestamp is 56fd05d8 (Thu Mar 31 19:11:20 2016)

 Preferred load address is 00400000

 Start         Length     Name                   Class
 0001:00000000 0016968eH .text                   CODE
 0001:00169690 00000011H .text$AFX_COL1          CODE
 0001:001696b0 0001b283H .text$x                 CODE
 0001:00184940 000031d3H .text$yc                CODE
 0001:00187b20 00000210H .text$yd                CODE
 0002:00000000 000023b8H .idata$5                DATA
 0002:000023c0 000384e8H .rdata                  DATA
 0002:0003a8a8 00000046H .rdata$debug            DATA
 0002:0003a8f0 00000088H .rdata$r                DATA
 0002:0003a980 00001b74H .rdata$sxdata           DATA
 0002:0003c4f4 00000004H .rtc$IAA                DATA
 0002:0003c4f8 00000004H .rtc$IZZ                DATA
 0002:0003c4fc 00000004H .rtc$TAA                DATA
 0002:0003c500 00000004H .rtc$TZZ                DATA
 0002:0003c504 00020f1cH .xdata$x                DATA
 0002:0005d420 00000000H ATL$__a                 DATA
 0002:0005d420 00000000H ATL$__z                 DATA
 0002:0005d420 00000244H .idata$2                DATA
 0002:0005d664 00000014H .idata$3                DATA
 0002:0005d678 000023b8H .idata$4                DATA
 0002:0005fa30 000101acH .idata$6                DATA
 0002:0006fbdc 00000000H .edata                  DATA
 0003:00000000 00000004H .CRT$XCA                DATA
 0003:00000004 00000004H .CRT$XCAA               DATA
 0003:00000008 00000010H .CRT$XCL                DATA
 0003:00000018 0000025cH .CRT$XCU                DATA
 0003:00000274 00000004H .CRT$XCZ                DATA
 0003:00000278 00000004H .CRT$XIA                DATA
 0003:0000027c 00000004H .CRT$XIZ                DATA
 0003:00000280 000048c8H .data                   DATA
 0003:00004b48 000007ccH .bss                    DATA
 0004:00000000 000023b8H .rsrc$01                DATA
 0004:000023c0 00034560H .rsrc$02                DATA

  Address         Publics by Value              Rva+Base     Lib:Object

 0000:00000000       __except_list              00000000     <absolute>
 0000:000006dd       ___safe_se_handler_count   000006dd     <absolute>
 0000:00009876       __fltused                  00009876     <absolute>
 0000:00009876       __ldused                   00009876     <absolute>
 0000:00000000       ___ImageBase               00400000     <linker-defined>
 0001:00000000       ?_AtlGetThreadACPThunk@ATL@@YGIXZ 00401000 f i GlobalFunctions.obj
 0001:00000080       ?InterlockedExchangePointer@@YGPAXPAPAXPAX@Z 00401080 f i GlobalFunctions.obj
 0001:000000a0       ?_AtlGetThreadACPFake@ATL@@YGIXZ 004010a0 f i GlobalFunctions.obj
 0001:00000130       ?_AtlGetThreadACPReal@ATL@@YGIXZ 00401130 f i GlobalFunctions.obj
 0001:00000140       ?MakeUserName@IBAGlobal@@YA?AV?$CStringT@_WV?$StrTraitMFC_DLL@_WV?$ChTraitsCRT@_W@ATL@@@@@ATL@@XZ 00401140 f   GlobalFunctions.obj
 0001:00000240       ?StringValueForKey@IBAGlobal@@YA?AV?$CStringT@_WV?$StrTraitMFC_DLL@_WV?$ChTraitsCRT@_W@ATL@@@@@ATL@@PBDV?$GxxAutoPtr@VGxxDictionary@@@@@Z 00401240 f   GlobalFunctions.obj
 0001:00000370       ??0?$CA2WEX@$0IA@@ATL@@QAE@PBD@Z 00401370 f i GlobalFunctions.obj
 0001:000003a0       ?_AtlGetConversionACP@ATL@@YGIXZ 004013a0 f i GlobalFunctions.obj
 0001:000003b0       ?Init@?$CA2WEX@$0IA@@ATL@@AAEXPBDI@Z 004013b0 f i GlobalFunctions.obj
 0001:00000440       ?AtlThrow@ATL@@YGXJ@Z      00401440 f i GlobalFunctions.obj
 0001:00000460       ?AtlThrowLastWin32@ATL@@YGXXZ 00401460 f i GlobalFunctions.obj
 0001:000004b0       ??$?HDU?$char_traits@D@std@@V?$allocator@D@1@@std@@YA?AV?$basic_string@DU?$char_traits@D@std@@V?$allocator@D@2@@0@ABV10@0@Z 004014b0 f i GlobalFunctions.obj
 0001:00000530       ??$?HDU?$char_traits@D@std@@V?$allocator@D@1@@std@@YA?AV?$basic_string@DU?$char_traits@D@std@@V?$allocator@D@2@@0@PBDABV10@@Z 00401530 f i GlobalFunctions.obj
 0001:000005b0       ??$?HDU?$char_traits@D@std@@V?$allocator@D@1@@std@@YA?AV?$basic_string@DU?$char_traits@D@std@@V?$allocator@D@2@@0@ABV10@PBD@Z 004015b0 f i GlobalFunctions.obj
 0001:00000630       ?GetRuntimeClass@CDlgAddTerm@@UBEPAUCRuntimeClass@@XZ 00401630 f   AddTerminalDlg.obj
 0001:00000640       ??0CDlgAddTerm@@QAE@PAVCWnd@@@Z 00401640 f   AddTerminalDlg.obj
 0001:000006f0       ?AssertValid@CObject@@UBEXXZ 004016f0 f i AddTerminalDlg.obj
 0001:000006f0       ?OnEnChangeEditNetbarNotice@CIBATaskPane@@QAEXXZ 004016f0 f i TaskPane.obj
 0001:000006f0       ?objectReleased@GxxDictionary@@MAEXXZ 004016f0 f i gxx_base.obj
 0001:000006f0       ?OnOK@CNDDialog@@MAEXXZ    004016f0 f i NDDialog.obj
 0001:000006f0       ?OnOK@CDlgIBAFastlane@@MAEXXZ 004016f0 f i DlgIBAFastlane.obj
 0001:000006f0       ?OnCenterDisconnect@CNDDialog@@MAEXXZ 004016f0 f i NDDialog.obj
 0001:000006f0       ?Load@CRZXRealName@NS_REALNAME@@AAEXXZ 004016f0 f i RZXRealName.obj
 0001:000006f0       ?OnCancel@CCheckMemberDlg@@MAEXXZ 004016f0 f i CheckMemberDlg.obj
 0001:000006f0       ?PostNcDestroy@CWebBrowser@@MAEXXZ 004016f0 f i WebBrowser.obj
 0001:000006f0       ?objectReleased@GxxValue@@MAEXXZ 004016f0 f i gxx_base.obj
 0001:000006f0       ?OnOK@CIBADialog@@MAEXXZ   004016f0 f i IBADialog.obj
 0001:000006f0       ?_init@GxxValue@@AAEXXZ    004016f0 f i gxx_base.obj
 0001:000006f0       ??1CUrl@ATL@@QAE@XZ        004016f0 f i WxMiddlewareImpl.obj
 0001:000006f0       ??1CAuditInterface@@QAE@XZ 004016f0 f i NDCreditDlg.obj
 0001:000006f0       ?ClearData@CNDDialog@@MAEXXZ 004016f0 f i NDDialog.obj
 0001:000006f0       ?objectReleased@GxxObject@@MAEXXZ 004016f0 f i gxx_base.obj
 0001:000006f0       ?PreLoadState@CIBAApp@@UAEXXZ 004016f0 f i IBA.obj
 0001:000006f0       ??1CObject@@UAE@XZ         004016f0 f i AddTerminalDlg.obj
 0001:000006f0       ?objectReleased@GxxArray@@MAEXXZ 004016f0 f i gxx_base.obj
 0001:000006f0       ?Run@CWxMiddlewareImpl@@IAEXXZ 004016f0 f i WxMiddlewareImpl.obj
 0001:000006f0       ?OnCancel@CDlgIBAFastlane@@MAEXXZ 004016f0 f i DlgIBAFastlane.obj
 0001:000006f0       ?print@GxxObject@@UAEXXZ   004016f0 f i gxx_base.obj
 0001:000006f0       ?OnCancel@CDlgPwd@@MAEXXZ  004016f0 f i PwdDlg.obj
 0001:00000700       ??_GCDlgAddTerm@@UAEPAXI@Z 00401700 f i AddTerminalDlg.obj
 0001:00000700       ??_ECDlgAddTerm@@UAEPAXI@Z 00401700 f i AddTerminalDlg.obj
 0001:00000730       ??3CObject@@SGXPAX@Z       00401730 f i AddTerminalDlg.obj
 0001:00000750       ??1CIBADialog@@UAE@XZ      00401750 f i AddTerminalDlg.obj
 0001:00000830       ??1CFont@@UAE@XZ           00401830 f i AddTerminalDlg.obj
 0001:00000850       ??1CGdiObject@@UAE@XZ      00401850 f i AddTerminalDlg.obj
 0001:000008b0       ??_GCGdiObject@@UAEPAXI@Z  004018b0 f i AddTerminalDlg.obj
 0001:000008b0       ??_ECGdiObject@@UAEPAXI@Z  004018b0 f i AddTerminalDlg.obj
 0001:000008e0       ??_ECFont@@UAEPAXI@Z       004018e0 f i AddTerminalDlg.obj
 0001:000008e0       ??_GCFont@@UAEPAXI@Z       004018e0 f i AddTerminalDlg.obj
 0001:00000910       ??1CDlgAddTerm@@UAE@XZ     00401910 f   AddTerminalDlg.obj
 0001:000009a0       ?DoDataExchange@CDlgAddTerm@@MAEXPAVCDataExchange@@@Z 004019a0 f   AddTerminalDlg.obj
 0001:00000a20       ?GetMessageMap@CDlgAddTerm@@MBEPBUAFX_MSGMAP@@XZ 00401a20 f   AddTerminalDlg.obj
 0001:00000a30       ?OnInitDialog@CDlgAddTerm@@UAEHXZ 00401a30 f   AddTerminalDlg.obj
 0001:00000a80       ?LoadComputeInfo@CDlgAddTerm@@AAEXXZ 00401a80 f   AddTerminalDlg.obj
 0001:00000ce0       ??0CComputerInfo@@QAE@ABV0@@Z 00401ce0 f i AddTerminalDlg.obj
 0001:00000f90       ?OnCbnSelchangeComboTerminalid@CDlgAddTerm@@IAEXXZ 00401f90 f   AddTerminalDlg.obj
 0001:000010d0       ?OnTimeChange@CWnd@@IAEXXZ 004020d0 f i MainFrm.obj
 0001:000010d0       ?OnClose@CWnd@@IAEXXZ      004020d0 f i AddTerminalDlg.obj
 0001:000010f0       ?BeginModalState@CWnd@@UAEXXZ 004020f0 f i AddTerminalDlg.obj
 0001:00001110       ?EndModalState@CWnd@@UAEXXZ 00402110 f i AddTerminalDlg.obj
 0001:00001130       ?Create@CDialog@@UAEHIPAVCWnd@@@Z 00402130 f i AddTerminalDlg.obj
 0001:00001160       ??1?$CStringLoaderDlg@VCBCGPDialog@@@@UAE@XZ 00402160 f i AddTerminalDlg.obj
 0001:000011d0       ??_G?$CStringLoaderDlg@VCBCGPDialog@@@@UAEPAXI@Z 004021d0 f i AddTerminalDlg.obj
 0001:000011d0       ??_E?$CStringLoaderDlg@VCBCGPDialog@@@@UAEPAXI@Z 004021d0 f i AddTerminalDlg.obj
 0001:00001200       ?GetCurSel@CComboBox@@QBEHXZ 00402200 f i AddTerminalDlg.obj
 0001:00001230       ?SetCurSel@CComboBox@@QAEHH@Z 00402230 f i AddTerminalDlg.obj
 0001:00001260       ?AddString@CComboBox@@QAEHPB_W@Z 00402260 f i AddTerminalDlg.obj
 0001:00001290       ?clear@?$vector@PAUPair@GxxValueMap@@V?$allocator@PAUPair@GxxValueMap@@@std@@@std@@QAEXXZ 00402290 f i gxx_base.obj
 0001:00001290       ??1?$vector@IV?$allocator@I@std@@@std@@QAE@XZ 00402290 f i AddTerminalDlg.obj
 0001:00001290       ??1?$vector@PAUPair@GxxValueMap@@V?$allocator@PAUPair@GxxValueMap@@@std@@@std@@QAE@XZ 00402290 f i gxx_base.obj
 0001:00001290       ??1?$vector@HV?$allocator@H@std@@@std@@QAE@XZ 00402290 f i IBAHelpper.obj
 0001:000012b0       ?SelectString@CComboBox@@QAEHHPB_W@Z 004022b0 f i AddTerminalDlg.obj
 0001:000012e0       ?_Tidy@?$vector@IV?$allocator@I@std@@@std@@IAEXXZ 004022e0 f i AddTerminalDlg.obj
 0001:000012e0       ?_Tidy@?$vector@HV?$allocator@H@std@@@std@@IAEXXZ 004022e0 f i IBAHelpper.obj
 0001:000012e0       ?_Tidy@?$vector@PAUPair@GxxValueMap@@V?$allocator@PAUPair@GxxValueMap@@@std@@@std@@IAEXXZ 004022e0 f i gxx_base.obj
 0001:00001350       ??8ATL@@YA_NABV?$CStringT@_WV?$StrTraitMFC_DLL@_WV?$ChTraitsCRT@_W@ATL@@@@@0@0@Z 00402350 f i AddTerminalDlg.obj
 0001:00001370       ??0CBCGPGridButtonItem@@QAE@PB_WI@Z 00402370 f   AllCheckOut.obj
 0001:00001400       ?CreateInPlaceEdit@CBCGPGridButtonItem@@MAEPAVCWnd@@VCRect@@AAH@Z 00402400 f i AllCheckOut.obj
 0001:00001410       ??_GCBCGPGridButtonItem@@UAEPAXI@Z 00402410 f i AllCheckOut.obj
 0001:00001410       ??_ECBCGPGridButtonItem@@UAEPAXI@Z 00402410 f i AllCheckOut.obj
 0001:00001440       ??1CBCGPGridButtonItem@@UAE@XZ 00402440 f i AllCheckOut.obj
 0001:00001460       ?OnDrawValue@CBCGPGridButtonItem@@MAEXPAVCDC@@VCRect@@@Z 00402460 f   AllCheckOut.obj
 0001:000015a0       ?DeflateRect@CRect@@QAEXHH@Z 004025a0 f i AllCheckOut.obj
 0001:000015d0       ?FillRect@CDC@@QAEXPBUtagRECT@@PAVCBrush@@@Z 004025d0 f i AllCheckOut.obj
 0001:00001600       ?DrawTextW@CDC@@QAEHABV?$CStringT@_WV?$StrTraitMFC_DLL@_WV?$ChTraitsCRT@_W@ATL@@@@@ATL@@PAUtagRECT@@I@Z 00402600 f i AllCheckOut.obj
 0001:00001640       ?OnClickValue@CBCGPGridButtonItem@@MAEHIVCPoint@@@Z 00402640 f   AllCheckOut.obj
 0001:000016b0       ?GetOwner@CWnd@@QBEPAV1@XZ 004026b0 f i AllCheckOut.obj
 0001:000016f0       ?PostMessageW@CWnd@@QAEHIIJ@Z 004026f0 f i AllCheckOut.obj
 0001:00001720       ?GetParent@CWnd@@QBEPAV1@XZ 00402720 f i AllCheckOut.obj
 0001:00001740       ?GetRuntimeClass@CDlgAllCheckOut@@UBEPAUCRuntimeClass@@XZ 00402740 f   AllCheckOut.obj
 0001:00001750       ??0CDlgAllCheckOut@@QAE@PAVCWnd@@@Z 00402750 f   AllCheckOut.obj
 0001:00001810       ??_ECDlgAllCheckOut@@UAEPAXI@Z 00402810 f i AllCheckOut.obj
 0001:00001810       ??_GCDlgAllCheckOut@@UAEPAXI@Z 00402810 f i AllCheckOut.obj
 0001:00001840       ??1CDlgAllCheckOut@@UAE@XZ 00402840 f   AllCheckOut.obj
 0001:000018f0       ?DoDataExchange@CDlgAllCheckOut@@MAEXPAVCDataExchange@@@Z 004028f0 f   AllCheckOut.obj
 0001:00001940       ?GetMessageMap@CDlgAllCheckOut@@MBEPBUAFX_MSGMAP@@XZ 00402940 f   AllCheckOut.obj
 0001:00001950       ?OnBnClickedOk@CDlgAllCheckOut@@IAEXXZ 00402950 f   AllCheckOut.obj
 0001:00001c70       ??0ReturnInfo@CDlgAllCheckOut@@QAE@XZ 00402c70 f i AllCheckOut.obj
 0001:00001cc0       ??0CCheckOutinfo@NS_DAL@@QAE@XZ 00402cc0 f i AllCheckOut.obj
 0001:00001d50       ??1CCheckOutinfo@NS_DAL@@QAE@XZ 00402d50 f i AllCheckOut.obj
 0001:00001da0       ??1ReturnInfo@CDlgAllCheckOut@@QAE@XZ 00402da0 f i AllCheckOut.obj
 0001:00001dc0       ??1CLocalConsumeInfo@NS_DAL@@QAE@XZ 00402dc0 f i AllCheckOut.obj
 0001:00001e40       ?CreateNewRow@CDlgAllCheckOut@@IAEPAVCBCGPGridRow@@XZ 00402e40 f   AllCheckOut.obj
 0001:00001ec0       ?AddRow@CDlgAllCheckOut@@IAEXHAAUReturnInfo@1@@Z 00402ec0 f   AllCheckOut.obj
 0001:00002ac0       ?GetOldVoucherNo@CRetailVoucher@NS_DAL@@QBE?AV?$CStringT@_WV?$StrTraitMFC_DLL@_WV?$ChTraitsCRT@_W@ATL@@@@@ATL@@XZ 00403ac0 f i IBADAL-JXC.obj
 0001:00002ac0       ?GetSerialNum@CCheckOutinfo@NS_DAL@@QBE?AV?$CStringT@_WV?$StrTraitMFC_DLL@_WV?$ChTraitsCRT@_W@ATL@@@@@ATL@@XZ 00403ac0 f i AllCheckOut.obj
 0001:00002ac0       ?GetCommodityName@CCommodity@NS_DAL@@QBE?AV?$CStringT@_WV?$StrTraitMFC_DLL@_WV?$ChTraitsCRT@_W@ATL@@@@@ATL@@XZ 00403ac0 f i OffDutyDlg.obj
 0001:00002ac0       ?GetCommodityCode@CRetailDetail@NS_DAL@@QBE?AV?$CStringT@_WV?$StrTraitMFC_DLL@_WV?$ChTraitsCRT@_W@ATL@@@@@ATL@@XZ 00403ac0 f i IBADAL-JXC.obj
 0001:00002ac0       ?GetCommodityBarCode@CSellRecord@NS_SERVLET@@QBE?AV?$CStringT@_WV?$StrTraitMFC_DLL@_WV?$ChTraitsCRT@_W@ATL@@@@@ATL@@XZ 00403ac0 f i JXCExchangeDlg.obj
 0001:00002ac0       ?GetNetId@CLastUserInfo@NS_DAL@@QBE?AV?$CStringT@_WV?$StrTraitMFC_DLL@_WV?$ChTraitsCRT@_W@ATL@@@@@ATL@@XZ 00403ac0 f i IBADAL-USER.obj
 0001:00002ac0       ?GetControlParam@CLocalStatusInfo@NS_DAL@@QBE?AV?$CStringT@_WV?$StrTraitMFC_DLL@_WV?$ChTraitsCRT@_W@ATL@@@@@ATL@@XZ 00403ac0 f i BrokenNetwork.obj
 0001:00002ac0       ?GetComputerIP@CComputerInfo@@QBE?AV?$CStringT@_WV?$StrTraitMFC_DLL@_WV?$ChTraitsCRT@_W@ATL@@@@@ATL@@XZ 00403ac0 f i AddTerminalDlg.obj
 0001:00002ac0       ?GetName@CCashier@@QBE?AV?$CStringT@_WV?$StrTraitMFC_DLL@_WV?$ChTraitsCRT@_W@ATL@@@@@ATL@@XZ 00403ac0 f i BrokenNetwork.obj
 0001:00002ac0       ?GetFileName@CProcess@@QBE?AV?$CStringT@_WV?$StrTraitMFC_DLL@_WV?$ChTraitsCRT@_W@ATL@@@@@ATL@@XZ 00403ac0 f i Process.obj
 0001:00002ac0       ?GetClassNameW@CUserClassInfo@@QAE?AV?$CStringT@_WV?$StrTraitMFC_DLL@_WV?$ChTraitsCRT@_W@ATL@@@@@ATL@@XZ 00403ac0 f i UserClassInfo.obj
 0001:00002ac0       ?GetNetId@CActiveMember@@QBE?AV?$CStringT@_WV?$StrTraitMFC_DLL@_WV?$ChTraitsCRT@_W@ATL@@@@@ATL@@XZ 00403ac0 f i AllCheckOut.obj
 0001:00002ac0       ?GetKeyType@CConfigInfo@NS_DAL@@QBE?AV?$CStringT@_WV?$StrTraitMFC_DLL@_WV?$ChTraitsCRT@_W@ATL@@@@@ATL@@XZ 00403ac0 f i ConfigInfo.obj
 0001:00002ac0       ?GetEnglistName@CNetBarInfo@NS_DAL@@QBE?AV?$CStringT@_WV?$StrTraitMFC_DLL@_WV?$ChTraitsCRT@_W@ATL@@@@@ATL@@XZ 00403ac0 f i NetBarConfig.obj
 0001:00002ac0       ?GetRoomName@CRoomInfo@NS_DAL@@QBE?AV?$CStringT@_WV?$StrTraitMFC_DLL@_WV?$ChTraitsCRT@_W@ATL@@@@@ATL@@XZ 00403ac0 f i NetbarRoom.obj
 0001:00002ac0       ?GetStartDate@CShiftCash@NS_DAL@@QBE?AV?$CStringT@_WV?$StrTraitMFC_DLL@_WV?$ChTraitsCRT@_W@ATL@@@@@ATL@@XZ 00403ac0 f i OffDutyDlg.obj
 0001:00002b00       ?GetClassNameW@CCheckOutinfo@NS_DAL@@QBE?AV?$CStringT@_WV?$StrTraitMFC_DLL@_WV?$ChTraitsCRT@_W@ATL@@@@@ATL@@XZ 00403b00 f i AllCheckOut.obj
 0001:00002b00       ?GetKeyName@CConfigInfo@NS_DAL@@QBE?AV?$CStringT@_WV?$StrTraitMFC_DLL@_WV?$ChTraitsCRT@_W@ATL@@@@@ATL@@XZ 00403b00 f i ConfigInfo.obj
 0001:00002b00       ?GetNetId@CNetBarUser@@QBE?AV?$CStringT@_WV?$StrTraitMFC_DLL@_WV?$ChTraitsCRT@_W@ATL@@@@@ATL@@XZ 00403b00 f i NDTermConsumeView.obj
 0001:00002b00       ?GetPassword@CCashier@@QBE?AV?$CStringT@_WV?$StrTraitMFC_DLL@_WV?$ChTraitsCRT@_W@ATL@@@@@ATL@@XZ 00403b00 f i CashierHelper.obj
 0001:00002b00       ?GetPassWord@CLastUserInfo@NS_DAL@@QBE?AV?$CStringT@_WV?$StrTraitMFC_DLL@_WV?$ChTraitsCRT@_W@ATL@@@@@ATL@@XZ 00403b00 f i NDCheckInDlg.obj
 0001:00002b00       ?GetAddress@CNetBarInfo@NS_DAL@@QBE?AV?$CStringT@_WV?$StrTraitMFC_DLL@_WV?$ChTraitsCRT@_W@ATL@@@@@ATL@@XZ 00403b00 f i NetBarInfoPage.obj
 0001:00002b00       ?GetPersonalID@CActiveMember@@QBE?AV?$CStringT@_WV?$StrTraitMFC_DLL@_WV?$ChTraitsCRT@_W@ATL@@@@@ATL@@XZ 00403b00 f i AllCheckOut.obj
 0001:00002b00       ?GetName@CIBAScanReco@@QBE?AV?$CStringT@_WV?$StrTraitMFC_DLL@_WV?$ChTraitsCRT@_W@ATL@@@@@ATL@@XZ 00403b00 f i RealNameBase.obj
 0001:00002b00       ?GetCommodityName@CSellRecord@NS_SERVLET@@QBE?AV?$CStringT@_WV?$StrTraitMFC_DLL@_WV?$ChTraitsCRT@_W@ATL@@@@@ATL@@XZ 00403b00 f i JXCExchangeDlg.obj
 0001:00002b40       ?GetRoundType@CNetBarConfig@@QBEIXZ 00403b40 f i AllCheckOut.obj
 0001:00002b40       ?GetPrintTicketBTMember@CIBAConfig@@QBEHXZ 00403b40 f i IBAConfig.obj
 0001:00002b60       ??2CObject@@SGPAXI@Z       00403b60 f i AllCheckOut.obj
 0001:00002b80       ?InitList@CDlgAllCheckOut@@IAEHXZ 00403b80 f   AllCheckOut.obj
 0001:00002f00       ?GetClientRect@CWnd@@QBEXPAUtagRECT@@@Z 00403f00 f i AllCheckOut.obj
 0001:00002f20       ?MapWindowPoints@CWnd@@QBEXPAV1@PAUtagRECT@@@Z 00403f20 f i AllCheckOut.obj
 0001:00002f50       ?FillList@CDlgAllCheckOut@@IAEHXZ 00403f50 f   AllCheckOut.obj
 0001:00003000       ?PreTranslateMessage@CDlgAllCheckOut@@MAEHPAUtagMSG@@@Z 00404000 f   AllCheckOut.obj
 0001:000030e0       ?GetFocus@CWnd@@SGPAV1@XZ  004040e0 f i AllCheckOut.obj
 0001:00003100       ?OnInitDialog@CDlgAllCheckOut@@MAEHXZ 00404100 f   AllCheckOut.obj
 0001:000031c0       ?SetFont@CWnd@@QAEXPAVCFont@@H@Z 004041c0 f i AllCheckOut.obj
 0001:000031f0       ?OnCtlColor@CDlgAllCheckOut@@IAEPAUHBRUSH__@@PAVCDC@@PAVCWnd@@I@Z 004041f0 f   AllCheckOut.obj
 0001:00003260       ?OnBnClickedButtonQuery@CDlgAllCheckOut@@IAEXXZ 00404260 f   AllCheckOut.obj
 0001:000036a0       ?SelFirstOne@CDlgAllCheckOut@@IAEXXZ 004046a0 f   AllCheckOut.obj
 0001:00003720       ?OnItemChanged@CDlgAllCheckOut@@IAEJIJ@Z 00404720 f   AllCheckOut.obj
 0001:00003740       ?OnClose@CDlgAllCheckOut@@IAEXXZ 00404740 f   AllCheckOut.obj
 0001:00003740       ?OnClose@CDlgMemberInfo@@IAEXXZ 00404740 f   MemberInfoDlg.obj
 0001:00003740       ?OnClose@CDlgAddTerm@@IAEXXZ 00404740 f   AddTerminalDlg.obj
 0001:00003760       ?OnGLCNotify@CDlgAllCheckOut@@IAEXPAUtagNMHDR@@PAJ@Z 00404760 f   AllCheckOut.obj
 0001:00003820       ?OnBnClickedGirdButton@CDlgAllCheckOut@@IAEXXZ 00404820 f   AllCheckOut.obj
 0001:00003b20       ?UpdateWindow@CWnd@@QAEXXZ 00404b20 f i AllCheckOut.obj
 0001:00003b40       ?RedrawWindow@CWnd@@QAEHPBUtagRECT@@PAVCRgn@@I@Z 00404b40 f i AllCheckOut.obj
 0001:00003b70       ??_GCBCGPGridItem@@UAEPAXI@Z 00404b70 f i AllCheckOut.obj
 0001:00003b70       ??_ECBCGPGridItem@@UAEPAXI@Z 00404b70 f i AllCheckOut.obj
 0001:00003ba0       ?OnBnClickedButtonPrint@CDlgAllCheckOut@@IAEXXZ 00404ba0 f   AllCheckOut.obj
 0001:00003bc0       ?GetActiveMembers@CDlgAllCheckOut@@IAEHAAV?$CArray@VCActiveMember@@ABV1@@@@Z 00404bc0 f   AllCheckOut.obj
 0001:00004350       ?SetRetailType@CRetailVoucher@NS_DAL@@QAEXABI@Z 00405350 f i IBADAL-JXC.obj
 0001:00004350       ?SetMemberId@CCheckOutinfo@NS_DAL@@QAEXABI@Z 00405350 f i CashierHelper.obj
 0001:00004350       ?SetSex@CActiveMember@@QAEXABI@Z 00405350 f i AllCheckOut.obj
 0001:00004350       ?SetReturnAmout2@CCommoditySoldInfo@NS_DAL@@QAEXABH@Z 00405350 f i IBADAL-JXC.obj
 0001:00004350       ?SetReturnQuantity@CRetailDetail@NS_DAL@@QAEXABH@Z 00405350 f i IBADAL-JXC.obj
 0001:00004370       ?SetCreditProcess@CActiveMember@@QAEXABV?$CStringT@_WV?$StrTraitMFC_DLL@_WV?$ChTraitsCRT@_W@ATL@@@@@ATL@@@Z 00405370 f i AllCheckOut.obj
 0001:00004370       ?SetDeliveryFlag@CCommodity@NS_DAL@@QAEXABV?$CStringT@_WV?$StrTraitMFC_DLL@_WV?$ChTraitsCRT@_W@ATL@@@@@ATL@@@Z 00405370 f i IBADAL-JXC.obj
 0001:00004390       ?SetAdvancePayment@CActiveMember@@QAEXABH@Z 00405390 f i AllCheckOut.obj
 0001:00004390       ?SetCardCreditedAmount@CShiftCash@NS_DAL@@QAEXABH@Z 00405390 f i OffDutyDlg.obj
 0001:00004390       ?SetExchangePoint@CCommoditySoldInfo@NS_DAL@@QAEXABH@Z 00405390 f i IBADAL-JXC.obj
 0001:00004390       ?SetBalanceMoney@CCheckOutinfo@NS_DAL@@QAEXABI@Z 00405390 f i CashierHelper.obj
 0001:000043b0       ?SetRemark@CActiveMember@@QAEXABV?$CStringT@_WV?$StrTraitMFC_DLL@_WV?$ChTraitsCRT@_W@ATL@@@@@ATL@@@Z 004053b0 f i AllCheckOut.obj
 0001:000043b0       ?SetPurchaseFlag@CCommodity@NS_DAL@@QAEXABV?$CStringT@_WV?$StrTraitMFC_DLL@_WV?$ChTraitsCRT@_W@ATL@@@@@ATL@@@Z 004053b0 f i IBADAL-JXC.obj
 0001:000043d0       ?SetCostExpense@CShiftCash@NS_DAL@@QAEXABH@Z 004053d0 f i OffDutyDlg.obj
 0001:000043d0       ?SetPayType@CCommoditySoldInfo@NS_DAL@@QAEXABH@Z 004053d0 f i IBADAL-JXC.obj
 0001:000043d0       ?SetIsRegisterBT@CActiveMember@@QAEXABH@Z 004053d0 f i AllCheckOut.obj
 0001:000043d0       ?SetReturnState@CCheckOutinfo@NS_DAL@@QAEXABI@Z 004053d0 f i AllCheckOut.obj
 0001:000043f0       ?SetPayType@CActiveMember@@QAEXABI@Z 004053f0 f i AllCheckOut.obj
 0001:00004410       ?SetIsOnLine@CActiveMember@@QAEXABH@Z 00405410 f i AllCheckOut.obj
 0001:00004430       ?SetPCClassID@CActiveMember@@QAEXABI@Z 00405430 f i AllCheckOut.obj
 0001:00004430       ?SetCashRegisterID@CRetailVoucher@NS_DAL@@QAEXABI@Z 00405430 f i JXCExchangeDlg.obj
 0001:00004450       ?SetAmount@CActiveMember@@QAEXABH@Z 00405450 f i AllCheckOut.obj
 0001:00004470       ?SetCheckInTime@CActiveMember@@QAEAAVCOleDateTime@ATL@@XZ 00405470 f i AllCheckOut.obj
 0001:00004490       ?SetActivationTime@CActiveMember@@QAEAAVCOleDateTime@ATL@@XZ 00405490 f i AllCheckOut.obj
 0001:000044b0       ?SetZSBBalance@CShiftCash@NS_DAL@@QAEXABH@Z 004054b0 f i OffDutyDlg.obj
 0001:000044b0       ?SetDynamicMaxAmount@CActiveMember@@QAEXABH@Z 004054b0 f i AllCheckOut.obj
 0001:000044d0       ?SetPassword@CActiveMember@@QAEXABV?$CStringT@_WV?$StrTraitMFC_DLL@_WV?$ChTraitsCRT@_W@ATL@@@@@ATL@@@Z 004054d0 f i AllCheckOut.obj
 0001:000044f0       ?SetAvailavleBalance@CActiveMember@@QAEXABH@Z 004054f0 f i AllCheckOut.obj
 0001:00004510       ?SetPolicyInfo@CActiveMember@@QAEXABV?$CStringT@_WV?$StrTraitMFC_DLL@_WV?$ChTraitsCRT@_W@ATL@@@@@ATL@@@Z 00405510 f i AllCheckOut.obj
 0001:00004530       ?SetUserName@CActiveMember@@QAEXABV?$CStringT@_WV?$StrTraitMFC_DLL@_WV?$ChTraitsCRT@_W@ATL@@@@@ATL@@@Z 00405530 f i AllCheckOut.obj
 0001:00004550       ?PayoutMember@CDlgAllCheckOut@@IAEHI@Z 00405550 f   AllCheckOut.obj
 0001:00004b60       ?SetTermId@COperationInfo@@QAEXABV?$CStringT@_WV?$StrTraitMFC_DLL@_WV?$ChTraitsCRT@_W@ATL@@@@@ATL@@@Z 00405b60 f i AllCheckOut.obj
 0001:00004b80       ?SetCheckInTime@COperationInfo@@QAEXABVCOleDateTime@ATL@@@Z 00405b80 f i AllCheckOut.obj
 0001:00004bb0       ?SetIdNum@COperationInfo@@QAEXABV?$CStringT@_WV?$StrTraitMFC_DLL@_WV?$ChTraitsCRT@_W@ATL@@@@@ATL@@@Z 00405bb0 f i AllCheckOut.obj
 0001:00004bd0       ?SetUserName@COperationInfo@@QAEXV?$CStringT@_WV?$StrTraitMFC_DLL@_WV?$ChTraitsCRT@_W@ATL@@@@@ATL@@@Z 00405bd0 f i AllCheckOut.obj
 0001:00004c30       ?SetNetId@COperationInfo@@QAEXV?$CStringT@_WV?$StrTraitMFC_DLL@_WV?$ChTraitsCRT@_W@ATL@@@@@ATL@@@Z 00405c30 f i AllCheckOut.obj
 0001:00004c90       ?SetDescription@COperationInfo@@QAEXV?$CStringT@_WV?$StrTraitMFC_DLL@_WV?$ChTraitsCRT@_W@ATL@@@@@ATL@@@Z 00405c90 f i AllCheckOut.obj
 0001:00004cf0       ?GetCheckInTime@CActiveMember@@QBE?AVCOleDateTime@ATL@@XZ 00405cf0 f i AllCheckOut.obj
 0001:00004d20       ??0CLocalMember@@QAE@XZ    00405d20 f i AllCheckOut.obj
 0001:00004df0       ??1CLocalMember@@QAE@XZ    00405df0 f i AllCheckOut.obj
 0001:00004e40       ?DeregisterUser@CDlgAllCheckOut@@IAEHII@Z 00405e40 f   AllCheckOut.obj
 0001:000054e0       ?SetOperationTime@COperationInfo@@QAEXVCOleDateTime@ATL@@@Z 004064e0 f i AllCheckOut.obj
 0001:00005510       ?SetCashRegisterID@CCreditInfoDB@NS_DAL@@QAEXI@Z 00406510 f i BundleTimeDlg.obj
 0001:00005510       ?SetClassId@CCardOpenInfo@NS_DAL@@QAEXI@Z 00406510 f i RegisterDlg.obj
 0001:00005510       ?SetCashRegisterID@CReturnedInfo@NS_DAL@@QAEXI@Z 00406510 f i BrokenNetworkResume.obj
 0001:00005510       ?SetDeposit@COperationInfo@@QAEXI@Z 00406510 f i AllCheckOut.obj
 0001:00005530       ?SetIsBundTime@COperationInfo@@QAEXH@Z 00406530 f i AllCheckOut.obj
 0001:00005550       ?GetActivationTime@CActiveMember@@QBE?AVCOleDateTime@ATL@@XZ 00406550 f i AllCheckOut.obj
 0001:00005580       ?GetPassword@CActiveMember@@QBE?AV?$CStringT@_WV?$StrTraitMFC_DLL@_WV?$ChTraitsCRT@_W@ATL@@@@@ATL@@XZ 00406580 f i AllCheckOut.obj
 0001:000055c0       ?GetTickCount@COleDateTime@ATL@@SG?AV12@XZ 004065c0 f i AllCheckOut.obj
 0001:000055e0       ??0COleDateTime@ATL@@QAE@_J@Z 004065e0 f i AllCheckOut.obj
 0001:00005620       ??0COleDateTime@ATL@@QAE@HHHHHH@Z 00406620 f i AllCheckOut.obj
 0001:00005650       ??4COleDateTime@ATL@@QAEAAV01@AB_J@Z 00406650 f i AllCheckOut.obj
 0001:000056c0       ?GetAsSystemTime@CTime@ATL@@QBE_NAAU_SYSTEMTIME@@@Z 004066c0 f i AllCheckOut.obj
 0001:00005760       ?GetLocalTm@CTime@ATL@@QBEPAUtm@@PAU3@@Z 00406760 f i AllCheckOut.obj
 0001:000057c0       ?SetDateTime@COleDateTime@ATL@@QAEHHHHHHH@Z 004067c0 f i AllCheckOut.obj
 0001:00005830       ?EnsureVisible@CListCtrl@@QAEHHH@Z 00406830 f i AllCheckOut.obj
 0001:00005860       ?SetExtendedStyle@CListCtrl@@QAEKK@Z 00406860 f i AllCheckOut.obj
 0001:00005890       ?SetSelectionMark@CListCtrl@@QAEHH@Z 00406890 f i AllCheckOut.obj
 0001:000058c0       ??0?$CArray@UReturnInfo@CDlgAllCheckOut@@ABU12@@@QAE@XZ 004068c0 f i AllCheckOut.obj
 0001:00005910       ?RemoveAll@?$CArray@UReturnInfo@CDlgAllCheckOut@@ABU12@@@QAEXXZ 00406910 f i AllCheckOut.obj
 0001:00005930       ?GetAt@?$CArray@UReturnInfo@CDlgAllCheckOut@@ABU12@@@QAEAAUReturnInfo@CDlgAllCheckOut@@H@Z 00406930 f i AllCheckOut.obj
 0001:00005970       ?Add@?$CArray@UReturnInfo@CDlgAllCheckOut@@ABU12@@@QAEHABUReturnInfo@CDlgAllCheckOut@@@Z 00406970 f i AllCheckOut.obj
 0001:000059a0       ??1?$CArray@UReturnInfo@CDlgAllCheckOut@@ABU12@@@UAE@XZ 004069a0 f i AllCheckOut.obj
 0001:00005a20       ?Serialize@?$CArray@UReturnInfo@CDlgAllCheckOut@@ABU12@@@UAEXAAVCArchive@@@Z 00406a20 f i AllCheckOut.obj
 0001:00005a90       ?IsStoring@CArchive@@QBEHXZ 00406a90 f i AllCheckOut.obj
 0001:00005ab0       ??0?$CArray@VCActiveMember@@ABV1@@@QAE@XZ 00406ab0 f i AllCheckOut.obj
 0001:00005b00       ?RemoveAll@?$CArray@VCActiveMember@@ABV1@@@QAEXXZ 00406b00 f i AllCheckOut.obj
 0001:00005b20       ?Add@?$CArray@VCActiveMember@@ABV1@@@QAEHABVCActiveMember@@@Z 00406b20 f i AllCheckOut.obj
 0001:00005b50       ??A?$CArray@VCActiveMember@@ABV1@@@QAEAAVCActiveMember@@H@Z 00406b50 f i AllCheckOut.obj
 0001:00005b70       ??1?$CArray@VCActiveMember@@ABV1@@@UAE@XZ 00406b70 f i AllCheckOut.obj
 0001:00005c10       ?Serialize@?$CArray@VCActiveMember@@ABV1@@@UAEXAAVCArchive@@@Z 00406c10 f i AllCheckOut.obj
 0001:00005c80       ?GetAt@?$CArray@VCCheckOutinfo@NS_DAL@@AAV12@@@QAEAAVCCheckOutinfo@NS_DAL@@H@Z 00406c80 f i AllCheckOut.obj
 0001:00005cc0       ??1_bstr_t@@QAE@XZ         00406cc0 f i AllCheckOut.obj
 0001:00005ce0       ?_Free@_bstr_t@@AAEXXZ     00406ce0 f i AllCheckOut.obj
 0001:00005d10       ?Release@Data_t@_bstr_t@@QAEKXZ 00406d10 f i AllCheckOut.obj
 0001:00005d60       ??_GData_t@_bstr_t@@AAEPAXI@Z 00406d60 f i AllCheckOut.obj
 0001:00005d90       ??_E?$CArray@UReturnInfo@CDlgAllCheckOut@@ABU12@@@UAEPAXI@Z 00406d90 f i AllCheckOut.obj
 0001:00005d90       ??_G?$CArray@UReturnInfo@CDlgAllCheckOut@@ABU12@@@UAEPAXI@Z 00406d90 f i AllCheckOut.obj
 0001:00005dc0       ??_GReturnInfo@CDlgAllCheckOut@@QAEPAXI@Z 00406dc0 f i AllCheckOut.obj
 0001:00005df0       ??_E?$CArray@VCActiveMember@@ABV1@@@UAEPAXI@Z 00406df0 f i AllCheckOut.obj
 0001:00005df0       ??_G?$CArray@VCActiveMember@@ABV1@@@UAEPAXI@Z 00406df0 f i AllCheckOut.obj
 0001:00005e20       ??_GCActiveMember@@QAEPAXI@Z 00406e20 f i AllCheckOut.obj
 0001:00005e50       ??1Data_t@_bstr_t@@AAE@XZ  00406e50 f i AllCheckOut.obj
 0001:00005e70       ?_Free@Data_t@_bstr_t@@AAEXXZ 00406e70 f i AllCheckOut.obj
 0001:00005eb0       ??0_variant_t@@QAE@PB_W@Z  00406eb0 f i AllCheckOut.obj
 0001:00005f00       ?Clear@_variant_t@@QAEXXZ  00406f00 f i Excel1.obj
 0001:00005f00       ??1_variant_t@@QAE@XZ      00406f00 f i AllCheckOut.obj
 0001:00005f20       ?CheckError@_com_util@@YAXJ@Z 00406f20 f i AllCheckOut.obj
 0001:00005f40       ??0_bstr_t@@QAE@ABV_variant_t@@@Z 00406f40 f i AllCheckOut.obj
 0001:00005fd0       ??4_bstr_t@@QAEAAV0@PB_W@Z 00406fd0 f i AllCheckOut.obj
 0001:00006070       ??0Data_t@_bstr_t@@QAE@PB_W@Z 00407070 f i AllCheckOut.obj
 0001:000060c0       ??0_variant_t@@QAE@XZ      004070c0 f i AllCheckOut.obj
 0001:000060e0       ?ChangeType@_variant_t@@QAEXGPBV1@@Z 004070e0 f i AllCheckOut.obj
 0001:00006130       ?SetSize@?$CArray@UReturnInfo@CDlgAllCheckOut@@ABU12@@@QAEXHH@Z 00407130 f i AllCheckOut.obj
 0001:000065a0       ??2@YAPAXIPAX@Z            004075a0 f i AllCheckOut.obj
 0001:000065b0       ?SetAtGrow@?$CArray@UReturnInfo@CDlgAllCheckOut@@ABU12@@@QAEXHABUReturnInfo@CDlgAllCheckOut@@@Z 004075b0 f i AllCheckOut.obj
 0001:00006600       ??$SerializeElements@UReturnInfo@CDlgAllCheckOut@@@@YGXAAVCArchive@@PAUReturnInfo@CDlgAllCheckOut@@H@Z 00407600 f i AllCheckOut.obj
 0001:000066e0       ?SetSize@?$CArray@VCActiveMember@@ABV1@@@QAEXHH@Z 004076e0 f i AllCheckOut.obj
 0001:00006b50       ?GetAt@?$CArray@VCComputerInfo@@AAV1@@@QAEAAVCComputerInfo@@H@Z 00407b50 f i ComputerList.obj
 0001:00006b50       ?ElementAt@?$CArray@VCActiveMember@@ABV1@@@QAEAAVCActiveMember@@H@Z 00407b50 f i AllCheckOut.obj
 0001:00006b50       ?GetAt@?$CArray@VCActiveMember@@ABV1@@@QAEAAVCActiveMember@@H@Z 00407b50 f i AllCheckOut.obj
 0001:00006b90       ?SetAtGrow@?$CArray@VCActiveMember@@ABV1@@@QAEXHABVCActiveMember@@@Z 00407b90 f i AllCheckOut.obj
 0001:00006be0       ??4CActiveMember@@QAEAAV0@ABV0@@Z 00407be0 f i AllCheckOut.obj
 0001:00006e30       ??4ReturnInfo@CDlgAllCheckOut@@QAEAAU01@ABU01@@Z 00407e30 f i AllCheckOut.obj
 0001:00006e90       ??4CCheckOutinfo@NS_DAL@@QAEAAV01@ABV01@@Z 00407e90 f i AllCheckOut.obj
 0001:00006f60       ??4CLocalConsumeInfo@NS_DAL@@QAEAAV01@ABV01@@Z 00407f60 f i AllCheckOut.obj
 0001:000070b0       ?GetMessageMap@CBCGPLabelButton@@MBEPBUAFX_MSGMAP@@XZ 004080b0 f   BCGPLabalButton.obj
 0001:000070c0       ??0CBCGPLabelButton@@QAE@XZ 004080c0 f   BCGPLabalButton.obj
 0001:000070f0       ??_GCBCGPLabelButton@@UAEPAXI@Z 004080f0 f i BCGPLabalButton.obj
 0001:000070f0       ??_ECBCGPLabelButton@@UAEPAXI@Z 004080f0 f i BCGPLabalButton.obj
 0001:00007120       ??1CBCGPLabelButton@@UAE@XZ 00408120 f   BCGPLabalButton.obj
 0001:00007140       ?OpenURL@CBCGPLabelButton@@QAEXXZ 00408140 f   BCGPLabalButton.obj
 0001:00007160       ?OnSetFocus@CBCGPLabelButton@@IAEXPAVCWnd@@@Z 00408160 f   BCGPLabalButton.obj
 0001:00007190       ?OnLButtonUp@CBCGPLabelButton@@IAEXIVCPoint@@@Z 00408190 f   BCGPLabalButton.obj
 0001:000071f0       ?GetRuntimeClass@CBCGPLinkStatic@@UBEPAUCRuntimeClass@@XZ 004081f0 f   BCGPLinkStatic.obj
 0001:00007200       ??0CBCGPLinkStatic@@QAE@XZ 00408200 f   BCGPLinkStatic.obj
 0001:000072e0       ??_ECBCGPLinkStatic@@UAEPAXI@Z 004082e0 f i BCGPLinkStatic.obj
 0001:000072e0       ??_GCBCGPLinkStatic@@UAEPAXI@Z 004082e0 f i BCGPLinkStatic.obj
 0001:00007310       ??1CBCGPLinkStatic@@UAE@XZ 00408310 f   BCGPLinkStatic.obj
 0001:00007340       ?GetMessageMap@CBCGPLinkStatic@@MBEPBUAFX_MSGMAP@@XZ 00408340 f   BCGPLinkStatic.obj
 0001:00007350       ?OnPaint@CBCGPLinkStatic@@QAEXXZ 00408350 f   BCGPLinkStatic.obj
 0001:00007510       ?DrawLinkBk@CBCGPLinkStatic@@MAEXPAVCDC@@UtagRECT@@HI@Z 00408510 f   BCGPLinkStatic.obj
 0001:00007580       ?DrawLinkName@CBCGPLinkStatic@@MAEXPAVCDC@@UtagRECT@@V?$CStringT@_WV?$StrTraitMFC_DLL@_WV?$ChTraitsCRT@_W@ATL@@@@@ATL@@I@Z 00408580 f   BCGPLinkStatic.obj
 0001:000077b0       ?SetBkColor@CBCGPLinkStatic@@QAEXK@Z 004087b0 f   BCGPLinkStatic.obj
 0001:000077d0       ?SetLinkColor@CBCGPLinkStatic@@QAEXK@Z 004087d0 f   BCGPLinkStatic.obj
 0001:000077f0       ?SetHoverColor@CBCGPLinkStatic@@QAEXK@Z 004087f0 f   BCGPLinkStatic.obj
 0001:00007810       ?SetVisitedColor@CBCGPLinkStatic@@QAEXK@Z 00408810 f   BCGPLinkStatic.obj
 0001:00007830       ?OnMouseMove@CBCGPLinkStatic@@QAEXIVCPoint@@@Z 00408830 f   BCGPLinkStatic.obj
 0001:00007870       ?OnLButtonUp@CBCGPLinkStatic@@QAEXIVCPoint@@@Z 00408870 f   BCGPLinkStatic.obj
 0001:00007910       ?OnBCGSetControlAero@CBCGPLinkStatic@@QAEJIJ@Z 00408910 f   BCGPLinkStatic.obj
 0001:00007930       ?OnSetCursor@CBCGPLinkStatic@@QAEHPAVCWnd@@II@Z 00408930 f   BCGPLinkStatic.obj
 0001:00007970       ?OnTimer@CBCGPLinkStatic@@QAEXI@Z 00408970 f   BCGPLinkStatic.obj
 0001:00007a20       ?GetTextMetricsW@CDC@@QBEHPAUtagTEXTMETRICW@@@Z 00408a20 f i BCGPLinkStatic.obj
 0001:00007a40       ?SendMessageW@CWnd@@QAEJIIJ@Z 00408a40 f i BCGPLinkStatic.obj
 0001:00007a70       ?GetWindowRect@CWnd@@QBEXPAUtagRECT@@@Z 00408a70 f i BCGPLinkStatic.obj
 0001:00007a90       ?Invalidate@CWnd@@QAEXH@Z  00408a90 f i BCGPLinkStatic.obj
 0001:00007ab0       ?SetTimer@CWnd@@QAEIIIP6GXPAUHWND__@@IIK@Z@Z 00408ab0 f i BCGPLinkStatic.obj
 0001:00007ae0       ?KillTimer@CWnd@@QAEHI@Z   00408ae0 f i BCGPLinkStatic.obj
 0001:00007b00       ?SetCapture@CWnd@@QAEPAV1@XZ 00408b00 f i BCGPLinkStatic.obj
 0001:00007b20       ?OnEraseBkgnd@CWnd@@IAEHPAVCDC@@@Z 00408b20 f i SeatLayoutView.obj
 0001:00007b20       ?OnTimer@CWnd@@IAEXI@Z     00408b20 f i BCGPLinkStatic.obj
 0001:00007b20       ?OnKillFocus@CWnd@@IAEXPAV1@@Z 00408b20 f i IBAFormView.obj
 0001:00007b40       ?CreateObject@CBCGPToolbarCtrlCommon@@SGPAVCObject@@XZ 00408b40 f   BCGPToolbarCtrlCommon.obj
 0001:00007bb0       ?GetThisClass@CBCGPToolbarCtrlCommon@@SGPAUCRuntimeClass@@XZ 00408bb0 f   BCGPToolbarCtrlCommon.obj
 0001:00007bc0       ?GetRuntimeClass@CBCGPToolbarCtrlCommon@@UBEPAUCRuntimeClass@@XZ 00408bc0 f   BCGPToolbarCtrlCommon.obj
 0001:00007bd0       ??0CBCGPToolbarCtrlCommon@@QAE@XZ 00408bd0 f   BCGPToolbarCtrlCommon.obj
 0001:00007c40       ??_ECBCGPToolbarCtrlCommon@@UAEPAXI@Z 00408c40 f i BCGPToolbarCtrlCommon.obj
 0001:00007c40       ??_GCBCGPToolbarCtrlCommon@@UAEPAXI@Z 00408c40 f i BCGPToolbarCtrlCommon.obj
 0001:00007c70       ??0CBCGPToolbarCtrlCommon@@QAE@IHW4emBCGPToolbarCtrlCommon@@PAVCWnd@@KH@Z 00408c70 f   BCGPToolbarCtrlCommon.obj
 0001:00007d50       ??1CBCGPToolbarCtrlCommon@@UAE@XZ 00408d50 f   BCGPToolbarCtrlCommon.obj
 0001:00007e10       ?Serialize@CBCGPToolbarCtrlCommon@@UAEXAAVCArchive@@@Z 00408e10 f   BCGPToolbarCtrlCommon.obj
 0001:00007ed0       ?CreateCtrlWnd@CBCGPToolbarCtrlCommon@@MAEHXZ 00408ed0 f   BCGPToolbarCtrlCommon.obj
 0001:000082a0       ?OnCalculateSize@CBCGPToolbarCtrlCommon@@UAE?AUtagSIZE@@PAVCDC@@ABVCSize@@H@Z 004092a0 f   BCGPToolbarCtrlCommon.obj
 0001:000082f0       ?OnDraw@CBCGPToolbarCtrlCommon@@UAEXPAVCDC@@ABVCRect@@PAVCBCGPToolBarImages@@HHHHH@Z 004092f0 f   BCGPToolbarCtrlCommon.obj
 0001:00008470       ?OnMove@CBCGPToolbarCtrlCommon@@UAEXXZ 00409470 f   BCGPToolbarCtrlCommon.obj
 0001:00008560       ?AdjustCtrlRect@CBCGPToolbarCtrlCommon@@IAEXXZ 00409560 f   BCGPToolbarCtrlCommon.obj
 0001:000085f0       ?SetCtrlWindowText@CBCGPToolbarCtrlCommon@@QAEXV?$CStringT@_WV?$StrTraitMFC_DLL@_WV?$ChTraitsCRT@_W@ATL@@@@@ATL@@@Z 004095f0 f   BCGPToolbarCtrlCommon.obj
 0001:00008680       ?OnShow@CBCGPToolbarCtrlCommon@@UAEXH@Z 00409680 f   BCGPToolbarCtrlCommon.obj
 0001:000086e0       ?OnChangeParentWnd@CBCGPToolbarCtrlCommon@@UAEXPAVCWnd@@@Z 004096e0 f   BCGPToolbarCtrlCommon.obj
 0001:00008820       ?CopyFrom@CBCGPToolbarCtrlCommon@@UAEXABVCBCGPToolbarButton@@@Z 00409820 f   BCGPToolbarCtrlCommon.obj
 0001:00008890       ??0CVCenterStatic@@QAE@XZ  00409890 f   BCGPToolbarCtrlCommon.obj
 0001:000088e0       ??_GCVCenterStatic@@UAEPAXI@Z 004098e0 f i BCGPToolbarCtrlCommon.obj
 0001:000088e0       ??_ECVCenterStatic@@UAEPAXI@Z 004098e0 f i BCGPToolbarCtrlCommon.obj
 0001:00008910       ??1CVCenterStatic@@UAE@XZ  00409910 f i BCGPToolbarCtrlCommon.obj
 0001:00008930       ?GetMessageMap@CVCenterStatic@@MBEPBUAFX_MSGMAP@@XZ 00409930 f   BCGPToolbarCtrlCommon.obj
 0001:00008940       ?OnPaint@CVCenterStatic@@QAEXXZ 00409940 f   BCGPToolbarCtrlCommon.obj
 0001:000089b0       ?DrawItem@CVCenterStatic@@UAEXPAUtagDRAWITEMSTRUCT@@@Z 004099b0 f   BCGPToolbarCtrlCommon.obj
 0001:000089e0       ?SetTextColor@CVCenterStatic@@QAEKKH@Z 004099e0 f   BCGPToolbarCtrlCommon.obj
 0001:00008a20       ?DrawBkAndText@CVCenterStatic@@UAEXAAVCDC@@@Z 00409a20 f   BCGPToolbarCtrlCommon.obj
 0001:00008f20       ??0Rect@Gdiplus@@QAE@HHHH@Z 00409f20 f i IBALoginDlg.obj
 0001:00008f20       ??0CRect@@QAE@HHHH@Z       00409f20 f i BCGPToolbarCtrlCommon.obj
 0001:00008f20       ??0CRect@@QAE@UtagPOINT@@0@Z 00409f20 f i Seat.obj
 0001:00008f60       ??0CRect@@QAE@PBUtagRECT@@@Z 00409f60 f i GxxListCtrl.obj
 0001:00008f60       ??0CRect@@QAE@ABUtagRECT@@@Z 00409f60 f i BCGPToolbarCtrlCommon.obj
 0001:00008f80       ?Width@CRect@@QBEHXZ       00409f80 f i BCGPToolbarCtrlCommon.obj
 0001:00008fa0       ?Height@CRect@@QBEHXZ      00409fa0 f i BCGPToolbarCtrlCommon.obj
 0001:00008fc0       ?IsRectEmpty@CRect@@QBEHXZ 00409fc0 f i BCGPToolbarCtrlCommon.obj
 0001:00008fe0       ?InflateRect@CRect@@QAEXHH@Z 00409fe0 f i BCGPToolbarCtrlCommon.obj
 0001:00009000       ?DeflateRect@CRect@@QAEXHHHH@Z 0040a000 f i BCGPToolbarCtrlCommon.obj
 0001:00009050       ?IsLoading@CArchive@@QBEHXZ 0040a050 f i BCGPToolbarCtrlCommon.obj
 0001:00009070       ??6CArchive@@QAEAAV0@H@Z   0040a070 f i BCGPToolbarCtrlCommon.obj
 0001:00009090       ??6CArchive@@QAEAAV0@K@Z   0040a090 f i BCGPToolbarCtrlCommon.obj
 0001:00009090       ??6CArchive@@QAEAAV0@J@Z   0040a090 f i BCGPToolbarCtrlCommon.obj
 0001:00009100       ??5CArchive@@QAEAAV0@AAH@Z 0040a100 f i BCGPToolbarCtrlCommon.obj
 0001:00009120       ??5CArchive@@QAEAAV0@AAK@Z 0040a120 f i BCGPToolbarCtrlCommon.obj
 0001:00009120       ??5CArchive@@QAEAAV0@AAJ@Z 0040a120 f i BCGPToolbarCtrlCommon.obj
 0001:000091a0       ??0CBitmap@@QAE@XZ         0040a1a0 f i BCGPToolbarCtrlCommon.obj
 0001:000091c0       ??0CGdiObject@@QAE@XZ      0040a1c0 f i BCGPToolbarCtrlCommon.obj
 0001:000091f0       ??_GCBitmap@@UAEPAXI@Z     0040a1f0 f i BCGPToolbarCtrlCommon.obj
 0001:000091f0       ??_ECBitmap@@UAEPAXI@Z     0040a1f0 f i BCGPToolbarCtrlCommon.obj
 0001:00009220       ??1CBitmap@@UAE@XZ         0040a220 f i BCGPToolbarCtrlCommon.obj
 0001:00009240       ?CreateCompatibleBitmap@CBitmap@@QAEHPAVCDC@@HH@Z 0040a240 f i BCGPToolbarCtrlCommon.obj
 0001:00009270       ?CreateCompatibleDC@CDC@@QAEHPAV1@@Z 0040a270 f i BCGPToolbarCtrlCommon.obj
 0001:000092a0       ?SelectObject@CDC@@QAEPAVCBitmap@@PAV2@@Z 0040a2a0 f i BCGPToolbarCtrlCommon.obj
 0001:000092d0       ?BitBlt@CDC@@QAEHHHHHPAV1@HHK@Z 0040a2d0 f i BCGPToolbarCtrlCommon.obj
 0001:00009310       ?GetDC@CWnd@@QAEPAVCDC@@XZ 0040a310 f i BCGPToolbarCtrlCommon.obj
 0001:00009330       ?ReleaseDC@CWnd@@QAEHPAVCDC@@@Z 0040a330 f i BCGPToolbarCtrlCommon.obj
 0001:00009360       ??0CStatic@@QAE@XZ         0040a360 f i BCGPToolbarCtrlCommon.obj
 0001:00009380       ??_ECStatic@@UAEPAXI@Z     0040a380 f i BCGPToolbarCtrlCommon.obj
 0001:00009380       ??_GCStatic@@UAEPAXI@Z     0040a380 f i BCGPToolbarCtrlCommon.obj
 0001:000093b0       ??0CButton@@QAE@XZ         0040a3b0 f i BCGPToolbarCtrlCommon.obj
 0001:000093d0       ??_GCButton@@UAEPAXI@Z     0040a3d0 f i BCGPToolbarCtrlCommon.obj
 0001:000093d0       ??_ECButton@@UAEPAXI@Z     0040a3d0 f i BCGPToolbarCtrlCommon.obj
 0001:00009400       ??0CComboBox@@QAE@XZ       0040a400 f i BCGPToolbarCtrlCommon.obj
 0001:00009420       ??_ECComboBox@@UAEPAXI@Z   0040a420 f i BCGPToolbarCtrlCommon.obj
 0001:00009420       ??_GCComboBox@@UAEPAXI@Z   0040a420 f i BCGPToolbarCtrlCommon.obj
 0001:00009450       ?TransparentBlt@CDC@@QAEHHHHHPAV1@HHHHI@Z 0040a450 f i BCGPToolbarCtrlCommon.obj
 0001:000094a0       ??0AFX_CLASSINIT@@QAE@PAUCRuntimeClass@@@Z 0040a4a0 f i BCGPToolbarCtrlCommon.obj
 0001:000094c0       ?GetRuntimeClass@CDlgBossPwd@@UBEPAUCRuntimeClass@@XZ 0040a4c0 f   BossPwdDlg.obj
 0001:000094d0       ??0CDlgBossPwd@@QAE@PAVCWnd@@@Z 0040a4d0 f   BossPwdDlg.obj
 0001:00009510       ??_GCDlgBossPwd@@UAEPAXI@Z 0040a510 f i BossPwdDlg.obj
 0001:00009510       ??_ECDlgBossPwd@@UAEPAXI@Z 0040a510 f i BossPwdDlg.obj
 0001:00009540       ??1CDlgBossPwd@@UAE@XZ     0040a540 f   BossPwdDlg.obj
 0001:00009570       ?GetMessageMap@CDlgBossPwd@@MBEPBUAFX_MSGMAP@@XZ 0040a570 f   BossPwdDlg.obj
 0001:00009580       ?OnOK@CDlgBossPwd@@MAEXXZ  0040a580 f   BossPwdDlg.obj
 0001:000096e0       ?GetBossPwd@CNetBarConfig@@QBE?AV?$CStringT@_WV?$StrTraitMFC_DLL@_WV?$ChTraitsCRT@_W@ATL@@@@@ATL@@XZ 0040a6e0 f i BossPwdDlg.obj
 0001:00009720       ?OnInitDialog@CDlgBossPwd@@MAEHXZ 0040a720 f   BossPwdDlg.obj
 0001:00009760       ??0CBrokenNetwork@@AAE@XZ  0040a760 f   BrokenNetwork.obj
 0001:000098c0       ??1CBrokenNetwork@@QAE@XZ  0040a8c0 f   BrokenNetwork.obj
 0001:000099d0       ?GetInstance@CBrokenNetwork@@SAPAV1@XZ 0040a9d0 f   BrokenNetwork.obj
 0001:00009a40       ?SaveLocalStatusInfo@CBrokenNetwork@@QAEHAAVCLocalStatusInfo@NS_DAL@@@Z 0040aa40 f   BrokenNetwork.obj
 0001:00009bc0       ?LoadLocalStatusInfo@CBrokenNetwork@@QAEHXZ 0040abc0 f   BrokenNetwork.obj
 0001:00009d10       ?RestoreNetwork@CBrokenNetwork@@SAXXZ 0040ad10 f   BrokenNetwork.obj
 0001:00009d90       ?DisableNetwork@CBrokenNetwork@@SAXXZ 0040ad90 f   BrokenNetwork.obj
 0001:00009e10       ?EnableNetwork@CBrokenNetwork@@SAXXZ 0040ae10 f   BrokenNetwork.obj
 0001:00009f50       ?TestingNetwork@CBrokenNetwork@@QAEHXZ 0040af50 f   BrokenNetwork.obj
 0001:00009fd0       ?TestingResume@CBrokenNetwork@@AAEXXZ 0040afd0 f   BrokenNetwork.obj
 0001:0000a1a0       ?TestingUploadLocalConsume@CBrokenNetwork@@AAEXXZ 0040b1a0 f   BrokenNetwork.obj
 0001:0000a810       ?getDictionary@GxxValue@@QAEPAVGxxDictionary@@XZ 0040b810 f i BrokenNetwork.obj
 0001:0000a830       ?SettingNetworkStatus@CBrokenNetwork@@CAXW4emNetworkStatus@CIBAGlobal@@@Z 0040b830 f   BrokenNetwork.obj
 0001:0000a8e0       ?LoadLocalModeStatus@CBrokenNetwork@@SA?AW4emNetworkStatus@CIBAGlobal@@XZ 0040b8e0 f   BrokenNetwork.obj
 0001:0000a9f0       ?RemoveLocalMember@CBrokenNetwork@@SAHI@Z 0040b9f0 f   BrokenNetwork.obj
 0001:0000abd0       ?TestingTestBroken@CBrokenNetwork@@AAEXXZ 0040bbd0 f   BrokenNetwork.obj
 0001:0000b030       ?SetCaption@CMsgBoxDlg@@QAEXV?$CStringT@_WV?$StrTraitMFC_DLL@_WV?$ChTraitsCRT@_W@ATL@@@@@ATL@@@Z 0040c030 f i BrokenNetwork.obj
 0001:0000b090       ??0?$CThreadTemplate@VCBrokenNetwork@@X@NS_COMMON@@QAE@XZ 0040c090 f i BrokenNetwork.obj
 0001:0000b0d0       ??1CSingleLock@@QAE@XZ     0040c0d0 f i BrokenNetwork.obj
 0001:0000b0f0       ??0CCriticalSection@@QAE@XZ 0040c0f0 f i BrokenNetwork.obj
 0001:0000b160       ?Unlock@CSyncObject@@UAEHJPAJ@Z 0040c160 f i BrokenNetwork.obj
 0001:0000b180       ?Init@CCriticalSection@@AAEHXZ 0040c180 f i BrokenNetwork.obj
 0001:0000b200       ??_GCCriticalSection@@UAEPAXI@Z 0040c200 f i BrokenNetwork.obj
 0001:0000b200       ??_ECCriticalSection@@UAEPAXI@Z 0040c200 f i BrokenNetwork.obj
 0001:0000b230       ??1CCriticalSection@@UAE@XZ 0040c230 f i BrokenNetwork.obj
 0001:0000b260       ?Lock@CCriticalSection@@UAEHK@Z 0040c260 f i BrokenNetwork.obj
 0001:0000b280       ?Lock@CCriticalSection@@QAEHXZ 0040c280 f i BrokenNetwork.obj
 0001:0000b2f0       ?Unlock@CCriticalSection@@UAEHXZ 0040c2f0 f i BrokenNetwork.obj
 0001:0000b310       ??0CBrokenNetworkResume@@QAE@XZ 0040c310 f   BrokenNetworkResume.obj
 0001:0000b380       ??_ECBrokenNetworkResume@@UAEPAXI@Z 0040c380 f i BrokenNetworkResume.obj
 0001:0000b380       ??_GCBrokenNetworkResume@@UAEPAXI@Z 0040c380 f i BrokenNetworkResume.obj
 0001:0000b3b0       ??1CBrokenNetworkResume@@UAE@XZ 0040c3b0 f   BrokenNetworkResume.obj
 0001:0000b410       ?SetShouldResume@CBrokenNetworkResume@@QAEXH@Z 0040c410 f   BrokenNetworkResume.obj
 0001:0000b440       ?CheckShouldResume@CBrokenNetworkResume@@QAEHXZ 0040c440 f   BrokenNetworkResume.obj
 0001:0000b4c0       ?StartResume@CBrokenNetworkResume@@QAEXH@Z 0040c4c0 f   BrokenNetworkResume.obj
 0001:0000b510       ?Run@CBrokenNetworkResume@@UAEHXZ 0040c510 f   BrokenNetworkResume.obj
 0001:0000bd40       ??0tag_CheckoutInfo@NS_REALNAME@@QAE@XZ 0040cd40 f i BrokenNetworkResume.obj
 0001:0000bdd0       ?GetCashSoldAmount@CShiftCash@NS_DAL@@QBEHXZ 0040cdd0 f i OffDutyDlg.obj
 0001:0000bdd0       ?GetNetBarID@CNetBarInfo@NS_DAL@@QBEIXZ 0040cdd0 f i NetBarConfig.obj
 0001:0000bdd0       ?GetBundleTimeType@CFullBundleTimeInfo@@QBEIXZ 0040cdd0 f i BundleTimeListDlg.obj
 0001:0000bdd0       ?GetMemberId@CRetailVoucher@NS_DAL@@QBEIXZ 0040cdd0 f i IBADAL-JXC.obj
 0001:0000bdd0       ?GetCommonUserCount@CStatInfo@CComputerList@@QBEIXZ 0040cdd0 f i ComputerListView.obj
 0001:0000bdd0       ?GetClassId@CCheckOutinfo@NS_DAL@@QBEIXZ 0040cdd0 f i BrokenNetworkResume.obj
 0001:0000bdd0       ?GetPresentCount@CCommoditySoldInfo@NS_DAL@@QBEHXZ 0040cdd0 f i OffDutyDlg.obj
 0001:0000bdd0       ?GetDynamicReserve@CIBAConfig@@QBEHXZ 0040cdd0 f i Cashier.obj
 0001:0000bdd0       ?GetCreditAmount@CLocalConsumeInfo@NS_DAL@@QBEIXZ 0040cdd0 f i IBADAL.obj
 0001:0000bdd0       ?GetOperationType@COperationInfo@@QBEIXZ 0040cdd0 f i OutputBar.obj
 0001:0000bdf0       ?GetCashRegisterID@CIBAConfig@@QBEIXZ 0040cdf0 f i BrokenNetworkResume.obj
 0001:0000be10       ?SetReturnDate@CReturnedInfo@NS_DAL@@QAEXV?$CStringT@_WV?$StrTraitMFC_DLL@_WV?$ChTraitsCRT@_W@ATL@@@@@ATL@@@Z 0040ce10 f i BrokenNetworkResume.obj
 0001:0000be60       ?SetCanEditUserInfo@CNetBarUser@@QAEXH@Z 0040ce60 f i RealNameBase.obj
 0001:0000be60       ?SetNetBarId@CCardOpenInfo@NS_DAL@@QAEXI@Z 0040ce60 f i RegisterDlg.obj
 0001:0000be60       ?SetLastTranType@CLastTranInfo@NS_SERVLET@@QAEXI@Z 0040ce60 f i CreditReverseDlg.obj
 0001:0000be60       ?SetLength@CRespField@NS_SERVLET_HELPPER@NS_SERVLET@@QAEXI@Z 0040ce60 f i RespField.obj
 0001:0000be60       ?SetNetBarId@CCreditInfoDB@NS_DAL@@QAEXI@Z 0040ce60 f i BundleTimeDlg.obj
 0001:0000be60       ?SetNetBarId@CMemberUpgradeDB@NS_DAL@@QAEXI@Z 0040ce60 f i NDUpgradeDlg.obj
 0001:0000be60       ?SetNativeImage@Image@Gdiplus@@IAEXPAVGpImage@2@@Z 0040ce60 f i IBALoginDlg.obj
 0001:0000be60       ?SetLength@CInputParam@NS_SERVLET_HELPPER@NS_SERVLET@@QAEXI@Z 0040ce60 f i InputParam.obj
 0001:0000be60       ?SetNativeBrush@Brush@Gdiplus@@IAEXPAVGpBrush@2@@Z 0040ce60 f i IBAPrint.obj
 0001:0000be60       ?SetQuantity@CStoreInRecord@NS_SERVLET@@QAEXI@Z 0040ce60 f i JXCStoreDlg.obj
 0001:0000be60       ?SetNetBarId@CReturnedInfo@NS_DAL@@QAEXI@Z 0040ce60 f i BrokenNetworkResume.obj
 0001:0000be80       ?SetCostExpense@CUserClassInfo@@QAEXI@Z 0040ce80 f i UserClassInfo.obj
 0001:0000be80       ?SetRefNo@CCreditInfoDB@NS_DAL@@QAEXI@Z 0040ce80 f i BundleTimeDlg.obj
 0001:0000be80       ?SetLastRefNo@CLastTranInfo@NS_SERVLET@@QAEXI@Z 0040ce80 f i CreditReverseDlg.obj
 0001:0000be80       ?SetRefNo@CCardOpenInfo@NS_DAL@@QAEXI@Z 0040ce80 f i RegisterDlg.obj
 0001:0000be80       ?SetType@CRespField@NS_SERVLET_HELPPER@NS_SERVLET@@QAEXW4EParamType@23@@Z 0040ce80 f i RespField.obj
 0001:0000be80       ?SetRefNo@CMemberUpgradeDB@NS_DAL@@QAEXI@Z 0040ce80 f i NDUpgradeDlg.obj
 0001:0000be80       ?SetRefNo@CReturnedInfo@NS_DAL@@QAEXI@Z 0040ce80 f i BrokenNetworkResume.obj
 0001:0000be80       ?SetType@CInputParam@NS_SERVLET_HELPPER@NS_SERVLET@@QAEXW4EParamType@23@@Z 0040ce80 f i InputParam.obj
 0001:0000be80       ?SetCreditMoney@CCreditHelpper@@QAEXH@Z 0040ce80 f i ServletHellper.obj
 0001:0000be80       ?SetPrice@CStoreInRecord@NS_SERVLET@@QAEXI@Z 0040ce80 f i JXCStoreDlg.obj
 0001:0000bea0       ?SetLengthType@CInputParam@NS_SERVLET_HELPPER@NS_SERVLET@@QAEXW4EParamLengthType@23@@Z 0040cea0 f i InputParam.obj
 0001:0000bea0       ?SetDeposit@CUserClassInfo@@QAEXI@Z 0040cea0 f i UserClassInfo.obj
 0001:0000bea0       ?SetAmount@CStoreInRecord@NS_SERVLET@@QAEXI@Z 0040cea0 f i JXCStoreDlg.obj
 0001:0000bea0       ?SetSerialNo@CReturnedInfo@NS_DAL@@QAEXI@Z 0040cea0 f i BrokenNetworkResume.obj
 0001:0000bea0       ?SetQuantity@CSellRecord@NS_SERVLET@@QAEXI@Z 0040cea0 f i RetailMethod.obj
 0001:0000bea0       ?SetRadius@CSeat@@QAEXH@Z  0040cea0 f i SeatLayoutView.obj
 0001:0000bea0       ?SetSerialNo@CCreditInfoDB@NS_DAL@@QAEXI@Z 0040cea0 f i BundleTimeDlg.obj
 0001:0000bea0       ?SetFixedLength@CRespField@NS_SERVLET_HELPPER@NS_SERVLET@@QAEXH@Z 0040cea0 f i RespField.obj
 0001:0000bea0       ?SetSerialNo@CCardOpenInfo@NS_DAL@@QAEXI@Z 0040cea0 f i RegisterDlg.obj
 0001:0000bea0       ?SetSerialNo@CMemberUpgradeDB@NS_DAL@@QAEXI@Z 0040cea0 f i NDUpgradeDlg.obj
 0001:0000bec0       ?SetRemainQuantity@CStoreInRecord@NS_SERVLET@@QAEXI@Z 0040cec0 f i JXCStoreDlg.obj
 0001:0000bec0       ?SetMemberId@CReturnedInfo@NS_DAL@@QAEXI@Z 0040cec0 f i BrokenNetworkResume.obj
 0001:0000bec0       ?SetClassId@CFullBundleTimeInfo@@QAEXI@Z 0040cec0 f i NetbarBundleTime.obj
 0001:0000bec0       ?SetIsMember@CUserClassInfo@@QAEXH@Z 0040cec0 f i UserClassInfo.obj
 0001:0000bec0       ?SetPopMsgBox@CIBAConfig@@QAEXH@Z 0040cec0 f i CreditSetPage.obj
 0001:0000bec0       ?SetKeyValue1@CConfigInfo@NS_DAL@@QAEXI@Z 0040cec0 f i ConfigInfo.obj
 0001:0000bec0       ?SetLoopBody@CRespField@NS_SERVLET_HELPPER@NS_SERVLET@@QAEXH@Z 0040cec0 f i RespField.obj
 0001:0000bec0       ?SetMemberId@CCreditInfoDB@NS_DAL@@QAEXI@Z 0040cec0 f i BundleTimeDlg.obj
 0001:0000bec0       ?SetMemberId@CMemberUpgradeDB@NS_DAL@@QAEXI@Z 0040cec0 f i NDUpgradeDlg.obj
 0001:0000bec0       ?SetMemberId@CCardOpenInfo@NS_DAL@@QAEXI@Z 0040cec0 f i CardopenConsumeDlg.obj
 0001:0000bec0       ?SetPoint@CSellRecord@NS_SERVLET@@QAEXI@Z 0040cec0 f i RetailMethod.obj
 0001:0000bee0       ?SetOperator@CReturnedInfo@NS_DAL@@QAEXV?$CStringT@_WV?$StrTraitMFC_DLL@_WV?$ChTraitsCRT@_W@ATL@@@@@ATL@@@Z 0040cee0 f i BrokenNetworkResume.obj
 0001:0000bf40       ??1CReturnedInfo@NS_DAL@@QAE@XZ 0040cf40 f i BrokenNetworkResume.obj
 0001:0000bf80       ??0?$CArray@VCCheckOutinfo@NS_DAL@@AAV12@@@QAE@XZ 0040cf80 f i BrokenNetworkResume.obj
 0001:0000bfd0       ??1?$CArray@VCCheckOutinfo@NS_DAL@@AAV12@@@UAE@XZ 0040cfd0 f i BrokenNetworkResume.obj
 0001:0000c040       ?Serialize@?$CArray@VCCheckOutinfo@NS_DAL@@AAV12@@@UAEXAAVCArchive@@@Z 0040d040 f i BrokenNetworkResume.obj
 0001:0000c0b0       ??_E?$CArray@VCCheckOutinfo@NS_DAL@@AAV12@@@UAEPAXI@Z 0040d0b0 f i BrokenNetworkResume.obj
 0001:0000c0b0       ??_G?$CArray@VCCheckOutinfo@NS_DAL@@AAV12@@@UAEPAXI@Z 0040d0b0 f i BrokenNetworkResume.obj
 0001:0000c0e0       ??_GCCheckOutinfo@NS_DAL@@QAEPAXI@Z 0040d0e0 f i BrokenNetworkResume.obj
 0001:0000c110       ?SetSize@?$CArray@VCCheckOutinfo@NS_DAL@@AAV12@@@QAEXHH@Z 0040d110 f i BrokenNetworkResume.obj
 0001:0000c550       ??$SerializeElements@VCCheckOutinfo@NS_DAL@@@@YGXAAVCArchive@@PAVCCheckOutinfo@NS_DAL@@H@Z 0040d550 f i BrokenNetworkResume.obj
 0001:0000c620       ?ListCompare@CSortListCtrl@@SGHJJJ@Z 0040d620 f   BundleTimeDlg.obj
 0001:0000c8e0       ?GetRuntimeClass@CDlgBundleTime@@UBEPAUCRuntimeClass@@XZ 0040d8e0 f   BundleTimeDlg.obj
 0001:0000c8f0       ??0CDlgBundleTime@@QAE@PAVCWnd@@@Z 0040d8f0 f   BundleTimeDlg.obj
 0001:0000caa0       ??0CSortListCtrl@@QAE@XZ   0040daa0 f i BundleTimeDlg.obj
 0001:0000cae0       ??_GCSortListCtrl@@UAEPAXI@Z 0040dae0 f i BundleTimeDlg.obj
 0001:0000cae0       ??_ECSortListCtrl@@UAEPAXI@Z 0040dae0 f i BundleTimeDlg.obj
 0001:0000cb10       ??1CSortListCtrl@@UAE@XZ   0040db10 f i BundleTimeDlg.obj
 0001:0000cb30       ??_GCDlgBundleTime@@UAEPAXI@Z 0040db30 f i BundleTimeDlg.obj
 0001:0000cb30       ??_ECDlgBundleTime@@UAEPAXI@Z 0040db30 f i BundleTimeDlg.obj
 0001:0000cb60       ??1CDlgBundleTime@@UAE@XZ  0040db60 f   BundleTimeDlg.obj
 0001:0000ccb0       ?DoDataExchange@CDlgBundleTime@@MAEXPAVCDataExchange@@@Z 0040dcb0 f   BundleTimeDlg.obj
 0001:0000ce60       ?GetMessageMap@CDlgBundleTime@@MBEPBUAFX_MSGMAP@@XZ 0040de60 f   BundleTimeDlg.obj
 0001:0000ce70       ?OnInitDialog@CDlgBundleTime@@MAEHXZ 0040de70 f   BundleTimeDlg.obj
 0001:0000d1c0       ?CheckPopedom@CDlgBundleTime@@AAEHPB_W@Z 0040e1c0 f   BundleTimeDlg.obj
 0001:0000d1c0       ?CheckPopedom@CJXCStoreDlg@@AAEHPB_W@Z 0040e1c0 f   JXCStoreDlg.obj
 0001:0000d210       ?OnGetBalanceOK@CDlgBundleTime@@EAEXAAVCBalanceMethod@NS_SERVLET@@@Z 0040e210 f   BundleTimeDlg.obj
 0001:0000d3a0       ?GetBTLimitTime@CNetBarConfig@@QAE?BIXZ 0040e3a0 f i BundleTimeDlg.obj
 0001:0000d3a0       ?GetIsShowShiftCash@CIBAConfig@@QBEHXZ 0040e3a0 f i IBAConfig.obj
 0001:0000d3c0       ?GetLittleMoneyColor@CIBAConfig@@QBEKXZ 0040e3c0 f i MonitorSetPage.obj
 0001:0000d3c0       ?GetCannotSelfBundleTime@CNetBarConfig@@QAE?BHXZ 0040e3c0 f i BundleTimeDlg.obj
 0001:0000d3e0       ?SetCheck@CButton@@QAEXH@Z 0040e3e0 f i BundleTimeDlg.obj
 0001:0000d410       ?GetBundleTimeList@CDlgBundleTime@@AAEXXZ 0040e410 f   BundleTimeDlg.obj
 0001:0000d760       ?GetBundleTimeAction@CDlgBundleTime@@AAEXXZ 0040e760 f   BundleTimeDlg.obj
 0001:0000db70       ?BundleTimePayType@CDlgBundleTime@@AAE?AV?$CStringT@_WV?$StrTraitMFC_DLL@_WV?$ChTraitsCRT@_W@ATL@@@@@ATL@@I@Z 0040eb70 f   BundleTimeDlg.obj
 0001:0000dc80       ?InitListView@CDlgBundleTime@@AAEXXZ 0040ec80 f   BundleTimeDlg.obj
 0001:0000ddd0       ?CheckBundleTimeCondition@CDlgBundleTime@@AAEXHAAH000@Z 0040edd0 f   BundleTimeDlg.obj
 0001:0000e240       ?OnNMClickListBundletime@CDlgBundleTime@@IAEXPAUtagNMHDR@@PAJ@Z 0040f240 f   BundleTimeDlg.obj
 0001:0000e4a0       ?OnBnClickedButtonCancelbt@CDlgBundleTime@@IAEXXZ 0040f4a0 f   BundleTimeDlg.obj
 0001:0000e770       ??0CWaitCursor@@QAE@XZ     0040f770 f i BundleTimeDlg.obj
 0001:0000e790       ?AfxGetApp@@YGPAVCWinApp@@XZ 0040f790 f i BundleTimeDlg.obj
 0001:0000e7a0       ??1CWaitCursor@@QAE@XZ     0040f7a0 f i BundleTimeDlg.obj
 0001:0000e7c0       ?ClearData@CDlgBundleTime@@EAEXXZ 0040f7c0 f   BundleTimeDlg.obj
 0001:0000e950       ?OnBnClickedButtonForwardbt@CDlgBundleTime@@IAEXXZ 0040f950 f   BundleTimeDlg.obj
 0001:0000ec80       ?OnBnClickedButtonChangebt@CDlgBundleTime@@IAEXXZ 0040fc80 f   BundleTimeDlg.obj
 0001:0000ed70       ?OnBnClickedOk@CDlgBundleTime@@IAEXXZ 0040fd70 f   BundleTimeDlg.obj
 0001:0000ef20       ?OnBnClickedButtonContinuebt@CDlgBundleTime@@IAEXXZ 0040ff20 f   BundleTimeDlg.obj
 0001:0000f030       ?DoBundleTime@CDlgBundleTime@@AAEHI@Z 00410030 f   BundleTimeDlg.obj
 0001:0000f6d0       ?GetCheck@CButton@@QBEHXZ  004106d0 f i BundleTimeDlg.obj
 0001:0000f700       ?PrintTicket@CDlgBundleTime@@AAEXXZ 00410700 f   BundleTimeDlg.obj
 0001:0000f910       ?OnBnClickedButtonReprint@CDlgBundleTime@@IAEXXZ 00410910 f   BundleTimeDlg.obj
 0001:0000f930       ?OnBnClickedCheckPrint@CDlgBundleTime@@IAEXXZ 00410930 f   BundleTimeDlg.obj
 0001:0000f9a0       ?OnTimer@CDlgBundleTime@@IAEXI@Z 004109a0 f   BundleTimeDlg.obj
 0001:0000fa00       ?OnBnClickedSelfbundtime@CDlgBundleTime@@IAEXXZ 00410a00 f   BundleTimeDlg.obj
 0001:0000fac0       ?SetMemberId@CDlgBundTimeSelfDef@@QAEXI@Z 00410ac0 f i BundleTimeDlg.obj
 0001:0000fae0       ?SetIsMember@CDlgBundTimeSelfDef@@QAEXH@Z 00410ae0 f i BundleTimeDlg.obj
 0001:0000fb00       ?OnCtlColor@CDlgBundleTime@@IAEPAUHBRUSH__@@PAVCDC@@PAVCWnd@@I@Z 00410b00 f   BundleTimeDlg.obj
 0001:0000fb90       ?OnStnClickedStaticAll@CDlgBundleTime@@IAEXXZ 00410b90 f   BundleTimeDlg.obj
 0001:0000fcc0       ?OnBnClickedButtonCredit@CDlgBundleTime@@IAEXXZ 00410cc0 f   BundleTimeDlg.obj
 0001:0000fdb0       ?SetLinkEnabled@CNDCreditDlg@@QAEXH@Z 00410db0 f i BundleTimeDlg.obj
 0001:0000fdd0       ?PreTranslateMessage@CDlgBundleTime@@MAEHPAUtagMSG@@@Z 00410dd0 f   BundleTimeDlg.obj
 0001:0000fdf0       ?OnBnClickedButtonBalance@CDlgBundleTime@@IAEXXZ 00410df0 f   BundleTimeDlg.obj
 0001:0000ff20       ?OnBnClickedButtonQuery@CDlgBundleTime@@QAEXXZ 00410f20 f   BundleTimeDlg.obj
 0001:00010010       ?OnColumnListClicked@CDlgBundleTime@@IAEXPAUtagNMHDR@@PAJ@Z 00411010 f   BundleTimeDlg.obj
 0001:00010120       ?DoCredit@CDlgBundleTime@@AAEHXZ 00411120 f   BundleTimeDlg.obj
 0001:00010710       ?SetPresentAmount@COperationInfo@@QAEXI@Z 00411710 f i BundleTimeDlg.obj
 0001:00010730       ?SetOperator@CCreditInfoDB@NS_DAL@@QAEXV?$CStringT@_WV?$StrTraitMFC_DLL@_WV?$ChTraitsCRT@_W@ATL@@@@@ATL@@@Z 00411730 f i BundleTimeDlg.obj
 0001:00010790       ?SetCardSerial@CCreditInfoDB@NS_DAL@@QAEXV?$CStringT@_WV?$StrTraitMFC_DLL@_WV?$ChTraitsCRT@_W@ATL@@@@@ATL@@@Z 00411790 f i BundleTimeDlg.obj
 0001:000107f0       ?SetCreditDate@CCreditInfoDB@NS_DAL@@QAEXV?$CStringT@_WV?$StrTraitMFC_DLL@_WV?$ChTraitsCRT@_W@ATL@@@@@ATL@@@Z 004117f0 f i BundleTimeDlg.obj
 0001:00010840       ??1CCreditInfoDB@NS_DAL@@QAE@XZ 00411840 f i BundleTimeDlg.obj
 0001:00010890       ?CheckInput@CDlgBundleTime@@AAEHXZ 00411890 f   BundleTimeDlg.obj
 0001:000108e0       ??HATL@@YA?AV?$CStringT@_WV?$StrTraitMFC_DLL@_WV?$ChTraitsCRT@_W@ATL@@@@@0@ABV10@0@Z 004118e0 f i BundleTimeDlg.obj
 0001:00010990       ?GetTotalMinutes@COleDateTimeSpan@ATL@@QBENXZ 00411990 f i BundleTimeDlg.obj
 0001:000109e0       ??GCOleDateTime@ATL@@QBE?AVCOleDateTimeSpan@1@ABV01@@Z 004119e0 f i BundleTimeDlg.obj
 0001:00010a30       ??0COleDateTimeSpan@ATL@@QAE@N@Z 00411a30 f i BundleTimeDlg.obj
 0001:00010a60       ?CheckRange@COleDateTimeSpan@ATL@@QAEXXZ 00411a60 f i BundleTimeDlg.obj
 0001:00010aa0       ?DoubleFromDate@COleDateTime@ATL@@KGNN@Z 00411aa0 f i BundleTimeDlg.obj
 0001:00010ae0       ?ParseDateTime@COleDateTime@ATL@@QAE_NPB_WKK@Z 00411ae0 f i BundleTimeDlg.obj
 0001:00010bf0       ?Format@COleDateTime@ATL@@QBE?AV?$CStringT@_WV?$StrTraitMFC_DLL@_WV?$ChTraitsCRT@_W@ATL@@@@@2@PB_W@Z 00411bf0 f i BundleTimeDlg.obj
 0001:00010e40       ??0CListCtrl@@QAE@XZ       00411e40 f i BundleTimeDlg.obj
 0001:00010e60       ??_GCListCtrl@@UAEPAXI@Z   00411e60 f i BundleTimeDlg.obj
 0001:00010e60       ??_ECListCtrl@@UAEPAXI@Z   00411e60 f i BundleTimeDlg.obj
 0001:00010e90       ?GetItemCount@CListCtrl@@QBEHXZ 00411e90 f i BundleTimeDlg.obj
 0001:00010ec0       ?SetItemData@CListCtrl@@QAEHHK@Z 00411ec0 f i BundleTimeDlg.obj
 0001:00010ef0       ?InsertItem@CListCtrl@@QAEHHPB_W@Z 00411ef0 f i BundleTimeDlg.obj
 0001:00010f20       ?DeleteAllItems@CListCtrl@@QAEHXZ 00411f20 f i BundleTimeDlg.obj
 0001:00010f50       ?SortItems@CListCtrl@@QAEHP6GHJJJ@ZK@Z 00411f50 f i BundleTimeDlg.obj
 0001:00010f80       ?GetSelectionMark@CListCtrl@@QAEHXZ 00411f80 f i BundleTimeDlg.obj
 0001:00010fb0       ?LoadStringW@CStrProviderLoader@@SA?AV?$CStringT@_WV?$StrTraitMFC_DLL@_WV?$ChTraitsCRT@_W@ATL@@@@@ATL@@I@Z 00411fb0 f i BundleTimeDlg.obj
 0001:00011030       ??1?$CAtlSafeAllocBufferManager@VCCRTAllocator@ATL@@@_ATL_SAFE_ALLOCA_IMPL@ATL@@QAE@XZ 00412030 f i BundleTimeDlg.obj
 0001:00011070       ?Free@CCRTAllocator@ATL@@SAXPAX@Z 00412070 f i BundleTimeDlg.obj
 0001:00011090       ??HATL@@YA?AV?$CStringT@_WV?$StrTraitMFC_DLL@_WV?$ChTraitsCRT@_W@ATL@@@@@0@ABV10@PB_W@Z 00412090 f i BundleTimeDlg.obj
 0001:00011140       ?GetRuntimeClass@CDlgBundleTimeList@@UBEPAUCRuntimeClass@@XZ 00412140 f   BundleTimeListDlg.obj
 0001:00011150       ??0CDlgBundleTimeList@@QAE@PAVCWnd@@@Z 00412150 f   BundleTimeListDlg.obj
 0001:00011260       ??_ECDlgBundleTimeList@@UAEPAXI@Z 00412260 f i BundleTimeListDlg.obj
 0001:00011260       ??_GCDlgBundleTimeList@@UAEPAXI@Z 00412260 f i BundleTimeListDlg.obj
 0001:00011290       ??1CDlgBundleTimeList@@UAE@XZ 00412290 f   BundleTimeListDlg.obj
 0001:00011320       ?DoDataExchange@CDlgBundleTimeList@@MAEXPAVCDataExchange@@@Z 00412320 f   BundleTimeListDlg.obj
 0001:00011360       ?GetMessageMap@CDlgBundleTimeList@@MBEPBUAFX_MSGMAP@@XZ 00412360 f   BundleTimeListDlg.obj
 0001:00011370       ?OnInitDialog@CDlgBundleTimeList@@MAEHXZ 00412370 f   BundleTimeListDlg.obj
 0001:000113a0       ?FillBundleTimeList@CDlgBundleTimeList@@IAEXXZ 004123a0 f   BundleTimeListDlg.obj
 0001:00011490       ?InitListView@CDlgBundleTimeList@@IAEXXZ 00412490 f   BundleTimeListDlg.obj
 0001:000115b0       ?OnOK@CDlgBundleTimeList@@MAEXXZ 004125b0 f   BundleTimeListDlg.obj
 0001:00011af0       ?InsertItem@CDlgBundleTimeList@@IAEXHH@Z 00412af0 f   BundleTimeListDlg.obj
 0001:00011df0       ?GetBundleTimeMoneyString@CDlgBundleTimeList@@QBE?AV?$CStringT@_WV?$StrTraitMFC_DLL@_WV?$ChTraitsCRT@_W@ATL@@@@@ATL@@XZ 00412df0 f   BundleTimeListDlg.obj
 0001:00011ea0       ??0COleDateTime@ATL@@QAE@XZ 00412ea0 f i AllCheckOut.obj
 0001:00011ea0       ??0COleDateTimeSpan@ATL@@QAE@XZ 00412ea0 f i BundleTimeListDlg.obj
 0001:00011ed0       ??0COleDateTimeSpan@ATL@@QAE@JHHH@Z 00412ed0 f i BundleTimeListDlg.obj
 0001:00011f00       ?GetTotalHours@COleDateTimeSpan@ATL@@QBENXZ 00412f00 f i BundleTimeListDlg.obj
 0001:00011f50       ?GetMinutes@COleDateTimeSpan@ATL@@QBEJXZ 00412f50 f i BundleTimeListDlg.obj
 0001:00011f80       ?GetSeconds@COleDateTimeSpan@ATL@@QBEJXZ 00412f80 f i BundleTimeListDlg.obj
 0001:00011fb0       ?GetTotalSeconds@COleDateTimeSpan@ATL@@QBENXZ 00412fb0 f i BundleTimeListDlg.obj
 0001:00012000       ?SetDateTimeSpan@COleDateTimeSpan@ATL@@QAEXJHHH@Z 00413000 f i BundleTimeListDlg.obj
 0001:00012050       ?GetYear@COleDateTime@ATL@@QBEHXZ 00413050 f i BundleTimeListDlg.obj
 0001:00012090       ?GetAsSystemTime@COleDateTime@ATL@@QBE_NAAU_SYSTEMTIME@@@Z 00413090 f i BundleTimeListDlg.obj
 0001:000120e0       ?GetMonth@COleDateTime@ATL@@QBEHXZ 004130e0 f i BundleTimeListDlg.obj
 0001:00012120       ?GetDay@COleDateTime@ATL@@QBEHXZ 00413120 f i BundleTimeListDlg.obj
 0001:00012160       ?GetHour@COleDateTime@ATL@@QBEHXZ 00413160 f i BundleTimeListDlg.obj
 0001:000121a0       ?GetMinute@COleDateTime@ATL@@QBEHXZ 004131a0 f i BundleTimeListDlg.obj
 0001:000121e0       ?GetSecond@COleDateTime@ATL@@QBEHXZ 004131e0 f i BundleTimeListDlg.obj
 0001:00012220       ??MCOleDateTime@ATL@@QBE_NABV01@@Z 00413220 f i BundleTimeListDlg.obj
 0001:000122a0       ??OCOleDateTime@ATL@@QBE_NABV01@@Z 004132a0 f i BundleTimeListDlg.obj
 0001:00012320       ??YCOleDateTime@ATL@@QAEAAV01@VCOleDateTimeSpan@1@@Z 00413320 f i BundleTimeListDlg.obj
 0001:00012360       ??ZCOleDateTime@ATL@@QAEAAV01@VCOleDateTimeSpan@1@@Z 00413360 f i BundleTimeListDlg.obj
 0001:000123a0       ?DateFromDouble@COleDateTime@ATL@@KGNN@Z 004133a0 f i BundleTimeListDlg.obj
 0001:000123e0       ?GetAt@?$CArray@VCFullBundleTimeInfo@@AAV1@@@QAEAAVCFullBundleTimeInfo@@H@Z 004133e0 f i BundleTimeListDlg.obj
 0001:00012420       ?GetRuntimeClass@CRealNameDeRegDlg@@UBEPAUCRuntimeClass@@XZ 00413420 f   CardDeRegisterDlg.obj
 0001:00012430       ??0CRealNameDeRegDlg@@QAE@PAVCWnd@@@Z 00413430 f   CardDeRegisterDlg.obj
 0001:000124b0       ??_ECRealNameDeRegDlg@@UAEPAXI@Z 004134b0 f i CardDeRegisterDlg.obj
 0001:000124b0       ??_GCRealNameDeRegDlg@@UAEPAXI@Z 004134b0 f i CardDeRegisterDlg.obj
 0001:000124e0       ??1CRealNameDeRegDlg@@UAE@XZ 004134e0 f   CardDeRegisterDlg.obj
 0001:00012550       ?DoDataExchange@CRealNameDeRegDlg@@MAEXPAVCDataExchange@@@Z 00413550 f   CardDeRegisterDlg.obj
 0001:000125a0       ?GetMessageMap@CRealNameDeRegDlg@@MBEPBUAFX_MSGMAP@@XZ 004135a0 f   CardDeRegisterDlg.obj
 0001:000125b0       ?OnBnClickedOk@CRealNameDeRegDlg@@QAEXXZ 004135b0 f   CardDeRegisterDlg.obj
 0001:000127b0       ?OnInitDialog@CRealNameDeRegDlg@@UAEHXZ 004137b0 f   CardDeRegisterDlg.obj
 0001:00012800       ??0CEdit@@QAE@XZ           00413800 f i CardDeRegisterDlg.obj
 0001:00012820       ??_ECEdit@@UAEPAXI@Z       00413820 f i CardDeRegisterDlg.obj
 0001:00012820       ??_GCEdit@@UAEPAXI@Z       00413820 f i CardDeRegisterDlg.obj
 0001:00012850       ?CreateObject@CCardopenConsumeView@@SGPAVCObject@@XZ 00413850 f   CardopenConsumeDlg.obj
 0001:000128c0       ?GetThisClass@CCardopenConsumeView@@SGPAUCRuntimeClass@@XZ 004138c0 f   CardopenConsumeDlg.obj
 0001:000128d0       ?GetRuntimeClass@CCardopenConsumeView@@UBEPAUCRuntimeClass@@XZ 004138d0 f   CardopenConsumeDlg.obj
 0001:000128e0       ??0CCardopenConsumeView@@IAE@XZ 004138e0 f   CardopenConsumeDlg.obj
 0001:00012990       ??_GCCardopenConsumeView@@MAEPAXI@Z 00413990 f i CardopenConsumeDlg.obj
 0001:00012990       ??_ECCardopenConsumeView@@MAEPAXI@Z 00413990 f i CardopenConsumeDlg.obj
 0001:000129c0       ??1CCardopenConsumeView@@MAE@XZ 004139c0 f   CardopenConsumeDlg.obj
 0001:00012a70       ?DoDataExchange@CCardopenConsumeView@@MAEXPAVCDataExchange@@@Z 00413a70 f   CardopenConsumeDlg.obj
 0001:00012b00       ?GetMessageMap@CCardopenConsumeView@@MBEPBUAFX_MSGMAP@@XZ 00413b00 f   CardopenConsumeDlg.obj
 0001:00012b10       ?OnBnClickedButtonQuery@CCardopenConsumeView@@IAEXXZ 00413b10 f   CardopenConsumeDlg.obj
 0001:00012b60       ?OnCtlColor@CCardopenConsumeView@@IAEPAUHBRUSH__@@PAVCDC@@PAVCWnd@@I@Z 00413b60 f   CardopenConsumeDlg.obj
 0001:00012bb0       ?InitTimeCtrl@CCardopenConsumeView@@AAEXXZ 00413bb0 f   CardopenConsumeDlg.obj
 0001:00012cc0       ?InitDate@CCardopenConsumeView@@AAEXXZ 00413cc0 f   CardopenConsumeDlg.obj
 0001:00012dc0       ?InitList@CCardopenConsumeView@@AAEXXZ 00413dc0 f   CardopenConsumeDlg.obj
 0001:00012f80       ?FillList@CCardopenConsumeView@@AAEXXZ 00413f80 f   CardopenConsumeDlg.obj
 0001:00013450       ?GetRemark@CActiveMember@@QBE?AV?$CStringT@_WV?$StrTraitMFC_DLL@_WV?$ChTraitsCRT@_W@ATL@@@@@ATL@@XZ 00414450 f i CardopenConsumeDlg.obj
 0001:00013490       ?GetIsLocalUser@CActiveMember@@QBEHXZ 00414490 f i CardopenConsumeDlg.obj
 0001:00013490       ?GetDutyIncome@CShiftCash@NS_DAL@@QBEHXZ 00414490 f i OffDutyDlg.obj
 0001:000134b0       ?GetAccountMonth@CRetailVoucher@NS_DAL@@QBE?AV?$CStringT@_WV?$StrTraitMFC_DLL@_WV?$ChTraitsCRT@_W@ATL@@@@@ATL@@XZ 004144b0 f i IBADAL-JXC.obj
 0001:000134b0       ?GetUserNameW@CCardOpenInfo@NS_DAL@@QBE?AV?$CStringT@_WV?$StrTraitMFC_DLL@_WV?$ChTraitsCRT@_W@ATL@@@@@ATL@@XZ 004144b0 f i CardopenConsumeDlg.obj
 0001:000134f0       ?SetUserName@CCardOpenInfo@NS_DAL@@QAEXV?$CStringT@_WV?$StrTraitMFC_DLL@_WV?$ChTraitsCRT@_W@ATL@@@@@ATL@@@Z 004144f0 f i CardopenConsumeDlg.obj
 0001:00013550       ?SetIdNumber@CCardOpenInfo@NS_DAL@@QAEXV?$CStringT@_WV?$StrTraitMFC_DLL@_WV?$ChTraitsCRT@_W@ATL@@@@@ATL@@@Z 00414550 f i CardopenConsumeDlg.obj
 0001:000135b0       ?SetSerialNum@CCardOpenInfo@NS_DAL@@QAEXV?$CStringT@_WV?$StrTraitMFC_DLL@_WV?$ChTraitsCRT@_W@ATL@@@@@ATL@@@Z 004145b0 f i CardopenConsumeDlg.obj
 0001:00013610       ?SetOperationDateTime@CCardOpenInfo@NS_DAL@@QAEXV?$CStringT@_WV?$StrTraitMFC_DLL@_WV?$ChTraitsCRT@_W@ATL@@@@@ATL@@@Z 00414610 f i CardopenConsumeDlg.obj
 0001:00013660       ?SetOperator@CCardOpenInfo@NS_DAL@@QAEXV?$CStringT@_WV?$StrTraitMFC_DLL@_WV?$ChTraitsCRT@_W@ATL@@@@@ATL@@@Z 00414660 f i CardopenConsumeDlg.obj
 0001:000136c0       ??1CCardOpenInfo@NS_DAL@@QAE@XZ 004146c0 f i CardopenConsumeDlg.obj
 0001:00013710       ?GetPrintTicketCreditMember@CIBAConfig@@QBEHXZ 00414710 f i IBAConfig.obj
 0001:00013710       ?GetIBAView@CIBAApp@@QBEPAVCIBAView@@XZ 00414710 f i CardopenConsumeDlg.obj
 0001:00013730       ?OnSize@CCardopenConsumeView@@IAEXIHH@Z 00414730 f   CardopenConsumeDlg.obj
 0001:00013790       ?OnInitialUpdate@CCardopenConsumeView@@UAEXXZ 00414790 f   CardopenConsumeDlg.obj
 0001:00013810       ?PreTranslateMessage@CCardopenConsumeView@@MAEHPAUtagMSG@@@Z 00414810 f   CardopenConsumeDlg.obj
 0001:000138a0       ?OnNMDblclkListInfo@CCardopenConsumeView@@IAEXPAUtagNMHDR@@PAJ@Z 004148a0 f   CardopenConsumeDlg.obj
 0001:000139b0       ?get_accChild@CFormView@@UAEJUtagVARIANT@@PAPAUIDispatch@@@Z 004149b0 f i CardopenConsumeDlg.obj
 0001:000139f0       ?get_accChildCount@CFormView@@UAEJPAJ@Z 004149f0 f i CardopenConsumeDlg.obj
 0001:00013a10       ?get_accName@CFormView@@UAEJUtagVARIANT@@PAPA_W@Z 00414a10 f i CardopenConsumeDlg.obj
 0001:00013a50       ?accLocation@CFormView@@UAEJPAJ000UtagVARIANT@@@Z 00414a50 f i CardopenConsumeDlg.obj
 0001:00013aa0       ?accHitTest@CFormView@@UAEJJJPAUtagVARIANT@@@Z 00414aa0 f i CardopenConsumeDlg.obj
 0001:00013ad0       ??BCOleDateTimeSpan@ATL@@QBENXZ 00414ad0 f i BundleTimeListDlg.obj
 0001:00013ad0       ??BCOleDateTime@ATL@@QBENXZ 00414ad0 f i CardopenConsumeDlg.obj
 0001:00013ae0       ?DeleteColumn@CListCtrl@@QAEHH@Z 00414ae0 f i CardopenConsumeDlg.obj
 0001:00013b10       ?GetSelectedCount@CListCtrl@@QBEIXZ 00414b10 f i CardopenConsumeDlg.obj
 0001:00013b40       ?GetItemCount@CHeaderCtrl@@QBEHXZ 00414b40 f i CardopenConsumeDlg.obj
 0001:00013b70       ?GetAt@?$CArray@VCUserClassInfo@@AAV1@@@QAEAAVCUserClassInfo@@H@Z 00414b70 f i CardopenConsumeDlg.obj
 0001:00013b70       ?GetAt@?$CArray@VCStoreInRecord@NS_SERVLET@@AAV12@@@QAEAAVCStoreInRecord@NS_SERVLET@@H@Z 00414b70 f i StoreInMethod.obj
 0001:00013b70       ?GetAt@?$CArray@VCRespField@NS_SERVLET_HELPPER@NS_SERVLET@@AAV123@@@QAEAAVCRespField@NS_SERVLET_HELPPER@NS_SERVLET@@H@Z 00414b70 f i RespField.obj
 0001:00013b70       ?GetAt@?$CArray@UPCClassInformation@@AAU1@@@QAEAAUPCClassInformation@@H@Z 00414b70 f i ComputerList.obj
 0001:00013bb0       ??0CCashier@@QAE@XZ        00414bb0 f   Cashier.obj
 0001:00013c40       ??1CCashier@@QAE@XZ        00414c40 f   Cashier.obj
 0001:00013c90       ?CheckLastDuty@CCashier@@UAEHAAV?$CStringT@_WV?$StrTraitMFC_DLL@_WV?$ChTraitsCRT@_W@ATL@@@@@ATL@@@Z 00414c90 f   Cashier.obj
 0001:00013db0       ?WriteDutyInfo@CCashier@@EAEXXZ 00414db0 f   Cashier.obj
 0001:00013f20       ?HasPopedomOf@CCashier@@UAEHPB_W@Z 00414f20 f   Cashier.obj
 0001:00013f40       ?GetInstance@CRightsManagement@NS_DAL@@SAPAV12@XZ 00414f40 f i Cashier.obj
 0001:00013fb0       ?IsOnDuty@CCashier@@QAEHXZ 00414fb0 f   Cashier.obj
 0001:00013ff0       ?GetOnDutyTime@CCashier@@QBE?AV?$CStringT@_WV?$StrTraitMFC_DLL@_WV?$ChTraitsCRT@_W@ATL@@@@@ATL@@XZ 00414ff0 f   Cashier.obj
 0001:00014070       ?CheckIn@CCashier@@UAEHAAVCCashRegisterLoginMethod@NS_SERVLET@@V?$CStringT@_WV?$StrTraitMFC_DLL@_WV?$ChTraitsCRT@_W@ATL@@@@@ATL@@@Z 00415070 f   Cashier.obj
 0001:00014eb0       ?GetMonitorAuditProxy@CNetBarConfig@@QAE?BHXZ 00415eb0 f i Cashier.obj
 0001:00014eb0       ?GetZdCrc@CIBAConfig@@QBEKXZ 00415eb0 f i IBAConfig.obj
 0001:00014ed0       ?GetForceQuitVersion@CNetBarConfig@@QAE?BV?$CStringT@_WV?$StrTraitMFC_DLL@_WV?$ChTraitsCRT@_W@ATL@@@@@ATL@@XZ 00415ed0 f i Cashier.obj
 0001:00014f10       ?GetBirthDayColor@CIBAConfig@@QBEKXZ 00415f10 f i MonitorSetPage.obj
 0001:00014f10       ?GetForceQuitParam@CNetBarConfig@@QAE?BHXZ 00415f10 f i Cashier.obj
 0001:00014f30       ?SetMustSynchronize@CNetBarConfig@@QAEXH@Z 00415f30 f i Cashier.obj
 0001:00014f50       ?SetBundleTimeWithCash@CNetBarConfig@@QAEXH@Z 00415f50 f i Cashier.obj
 0001:00014f70       ?SetCreditDirect@CNetBarConfig@@QAEXH@Z 00415f70 f i Cashier.obj
 0001:00014f90       ?SetAgentName@CNetBarConfig@@QAEXV?$CStringT@_WV?$StrTraitMFC_DLL@_WV?$ChTraitsCRT@_W@ATL@@@@@ATL@@@Z 00415f90 f i Cashier.obj
 0001:00014ff0       ?SetAgentMobilePhone@CNetBarConfig@@QAEXV?$CStringT@_WV?$StrTraitMFC_DLL@_WV?$ChTraitsCRT@_W@ATL@@@@@ATL@@@Z 00415ff0 f i Cashier.obj
 0001:00015050       ?SetAgentregularTel@CNetBarConfig@@QAEXV?$CStringT@_WV?$StrTraitMFC_DLL@_WV?$ChTraitsCRT@_W@ATL@@@@@ATL@@@Z 00416050 f i Cashier.obj
 0001:000150b0       ?SetIsInternetCafe@CNetBarConfig@@QAEXI@Z 004160b0 f i Cashier.obj
 0001:000150d0       ?SetAddressInternetCafe@CNetBarConfig@@QAEXV?$CStringT@_WV?$StrTraitMFC_DLL@_WV?$ChTraitsCRT@_W@ATL@@@@@ATL@@@Z 004160d0 f i Cashier.obj
 0001:00015130       ?CheckIn_atLogin@CCashier@@UAEHAAVCCashRegisterLoginMethod_atLogin@NS_SERVLET@@V?$CStringT@_WV?$StrTraitMFC_DLL@_WV?$ChTraitsCRT@_W@ATL@@@@@ATL@@@Z 00416130 f   Cashier.obj
 0001:00015fc0       ?DoOnDuty@CCashier@@UAEHAAVCOnDutyMethod@NS_SERVLET@@@Z 00416fc0 f   Cashier.obj
 0001:00016110       ?DoOffDuty@CCashier@@UAEHAAVCOffDutyMethod@NS_SERVLET@@@Z 00417110 f   Cashier.obj
 0001:000161e0       ?DoRegister@CCashier@@UAEHAAVCRegisterMethod@NS_SERVLET@@@Z 004171e0 f   Cashier.obj
 0001:000162c0       ?GetShowLocalModeButton@CIBAConfig@@QBEHXZ 004172c0 f i IBAConfig.obj
 0001:000162c0       ?IsContextMenuEnabled@CWebBrowser@@QBEHXZ 004172c0 f i WebBrowser.obj
 0001:000162c0       ?GetIssueNetBarId@CNetBarConfig@@QBEIXZ 004172c0 f i Cashier.obj
 0001:000162e0       ?DoCredit@CCashier@@UAEHAAVCCreditMethod@NS_SERVLET@@@Z 004172e0 f   Cashier.obj
 0001:000165c0       ?MakeupCredit@CCashier@@UAEHAAVCCreditMethod@NS_SERVLET@@@Z 004175c0 f   Cashier.obj
 0001:00016840       ?DoMemberInfo@CCashier@@UAEHAAVCMemberInfoMethod@NS_SERVLET@@@Z 00417840 f   Cashier.obj
 0001:00016840       ?DoBundleTimeAction@CCashier@@UAEHAAVCBundleTimeActionMethod@NS_SERVLET@@@Z 00417840 f   Cashier.obj
 0001:00016860       ?DoDeregister@CCashier@@UAEHAAVCDeregisterMethod@NS_SERVLET@@I@Z 00417860 f   Cashier.obj
 0001:000170f0       ?DoBalance@CCashier@@UAEHAAVCBalanceMethod@NS_SERVLET@@@Z 004180f0 f   Cashier.obj
 0001:00017320       ?GetUpdateDataTime@CActiveMember@@QBE?AVCOleDateTime@ATL@@XZ 00418320 f i Cashier.obj
 0001:00017350       ?GetStatus@CActiveMember@@QBEHXZ 00418350 f i Cashier.obj
 0001:00017350       ?GetMemberId@CCurrentNetBarUser@@QBEIXZ 00418350 f i CurrentNetBarUser.obj
 0001:00017350       ?GetRegisterMoney@CIBAConfig@@QBEIXZ 00418350 f i IBABusinessSet.obj
 0001:00017370       ?DoCheckCard@CCashier@@UAEHAAVCIDCheckCardMethod@NS_SERVLET@@@Z 00418370 f   Cashier.obj
 0001:000173b0       ?DoResetPwd@CCashier@@UAEHAAVCResetPwdMethod@NS_SERVLET@@@Z 004183b0 f   Cashier.obj
 0001:000173f0       ?DoActivation@CCashier@@UAEHAAVCActivationMethod@NS_SERVLET@@@Z 004183f0 f   Cashier.obj
 0001:00017420       ?DoStoreIn@CCashier@@UAEHAAVCStoreInMethod@NS_SERVLET@@@Z 00418420 f   Cashier.obj
 0001:00017480       ?DoShiftTotal@CCashier@@UAEHAAVCShiftTotalMethod@NS_SERVLET@@@Z 00418480 f   Cashier.obj
 0001:000174e0       ?DoCreditReverse@CCashier@@UAEHAAVCCreditReverseMethod@NS_SERVLET@@@Z 004184e0 f   Cashier.obj
 0001:00017540       ?DoCheckout2@CCashier@@UAEHAAVCCheckout2Method@NS_SERVLET@@H@Z 00418540 f   Cashier.obj
 0001:00017c10       ?DoModifyMember@CCashier@@UAEHAAVCModifyMemberMethod@NS_SERVLET@@@Z 00418c10 f   Cashier.obj
 0001:00017c50       ?DoBundleTimeList@CCashier@@UAEHAAVCBundleTimeListMethod@NS_SERVLET@@@Z 00418c50 f   Cashier.obj
 0001:00017ca0       ?DoBundleTime@CCashier@@UAEHAAVCBundleTimeMethod@NS_SERVLET@@@Z 00418ca0 f   Cashier.obj
 0001:00017d20       ?DoCancelBundleTime@CCashier@@UAEHAAVCCancelBundleTimeMethod@NS_SERVLET@@@Z 00418d20 f   Cashier.obj
 0001:00017d70       ?DoCardReplace@CCashier@@UAEHAAVCCardReplaceMethod@NS_SERVLET@@@Z 00418d70 f   Cashier.obj
 0001:00017dd0       ?DoMergeMember@CCashier@@UAEHAAVCMergeMemberMethod@NS_SERVLET@@@Z 00418dd0 f   Cashier.obj
 0001:00017e50       ?DoShiftCredit@CCashier@@UAEHAAVCShiftCreditMethod@NS_SERVLET@@@Z 00418e50 f   Cashier.obj
 0001:00017ea0       ?DoConsumeList@CCashier@@UAEHAAVCConsumeListMethod@NS_SERVLET@@@Z 00418ea0 f   Cashier.obj
 0001:00017ef0       ?DoTermConsume@CCashier@@UAEHAAVCTermConsumeMethod@NS_SERVLET@@@Z 00418ef0 f   Cashier.obj
 0001:00017f30       ?DoUpgrade@CCashier@@UAEHAAVCUpgradeMethod@NS_SERVLET@@@Z 00418f30 f   Cashier.obj
 0001:00017f70       ?DoCardCredit@CCashier@@UAEHAAVCCardCreditMethod@NS_SERVLET@@@Z 00418f70 f   Cashier.obj
 0001:00017fe0       ?GetStoreID@CIBAConfig@@QBEIXZ 00418fe0 f i Cashier.obj
 0001:00018000       ?DoRetailOnline@CCashier@@UAEHAAVCRetailOnlineMethod@NS_SERVLET@@@Z 00419000 f   Cashier.obj
 0001:00018000       ?DoRetail@CCashier@@UAEHAAVCRetailMethod@NS_SERVLET@@@Z 00419000 f   Cashier.obj
 0001:00018090       ?DoStoreQuantity@CCashier@@UAEHAAVCStoreQuantityMethod@NS_SERVLET@@@Z 00419090 f   Cashier.obj
 0001:000180e0       ?DoUsePoint@CCashier@@UAEHAAVCUsePointMethod@NS_SERVLET@@@Z 004190e0 f   Cashier.obj
 0001:00018140       ?DoLocalMode@CCashier@@UAEHXZ 00419140 f   Cashier.obj
 0001:00018260       ?DoAssetStatus@CCashier@@UAEHXZ 00419260 f   Cashier.obj
 0001:00018610       ?GetPrintTicketOpenTemp@CIBAConfig@@QBEHXZ 00419610 f i IBAConfig.obj
 0001:00018610       ?GetICControlVerID@CNetBarConfig@@QBEIXZ 00419610 f i Cashier.obj
 0001:00018630       ?WriteLoginInfo@CCashier@@AAEXV?$CStringT@_WV?$StrTraitMFC_DLL@_WV?$ChTraitsCRT@_W@ATL@@@@@ATL@@@Z 00419630 f   Cashier.obj
 0001:00018790       ?DoBundleTime2@CCashier@@UAEHAAVCBundleTime2Method@NS_SERVLET@@@Z 00419790 f   Cashier.obj
 0001:000187d0       ?DoBundleTimeList2@CCashier@@UAEHAAVCBundleTimeList2Method@NS_SERVLET@@@Z 004197d0 f   Cashier.obj
 0001:00018810       ?DoShiftList@CCashier@@UAEHAAVCShiftListMethod@NS_SERVLET@@@Z 00419810 f   Cashier.obj
 0001:00018850       ?DoLocalConsume@CCashier@@UAEHAAVCLocalConsumeMethod@NS_SERVLET@@@Z 00419850 f   Cashier.obj
 0001:00018850       ?DoDetailData@CCashier@@UAEHAAVCDetailDataMethod@NS_SERVLET@@@Z 00419850 f   Cashier.obj
 0001:00018870       ?DoCheckIn@CCashier@@UAEHAAVCCheckInMethod@NS_SERVLET@@@Z 00419870 f   Cashier.obj
 0001:000188b0       ?DoCreditDirect@CCashier@@UAEHAAVCCreditDirectMethod@NS_SERVLET@@@Z 004198b0 f   Cashier.obj
 0001:00018930       ?DoConsumeListEx@CCashier@@UAEHAAVCConsumeListMethodEx@NS_SERVLET@@@Z 00419930 f   Cashier.obj
 0001:00018970       ?LocalModeLogin@CCashier@@QAEHXZ 00419970 f   Cashier.obj
 0001:00018f10       ?DoNetbarRoom@CCashier@@UAEHAAVCNetbarRoomMethod@NS_SERVLET@@@Z 00419f10 f   Cashier.obj
 0001:00018f50       ?DoRoomCheckIn@CCashier@@UAEHAAVCRoomCheckIn@NS_SERVLET@@@Z 00419f50 f   Cashier.obj
 0001:00018fb0       ?DoRoomCheckOut@CCashier@@UAEHAAVCRoomCheckOut@NS_SERVLET@@@Z 00419fb0 f   Cashier.obj
 0001:00019010       ?MonitorAuditProxy@CCashier@@QAEHXZ 0041a010 f   Cashier.obj
 0001:000191a0       ?SetCenterAddr@CCashier@@QAEXAAVCCashRegisterLoginMethod@NS_SERVLET@@@Z 0041a1a0 f   Cashier.obj
 0001:000192f0       ?DoBuckleAmount@CCashier@@UAEHAAVCBuckleAmountMethod@NS_SERVLET@@@Z 0041a2f0 f   Cashier.obj
 0001:00019330       ??9ATL@@YA_NABV?$CStringT@_WV?$StrTraitMFC_DLL@_WV?$ChTraitsCRT@_W@ATL@@@@@0@0@Z 0041a330 f i Cashier.obj
 0001:00019350       ??PCOleDateTime@ATL@@QBE_NABV01@@Z 0041a350 f i Cashier.obj
 0001:000193a0       ??8COleDateTime@ATL@@QBE_NABV01@@Z 0041a3a0 f i Cashier.obj
 0001:00019410       ??HCOleDateTime@ATL@@QBE?AV01@VCOleDateTimeSpan@1@@Z 0041a410 f i Cashier.obj
 0001:00019460       ??0COleDateTime@ATL@@QAE@N@Z 0041a460 f i Cashier.obj
 0001:00019490       ??0?$CArray@V?$CStringT@_WV?$StrTraitMFC_DLL@_WV?$ChTraitsCRT@_W@ATL@@@@@ATL@@AAV12@@@QAE@XZ 0041a490 f i Cashier.obj
 0001:000194e0       ??1?$CArray@V?$CStringT@_WV?$StrTraitMFC_DLL@_WV?$ChTraitsCRT@_W@ATL@@@@@ATL@@AAV12@@@UAE@XZ 0041a4e0 f i Cashier.obj
 0001:00019550       ??_G?$CArray@V?$CStringT@_WV?$StrTraitMFC_DLL@_WV?$ChTraitsCRT@_W@ATL@@@@@ATL@@AAV12@@@UAEPAXI@Z 0041a550 f i Cashier.obj
 0001:00019550       ??_E?$CArray@V?$CStringT@_WV?$StrTraitMFC_DLL@_WV?$ChTraitsCRT@_W@ATL@@@@@ATL@@AAV12@@@UAEPAXI@Z 0041a550 f i Cashier.obj
 0001:00019580       ??_G?$CStringT@_WV?$StrTraitMFC_DLL@_WV?$ChTraitsCRT@_W@ATL@@@@@ATL@@QAEPAXI@Z 0041a580 f i Cashier.obj
 0001:000195b0       ?MakeCheckOutInfo@CCashierHelper@@SAXAAVCActiveMember@@AAVCCheckOutinfo@NS_DAL@@@Z 0041a5b0 f   CashierHelper.obj
 0001:00019790       ?GetUserClassName@CActiveMember@@QAE?BV?$CStringT@_WV?$StrTraitMFC_DLL@_WV?$ChTraitsCRT@_W@ATL@@@@@ATL@@XZ 0041a790 f i CashierHelper.obj
 0001:000197d0       ?DoCredit_InLocal@CCashierHelper@@SA?AV?$CStringT@_WV?$StrTraitMFC_DLL@_WV?$ChTraitsCRT@_W@ATL@@@@@ATL@@AAVCActiveMember@@I@Z 0041a7d0 f   CashierHelper.obj
 0001:00019d40       ?CashSellDianka@CCashierHelper@@SAHPB_W@Z 0041ad40 f   CashierHelper.obj
 0001:00019e90       ?InitDiankaPlatform@CCashierHelper@@SAHXZ 0041ae90 f   CashierHelper.obj
 0001:0001a7c0       ?GetTickCount@CTime@ATL@@SG?AV12@XZ 0041b7c0 f i CashierHelper.obj
 0001:0001a7e0       ?GetPauseRevMsg@CIBAConfig@@QBEHXZ 0041b7e0 f i IBASetPage.obj
 0001:0001a7e0       ?GetMainCenterPort@CNetBarConfig@@QBEIXZ 0041b7e0 f i CashierHelper.obj
 0001:0001a800       ?GetBackupCenterIP@CNetBarConfig@@QBE?AV?$CStringT@_WV?$StrTraitMFC_DLL@_WV?$ChTraitsCRT@_W@ATL@@@@@ATL@@XZ 0041b800 f i CashierHelper.obj
 0001:0001a840       ?GetBackupCenterPort@CNetBarConfig@@QBEIXZ 0041b840 f i CashierHelper.obj
 0001:0001a840       ?GetShowLastUserNetId@CIBAConfig@@QBEHXZ 0041b840 f i IBASetPage.obj
 0001:0001a860       ?GetDodoNewHost@CNetBarConfig@@QBE?AV?$CStringT@_WV?$StrTraitMFC_DLL@_WV?$ChTraitsCRT@_W@ATL@@@@@ATL@@XZ 0041b860 f i CashierHelper.obj
 0001:0001a8a0       ?GetDefUserClassID@CIBAConfig@@QBEIXZ 0041b8a0 f i IBABusinessSet.obj
 0001:0001a8a0       ?GetDomainId@CNetBarConfig@@QAEIXZ 0041b8a0 f i CashierHelper.obj
 0001:0001a8c0       ?UninitDiankaPlatform@CCashierHelper@@SAHXZ 0041b8c0 f   CashierHelper.obj
 0001:0001a8f0       ?SellDianka@CCashierHelper@@SAHXZ 0041b8f0 f   CashierHelper.obj
 0001:0001a920       ?ReportLocalCredit@CCashierHelper@@SAXPAVGxxDictionary@@@Z 0041b920 f   CashierHelper.obj
 0001:0001b170       ?ReportLocalReturn@CCashierHelper@@SAXAAVCLocalMember@@@Z 0041c170 f   CashierHelper.obj
 0001:0001b6f0       ?ReportLocalConsume@CCashierHelper@@SAXAAVCLocalMember@@@Z 0041c6f0 f   CashierHelper.obj
 0001:0001b930       ?ReportLocalReturnVip@CCashierHelper@@SAXAAVCLocalMember@@@Z 0041c930 f   CashierHelper.obj
 0001:0001bdd0       ?RemoveLocalCredit@CCashierHelper@@SAHV?$CStringT@_WV?$StrTraitMFC_DLL@_WV?$ChTraitsCRT@_W@ATL@@@@@ATL@@@Z 0041cdd0 f   CashierHelper.obj
 0001:0001bf70       ?CalcBalance@CCashierHelper@@SAIV?$CStringT@_WV?$StrTraitMFC_DLL@_WV?$ChTraitsCRT@_W@ATL@@@@@ATL@@JI@Z 0041cf70 f   CashierHelper.obj
 0001:0001c2f0       ?CalcRemainTime@CCashierHelper@@SAIIJV?$CStringT@_WV?$StrTraitMFC_DLL@_WV?$ChTraitsCRT@_W@ATL@@@@@ATL@@@Z 0041d2f0 f   CashierHelper.obj
 0001:0001c6b0       ??0?$CGxxString@D@G2XUtility@@QAE@PBD@Z 0041d6b0 f i CashierHelper.obj
 0001:0001c6e0       ??1?$CGxxString@D@G2XUtility@@UAE@XZ 0041d6e0 f i CashierHelper.obj
 0001:0001c720       ?Mid@?$CGxxString@D@G2XUtility@@QAE?AV12@HI@Z 0041d720 f i CashierHelper.obj
 0001:0001c800       ?ParseInt@?$CGxxString@D@G2XUtility@@QAEHXZ 0041d800 f i CashierHelper.obj
 0001:0001c840       ??_G?$CGxxString@D@G2XUtility@@UAEPAXI@Z 0041d840 f i CashierHelper.obj
 0001:0001c840       ??_E?$CGxxString@D@G2XUtility@@UAEPAXI@Z 0041d840 f i CashierHelper.obj
 0001:0001c870       ??0COleDateTime@ATL@@QAE@J@Z 0041d870 f i CashierHelper.obj
 0001:0001c8b0       ??4COleDateTime@ATL@@QAEAAV01@ABJ@Z 0041d8b0 f i CashierHelper.obj
 0001:0001c8e0       ??NCOleDateTime@ATL@@QBE_NABV01@@Z 0041d8e0 f i CashierHelper.obj
 0001:0001c930       ?IsWideCharCode@?$CGxxString@D@G2XUtility@@QAE_NXZ 0041d930 f i CashierHelper.obj
 0001:0001c940       ??0?$CGxxString@D@G2XUtility@@QAE@ABV01@@Z 0041d940 f i CashierHelper.obj
 0001:0001c980       ?Append@?$CGxxString@D@G2XUtility@@QAEXPBD@Z 0041d980 f i CashierHelper.obj
 0001:0001c9a0       ?_init@?$CGxxString@D@G2XUtility@@IAEXI@Z 0041d9a0 f i CashierHelper.obj
 0001:0001c9f0       ?Append@?$CGxxString@D@G2XUtility@@QAEXPBDH@Z 0041d9f0 f i CashierHelper.obj
 0001:0001ca90       ?Append@?$CGxxString@D@G2XUtility@@QAEXABV12@@Z 0041da90 f i CashierHelper.obj
 0001:0001cab0       ?ReAllocate@?$CGxxString@D@G2XUtility@@QAE_NI_N@Z 0041dab0 f i CashierHelper.obj
 0001:0001cb80       ?GetLength@?$CGxxString@D@G2XUtility@@QBEHPBD@Z 0041db80 f i CashierHelper.obj
 0001:0001cbc0       ??0?$CW2WEX@$0IA@@ATL@@QAE@PB_W@Z 0041dbc0 f i CashierHelper.obj
 0001:0001cbf0       ??0?$CW2AEX@$0IA@@ATL@@QAE@PB_W@Z 0041dbf0 f i CashierHelper.obj
 0001:0001cc20       ?Init@?$CW2WEX@$0IA@@ATL@@AAEXPB_W@Z 0041dc20 f i CashierHelper.obj
 0001:0001cca0       ?Init@?$CW2AEX@$0IA@@ATL@@AAEXPB_WI@Z 0041dca0 f i CashierHelper.obj
 0001:0001cd30       ??0CDESArgo@@AAE@XZ        0041dd30 f   CDESArgo.obj
 0001:0001cd60       ?GetInstance@CDESArgo@@SAPAV1@XZ 0041dd60 f   CDESArgo.obj
 0001:0001cde0       ?Init@CDESArgo@@AAEXPAD0@Z 0041dde0 f   CDESArgo.obj
 0001:0001d000       ?DESEncode@CDESArgo@@QAEHPAD0KHPAH@Z 0041e000 f   CDESArgo.obj
 0001:0001d0f0       ?Base64Encode@ATL@@YAHPBEHPADPAHK@Z 0041e0f0 f i CDESArgo.obj
 0001:0001d3f0       ?Base64EncodeGetRequiredLength@ATL@@YAHHK@Z 0041e3f0 f i CDESArgo.obj
 0001:0001d4a0       ?DESEncodeEx@CDESArgo@@QAEHPADKAAV?$basic_string@DU?$char_traits@D@std@@V?$allocator@D@2@@std@@@Z 0041e4a0 f   CDESArgo.obj
 0001:0001d5a0       ?GetRuntimeClass@CDlgChangeNetId@@UBEPAUCRuntimeClass@@XZ 0041e5a0 f   ChangeUserSNDlg.obj
 0001:0001d5b0       ??0CDlgChangeNetId@@QAE@PAVCWnd@@@Z 0041e5b0 f   ChangeUserSNDlg.obj
 0001:0001d630       ??_ECDlgChangeNetId@@UAEPAXI@Z 0041e630 f i ChangeUserSNDlg.obj
 0001:0001d630       ??_GCDlgChangeNetId@@UAEPAXI@Z 0041e630 f i ChangeUserSNDlg.obj
 0001:0001d660       ??1CDlgChangeNetId@@UAE@XZ 0041e660 f   ChangeUserSNDlg.obj
 0001:0001d6c0       ?DoDataExchange@CDlgChangeNetId@@MAEXPAVCDataExchange@@@Z 0041e6c0 f   ChangeUserSNDlg.obj
 0001:0001d7a0       ?GetMessageMap@CDlgChangeNetId@@MBEPBUAFX_MSGMAP@@XZ 0041e7a0 f   ChangeUserSNDlg.obj
 0001:0001d7b0       ?OnInitDialog@CDlgChangeNetId@@MAEHXZ 0041e7b0 f   ChangeUserSNDlg.obj
 0001:0001d850       ?OnBnClickedButtonChangeusersn@CDlgChangeNetId@@IAEXXZ 0041e850 f   ChangeUserSNDlg.obj
 0001:0001dca0       ?ClearData@CDlgChangeNetId@@MAEXXZ 0041eca0 f   ChangeUserSNDlg.obj
 0001:0001dd70       ?OnGetBalanceOK@CDlgChangeNetId@@MAEXAAVCBalanceMethod@NS_SERVLET@@@Z 0041ed70 f   ChangeUserSNDlg.obj
 0001:0001df60       ?OnBnClickedButtonQuery@CDlgChangeNetId@@IAEXXZ 0041ef60 f   ChangeUserSNDlg.obj
 0001:0001e040       ?CheckCard@CDlgChangeNetId@@IAEXPB_W@Z 0041f040 f   ChangeUserSNDlg.obj
 0001:0001e200       ?SetLimitText@CEdit@@QAEXI@Z 0041f200 f i ChangeUserSNDlg.obj
 0001:0001e200       ?LimitText@CEdit@@QAEXH@Z  0041f200 f i JXCSellDlg.obj
 0001:0001e230       ?GetRuntimeClass@CCheckMemberDlg@@UBEPAUCRuntimeClass@@XZ 0041f230 f   CheckMemberDlg.obj
 0001:0001e240       ??0CCheckMemberDlg@@QAE@PAVCWnd@@@Z 0041f240 f   CheckMemberDlg.obj
 0001:0001e390       ??_GCCheckMemberDlg@@UAEPAXI@Z 0041f390 f i CheckMemberDlg.obj
 0001:0001e390       ??_ECCheckMemberDlg@@UAEPAXI@Z 0041f390 f i CheckMemberDlg.obj
 0001:0001e3c0       ??1CCheckMemberDlg@@UAE@XZ 0041f3c0 f   CheckMemberDlg.obj
 0001:0001e4e0       ?DoDataExchange@CCheckMemberDlg@@MAEXPAVCDataExchange@@@Z 0041f4e0 f   CheckMemberDlg.obj
 0001:0001e5f0       ?GetMessageMap@CCheckMemberDlg@@MBEPBUAFX_MSGMAP@@XZ 0041f5f0 f   CheckMemberDlg.obj
 0001:0001e600       ?OnInitDialog@CCheckMemberDlg@@MAEHXZ 0041f600 f   CheckMemberDlg.obj
 0001:0001e660       ?SetRealName@CCheckMemberDlg@@QAEXAAVCNetBarUser@@@Z 0041f660 f   CheckMemberDlg.obj
 0001:0001e7d0       ?SetServlet@CCheckMemberDlg@@QAEXAAVCBalanceMethod@NS_SERVLET@@@Z 0041f7d0 f   CheckMemberDlg.obj
 0001:0001e9a0       ?SetCardID@CCheckMemberDlg@@QAEXV?$CStringT@_WV?$StrTraitMFC_DLL@_WV?$ChTraitsCRT@_W@ATL@@@@@ATL@@@Z 0041f9a0 f   CheckMemberDlg.obj
 0001:0001ea10       ?DoModify@CCheckMemberDlg@@IAEXXZ 0041fa10 f   CheckMemberDlg.obj
 0001:0001ec10       ??0CChinaUnicomConfig@@QAE@XZ 0041fc10 f   ChinaUnicomConfig.obj
 0001:0001ec40       ??1CChinaUnicomConfig@@QAE@XZ 0041fc40 f   ChinaUnicomConfig.obj
 0001:0001ec60       ?GetInstance@CChinaUnicomConfig@@SAPAV1@XZ 0041fc60 f   ChinaUnicomConfig.obj
 0001:0001ece0       ?Load@CChinaUnicomConfig@@QAEXXZ 0041fce0 f   ChinaUnicomConfig.obj
 0001:0001eef0       ??1QrData@@QAE@XZ          0041fef0 f i CreditDlg.obj
 0001:0001eef0       ??1ClassIDItem@CChinaUnicomConfig@@QAE@XZ 0041fef0 f i ChinaUnicomConfig.obj
 0001:0001ef20       ??0ClassIDItem@CChinaUnicomConfig@@QAE@ABU01@@Z 0041ff20 f i ChinaUnicomConfig.obj
 0001:0001efb0       ?GetClassIDItem@CChinaUnicomConfig@@QAEHIAAUClassIDItem@1@@Z 0041ffb0 f   ChinaUnicomConfig.obj
 0001:0001eff0       ??4ClassIDItem@CChinaUnicomConfig@@QAEAAU01@ABU01@@Z 0041fff0 f i ChinaUnicomConfig.obj
 0001:0001f050       ??0?$CMap@IIUClassIDItem@CChinaUnicomConfig@@U12@@@QAE@H@Z 00420050 f i ChinaUnicomConfig.obj
 0001:0001f0b0       ?PLookup@?$CMap@IIUClassIDItem@CChinaUnicomConfig@@U12@@@QAEPAUCPair@1@I@Z 004200b0 f i ChinaUnicomConfig.obj
 0001:0001f0e0       ??A?$CMap@IIUClassIDItem@CChinaUnicomConfig@@U12@@@QAEAAUClassIDItem@CChinaUnicomConfig@@I@Z 004200e0 f i ChinaUnicomConfig.obj
 0001:0001f170       ?SetAt@?$CMap@IIUClassIDItem@CChinaUnicomConfig@@U12@@@QAEXIUClassIDItem@CChinaUnicomConfig@@@Z 00420170 f i ChinaUnicomConfig.obj
 0001:0001f1d0       ??1?$CMap@IIUClassIDItem@CChinaUnicomConfig@@U12@@@UAE@XZ 004201d0 f i ChinaUnicomConfig.obj
 0001:0001f230       ?Serialize@?$CMap@IIUClassIDItem@CChinaUnicomConfig@@U12@@@UAEXAAVCArchive@@@Z 00420230 f i ChinaUnicomConfig.obj
 0001:0001f3a0       ??_E?$CMap@IIUClassIDItem@CChinaUnicomConfig@@U12@@@UAEPAXI@Z 004203a0 f i ChinaUnicomConfig.obj
 0001:0001f3a0       ??_G?$CMap@IIUClassIDItem@CChinaUnicomConfig@@U12@@@UAEPAXI@Z 004203a0 f i ChinaUnicomConfig.obj
 0001:0001f3d0       ?RemoveAll@?$CMap@IIUClassIDItem@CChinaUnicomConfig@@U12@@@QAEXXZ 004203d0 f i ChinaUnicomConfig.obj
 0001:0001f480       ?InitHashTable@?$CMap@IIVCActiveMember@@AAV1@@@QAEXIH@Z 00420480 f i ActiveMemberList.obj
 0001:0001f480       ?InitHashTable@?$CMap@IIUClassIDItem@CChinaUnicomConfig@@U12@@@QAEXIH@Z 00420480 f i ChinaUnicomConfig.obj
 0001:0001f500       ?NewAssoc@?$CMap@IIUClassIDItem@CChinaUnicomConfig@@U12@@@IAEPAVCAssoc@1@I@Z 00420500 f i ChinaUnicomConfig.obj
 0001:0001f640       ?GetAssocAt@?$CMap@IIUClassIDItem@CChinaUnicomConfig@@U12@@@IBEPAVCAssoc@1@IAAI0@Z 00420640 f i ChinaUnicomConfig.obj
 0001:0001f6d0       ??$CompareElements@II@@YGHPBI0@Z 004206d0 f i ChinaUnicomConfig.obj
 0001:0001f6f0       ??$HashKey@I@@YGII@Z       004206f0 f i ChinaUnicomConfig.obj
 0001:0001f700       ??1CAssoc@?$CMap@IIUClassIDItem@CChinaUnicomConfig@@U12@@@QAE@XZ 00420700 f i ChinaUnicomConfig.obj
 0001:0001f720       ??1CPair@?$CMap@IIUClassIDItem@CChinaUnicomConfig@@U12@@@QAE@XZ 00420720 f i ChinaUnicomConfig.obj
 0001:0001f740       ??0CAssoc@?$CMap@IIUClassIDItem@CChinaUnicomConfig@@U12@@@QAE@I@Z 00420740 f i ChinaUnicomConfig.obj
 0001:0001f760       ??0CPair@?$CMap@IIUClassIDItem@CChinaUnicomConfig@@U12@@@IAE@I@Z 00420760 f i ChinaUnicomConfig.obj
 0001:0001f790       ?GetRuntimeClass@CClearDataSetPage@@UBEPAUCRuntimeClass@@XZ 00420790 f   ClearDataSetPage.obj
 0001:0001f7a0       ??0CClearDataSetPage@@QAE@PAVCWnd@@@Z 004207a0 f   ClearDataSetPage.obj
 0001:0001f850       ??0CFont@@QAE@XZ           00420850 f i ClearDataSetPage.obj
 0001:0001f870       ??_ECClearDataSetPage@@UAEPAXI@Z 00420870 f i ClearDataSetPage.obj
 0001:0001f870       ??_GCClearDataSetPage@@UAEPAXI@Z 00420870 f i ClearDataSetPage.obj
 0001:0001f8a0       ??1?$CStringLoaderPage@VCBCGPPropertyPage@@@@UAE@XZ 004208a0 f i ClearDataSetPage.obj
 0001:0001f910       ??1CClearDataSetPage@@UAE@XZ 00420910 f   ClearDataSetPage.obj
 0001:0001f9a0       ?DoDataExchange@CClearDataSetPage@@MAEXPAVCDataExchange@@@Z 004209a0 f   ClearDataSetPage.obj
 0001:0001f9f0       ?GetMessageMap@CClearDataSetPage@@MBEPBUAFX_MSGMAP@@XZ 004209f0 f   ClearDataSetPage.obj
 0001:0001fa00       ?OnInitDialog@CClearDataSetPage@@MAEHXZ 00420a00 f   ClearDataSetPage.obj
 0001:0001fa80       ?InitTimeCtrl@CClearDataSetPage@@AAEXXZ 00420a80 f   ClearDataSetPage.obj
 0001:0001fbb0       ?OnBnClickedClearShortMsg@CClearDataSetPage@@AAEXXZ 00420bb0 f   ClearDataSetPage.obj
 0001:0001fe00       ?PreTranslateMessage@CClearDataSetPage@@MAEHPAUtagMSG@@@Z 00420e00 f   ClearDataSetPage.obj
 0001:0001fe30       ?SetToolTipPos@CClearDataSetPage@@AAEXI@Z 00420e30 f   ClearDataSetPage.obj
 0001:0001fea0       ?OnShowWindow@CClearDataSetPage@@AAEXHI@Z 00420ea0 f   ClearDataSetPage.obj
 0001:0001fee0       ?OnCopyData@CWnd@@IAEHPAV1@PAUtagCOPYDATASTRUCT@@@Z 00420ee0 f i MainFrm.obj
 0001:0001fee0       ?OnShowWindow@CWnd@@IAEXHI@Z 00420ee0 f i ClearDataSetPage.obj
 0001:0001ff00       ??0?$CStringLoaderPage@VCBCGPPropertyPage@@@@QAE@II@Z 00420f00 f i ClearDataSetPage.obj
 0001:0001ff90       ??_G?$CStringLoaderPage@VCBCGPPropertyPage@@@@UAEPAXI@Z 00420f90 f i ClearDataSetPage.obj
 0001:0001ff90       ??_E?$CStringLoaderPage@VCBCGPPropertyPage@@@@UAEPAXI@Z 00420f90 f i ClearDataSetPage.obj
 0001:0001ffc0       ??0?$vector@IV?$allocator@I@std@@@std@@QAE@XZ 00420fc0 f i ClearDataSetPage.obj
 0001:0001fff0       ?_Buy@?$vector@IV?$allocator@I@std@@@std@@IAE_NI@Z 00420ff0 f i ClearDataSetPage.obj
 0001:00020070       ?max_size@?$vector@V?$CStringT@_WV?$StrTraitMFC_DLL@_WV?$ChTraitsCRT@_W@ATL@@@@@ATL@@V?$allocator@V?$CStringT@_WV?$StrTraitMFC_DLL@_WV?$ChTraitsCRT@_W@ATL@@@@@ATL@@@std@@@std@@QBEIXZ 00421070 f i StaticRollText.obj
 0001:00020070       ?max_size@?$vector@V?$GxxAutoPtr@VGxxValue@@@@V?$allocator@V?$GxxAutoPtr@VGxxValue@@@@@std@@@std@@QBEIXZ 00421070 f i IBADAL.obj
 0001:00020070       ?max_size@?$vector@PAUPair@GxxValueMap@@V?$allocator@PAUPair@GxxValueMap@@@std@@@std@@QBEIXZ 00421070 f i gxx_base.obj
 0001:00020070       ?max_size@?$vector@HV?$allocator@H@std@@@std@@QBEIXZ 00421070 f i IBAHelpper.obj
 0001:00020070       ?max_size@?$vector@IV?$allocator@I@std@@@std@@QBEIXZ 00421070 f i ClearDataSetPage.obj
 0001:00020090       ?_Xlen@?$vector@IV?$allocator@I@std@@@std@@IBEXXZ 00421090 f i ClearDataSetPage.obj
 0001:000200f0       ??0length_error@std@@QAE@ABV01@@Z 004210f0 f i ClearDataSetPage.obj
 0001:00020120       ??0logic_error@std@@QAE@ABV01@@Z 00421120 f i ClearDataSetPage.obj
 0001:00020190       ?what@logic_error@std@@UBEPBDXZ 00421190 f i ClearDataSetPage.obj
 0001:000201b0       ??_Elogic_error@std@@UAEPAXI@Z 004211b0 f i ClearDataSetPage.obj
 0001:000201b0       ??_Glogic_error@std@@UAEPAXI@Z 004211b0 f i ClearDataSetPage.obj
 0001:000201e0       ??1logic_error@std@@UAE@XZ 004211e0 f i ClearDataSetPage.obj
 0001:00020240       ??0length_error@std@@QAE@ABV?$basic_string@DU?$char_traits@D@std@@V?$allocator@D@2@@1@@Z 00421240 f i ClearDataSetPage.obj
 0001:00020270       ??0logic_error@std@@QAE@ABV?$basic_string@DU?$char_traits@D@std@@V?$allocator@D@2@@1@@Z 00421270 f i ClearDataSetPage.obj
 0001:000202d0       ??1length_error@std@@UAE@XZ 004212d0 f i ClearDataSetPage.obj
 0001:000202f0       ??_Elength_error@std@@UAEPAXI@Z 004212f0 f i ClearDataSetPage.obj
 0001:000202f0       ??_Glength_error@std@@UAEPAXI@Z 004212f0 f i ClearDataSetPage.obj
 0001:00020320       ?GetRuntimeClass@CClientConfigBundleTimePage@@UBEPAUCRuntimeClass@@XZ 00421320 f   ClientConfigBundleTimePage.obj
 0001:00020330       ??0CClientConfigBundleTimePage@@QAE@XZ 00421330 f   ClientConfigBundleTimePage.obj
 0001:000203b0       ??_GCClientConfigBundleTimePage@@UAEPAXI@Z 004213b0 f i ClientConfigBundleTimePage.obj
 0001:000203b0       ??_ECClientConfigBundleTimePage@@UAEPAXI@Z 004213b0 f i ClientConfigBundleTimePage.obj
 0001:000203e0       ??1CClientConfigBundleTimePage@@UAE@XZ 004213e0 f   ClientConfigBundleTimePage.obj
 0001:00020440       ?DoDataExchange@CClientConfigBundleTimePage@@MAEXPAVCDataExchange@@@Z 00421440 f   ClientConfigBundleTimePage.obj
 0001:00020490       ?GetMessageMap@CClientConfigBundleTimePage@@MBEPBUAFX_MSGMAP@@XZ 00421490 f   ClientConfigBundleTimePage.obj
 0001:000204a0       ?OnOK@CClientConfigBundleTimePage@@MAEXXZ 004214a0 f   ClientConfigBundleTimePage.obj
 0001:000205c0       ?OnInitDialog@CClientConfigBundleTimePage@@MAEHXZ 004215c0 f   ClientConfigBundleTimePage.obj
 0001:00020670       ?GetRuntimeClass@CClientConfigPropertySheet@@UBEPAUCRuntimeClass@@XZ 00421670 f   ClientConfigPropertySheet.obj
 0001:00020680       ??0CClientConfigPropertySheet@@QAE@PAVCWnd@@@Z 00421680 f   ClientConfigPropertySheet.obj
 0001:00020770       ??0CIBASheet@@QAE@IPAVCWnd@@I@Z 00421770 f i ClientConfigPropertySheet.obj
 0001:000207b0       ??_GCIBASheet@@UAEPAXI@Z   004217b0 f i ClientConfigPropertySheet.obj
 0001:000207b0       ??_ECIBASheet@@UAEPAXI@Z   004217b0 f i ClientConfigPropertySheet.obj
 0001:000207e0       ??1CIBASheet@@UAE@XZ       004217e0 f i ClientConfigPropertySheet.obj
 0001:00020800       ??_ECClientConfigPropertySheet@@UAEPAXI@Z 00421800 f i ClientConfigPropertySheet.obj
 0001:00020800       ??_GCClientConfigPropertySheet@@UAEPAXI@Z 00421800 f i ClientConfigPropertySheet.obj
 0001:00020830       ??1CClientConfigPropertySheet@@UAE@XZ 00421830 f   ClientConfigPropertySheet.obj
 0001:000208b0       ?GetMessageMap@CClientConfigPropertySheet@@MBEPBUAFX_MSGMAP@@XZ 004218b0 f   ClientConfigPropertySheet.obj
 0001:000208c0       ?OnInitDialog@CClientConfigPropertySheet@@MAEHXZ 004218c0 f   ClientConfigPropertySheet.obj
 0001:000208c0       ?OnInitDialog@CSetOfIBAPropertySheet@@MAEHXZ 004218c0 f   IBAPropertySheet.obj
 0001:000208e0       ?GetRuntimeClass@CClientCOnfigUnlockPage@@UBEPAUCRuntimeClass@@XZ 004218e0 f   ClientCOnfigUnlockPage.obj
 0001:000208f0       ??0CClientCOnfigUnlockPage@@QAE@XZ 004218f0 f   ClientCOnfigUnlockPage.obj
 0001:00020980       ??_ECClientCOnfigUnlockPage@@UAEPAXI@Z 00421980 f i ClientCOnfigUnlockPage.obj
 0001:00020980       ??_GCClientCOnfigUnlockPage@@UAEPAXI@Z 00421980 f i ClientCOnfigUnlockPage.obj
 0001:000209b0       ??1CClientCOnfigUnlockPage@@UAE@XZ 004219b0 f   ClientCOnfigUnlockPage.obj
 0001:00020a20       ?DoDataExchange@CClientCOnfigUnlockPage@@MAEXPAVCDataExchange@@@Z 00421a20 f   ClientCOnfigUnlockPage.obj
 0001:00020a80       ?GetMessageMap@CClientCOnfigUnlockPage@@MBEPBUAFX_MSGMAP@@XZ 00421a80 f   ClientCOnfigUnlockPage.obj
 0001:00020a90       ?OnInitDialog@CClientCOnfigUnlockPage@@MAEHXZ 00421a90 f   ClientCOnfigUnlockPage.obj
 0001:00020c40       ?GetDisallowUnlock@CNetBarConfig@@QBEHXZ 00421c40 f i ClientCOnfigUnlockPage.obj
 0001:00020c60       ?OnOK@CClientCOnfigUnlockPage@@MAEXXZ 00421c60 f   ClientCOnfigUnlockPage.obj
 0001:00020d60       ?GetRuntimeClass@CCrashShowDlg@@UBEPAUCRuntimeClass@@XZ 00421d60 f   CrashShowDlg.obj
 0001:00020d70       ??0CCrashShowDlg@@QAE@PAVCWnd@@@Z 00421d70 f   CrashShowDlg.obj
 0001:00020da0       ??_GCCrashShowDlg@@UAEPAXI@Z 00421da0 f i CrashShowDlg.obj
 0001:00020da0       ??_ECCrashShowDlg@@UAEPAXI@Z 00421da0 f i CrashShowDlg.obj
 0001:00020dd0       ??1CCrashShowDlg@@UAE@XZ   00421dd0 f   CrashShowDlg.obj
 0001:00020df0       ?DoDataExchange@CJXCCommoditySelDlg@@MAEXPAVCDataExchange@@@Z 00421df0 f   JXCCommoditySelDlg.obj
 0001:00020df0       ?DoDataExchange@CCrashShowDlg@@MAEXPAVCDataExchange@@@Z 00421df0 f   CrashShowDlg.obj
 0001:00020df0       ?DoDataExchange@CDodonewView@@MAEXPAVCDataExchange@@@Z 00421df0 f   DodonewView.obj
 0001:00020df0       ?DoDataExchange@CDlgRNZdCrc@@MAEXPAVCDataExchange@@@Z 00421df0 f   DlgRNZdCrc.obj
 0001:00020df0       ?DoDataExchange@CJXCMainDlg@@MAEXPAVCDataExchange@@@Z 00421df0 f   JXCMainDlg1.obj
 0001:00020e10       ?GetMessageMap@CCrashShowDlg@@MBEPBUAFX_MSGMAP@@XZ 00421e10 f   CrashShowDlg.obj
 0001:00020e20       ?OnInitDialog@CCrashShowDlg@@MAEHXZ 00421e20 f   CrashShowDlg.obj
 0001:00020eb0       ??0CCreditCard@@QAE@XZ     00421eb0 f   CreditCard.obj
 0001:00020f50       ??1CCreditCard@@QAE@XZ     00421f50 f   CreditCard.obj
 0001:00020fc0       ?LoadFile@CCreditCard@@AAEHXZ 00421fc0 f   CreditCard.obj
 0001:000210d0       ?NextCreditCard@CCreditCard@@QAEHXZ 004220d0 f   CreditCard.obj
 0001:000212d0       ?SaveFile@CCreditCard@@AAEHXZ 004222d0 f   CreditCard.obj
 0001:00021450       ?IsCreditCardValid@CCreditCard@@QAEHXZ 00422450 f   CreditCard.obj
 0001:00021480       ?DeleteCreditCard@CCreditCard@@QAEHXZ 00422480 f   CreditCard.obj
 0001:000214d0       ?GetCount@CCreditCard@@QAEHXZ 004224d0 f   CreditCard.obj
 0001:000214d0       ?GetCount@CComputerList@@QAEHXZ 004224d0 f   ComputerList.obj
 0001:000214f0       ?GetRuntimeClass@CCreditDlg@@UBEPAUCRuntimeClass@@XZ 004224f0 f   CreditDlg.obj
 0001:00021500       ??0CCreditDlg@@QAE@PAVCWnd@@@Z 00422500 f   CreditDlg.obj
 0001:000217d0       ??_GCCreditDlg@@UAEPAXI@Z  004227d0 f i CreditDlg.obj
 0001:000217d0       ??_ECCreditDlg@@UAEPAXI@Z  004227d0 f i CreditDlg.obj
 0001:00021800       ??1CCreditDlg@@UAE@XZ      00422800 f   CreditDlg.obj
 0001:00021a20       ?GetMessageMap@CCreditDlg@@MBEPBUAFX_MSGMAP@@XZ 00422a20 f   CreditDlg.obj
 0001:00021a30       ?DoDataExchange@CCreditDlg@@MAEXPAVCDataExchange@@@Z 00422a30 f   CreditDlg.obj
 0001:00021c90       ?OnInitDialog@CCreditDlg@@MAEHXZ 00422c90 f   CreditDlg.obj
 0001:00021d10       ?OnBnClickedButtonRefundment@CCreditDlg@@IAEXXZ 00422d10 f   CreditDlg.obj
 0001:00021f10       ?OnBnClickedOk@CCreditDlg@@IAEXXZ 00422f10 f   CreditDlg.obj
 0001:00021ff0       ?CheckInput@CCreditDlg@@IAEHXZ 00422ff0 f   CreditDlg.obj
 0001:000220f0       ?GetMaxCreditMoney@CIBAConfig@@QBEHXZ 004230f0 f i CreditDlg.obj
 0001:00022110       ?SetSel@CEdit@@QAEXHHH@Z   00423110 f i CreditDlg.obj
 0001:00022160       ?InitControls@CCreditDlg@@IAEXXZ 00423160 f   CreditDlg.obj
 0001:000223c0       ?ClearData@CCreditDlg@@MAEXXZ 004233c0 f   CreditDlg.obj
 0001:00022600       ?DoModal@CCreditDlg@@UAEHXZ 00423600 f   CreditDlg.obj
 0001:00022650       ?MakeSureCredit@CCreditDlg@@IAEHI@Z 00423650 f   CreditDlg.obj
 0001:00022720       ?MakeSureDReg@CCreditDlg@@IAEHXZ 00423720 f   CreditDlg.obj
 0001:00022830       ?PrintTicket@CCreditDlg@@IAEXV?$CStringT@_WV?$StrTraitMFC_DLL@_WV?$ChTraitsCRT@_W@ATL@@@@@ATL@@@Z 00423830 f   CreditDlg.obj
 0001:00022a00       ?GetRealNamePassword@CNetBarConfig@@QBEHXZ 00423a00 f i CreditDlg.obj
 0001:00022a20       ?OnOldCard@CCreditDlg@@MAEXII@Z 00423a20 f   CreditDlg.obj
 0001:00022a50       ?OnGetBalanceOK@CCreditDlg@@MAEXAAVCBalanceMethod@NS_SERVLET@@@Z 00423a50 f   CreditDlg.obj
 0001:00022b20       ?OnBnClickedButtonCheckout@CCreditDlg@@IAEXXZ 00423b20 f   CreditDlg.obj
 0001:00022d50       ?IsWindowVisible@CWnd@@QBEHXZ 00423d50 f i CreditDlg.obj
 0001:00022d70       ?OnTimer@CCreditDlg@@IAEXI@Z 00423d70 f   CreditDlg.obj
 0001:00022e40       ?OnRealName@CCreditDlg@@IAEJIJ@Z 00423e40 f   CreditDlg.obj
 0001:00022f40       ?SetFormCard@CCreditDlg@@QAEXH@Z 00423f40 f i CreditDlg.obj
 0001:00022f60       ?OnCtlColor@CCreditDlg@@IAEPAUHBRUSH__@@PAVCDC@@PAVCWnd@@I@Z 00423f60 f   CreditDlg.obj
 0001:00023040       ?AutoDoRefundment@CCreditDlg@@IAEXAAVCBalanceMethod@NS_SERVLET@@@Z 00424040 f   CreditDlg.obj
 0001:00023080       ?OnBnClickedButtonConsumelist@CCreditDlg@@IAEXXZ 00424080 f   CreditDlg.obj
 0001:000230d0       ?DeregisterUser@CCreditDlg@@IAEXH@Z 004240d0 f   CreditDlg.obj
 0001:00023a80       ?GetReminderAutoReturn@CNetBarConfig@@QAE?BHXZ 00424a80 f i CreditDlg.obj
 0001:00023aa0       ?OnBnClickedButtonReprint@CCreditDlg@@IAEXXZ 00424aa0 f   CreditDlg.obj
 0001:00023b60       ?DoBundTimeOnLine@CCreditDlg@@IAEXXZ 00424b60 f   CreditDlg.obj
 0001:00023d00       ?GetBundleTimeId@CDlgBundleTimeList@@QBEIXZ 00424d00 f i CreditDlg.obj
 0001:00023d20       ?SetSelectStyle@CDlgBundleTimeList@@QAEXI@Z 00424d20 f i CreditDlg.obj
 0001:00023d40       ?SetUserClassId@CDlgBundleTimeList@@QAEXI@Z 00424d40 f i CreditDlg.obj
 0001:00023d60       ?OnBnClickedButtonBundtime@CCreditDlg@@IAEXXZ 00424d60 f   CreditDlg.obj
 0001:00023dd0       ?PrintCreditBTimeTicket@CCreditDlg@@IAEXXZ 00424dd0 f   CreditDlg.obj
 0001:00024030       ?DoBundleTime@CCreditDlg@@IAEHXZ 00425030 f   CreditDlg.obj
 0001:000242e0       ?OnEnChangeEditIdcardsno@CCreditDlg@@IAEXXZ 004252e0 f   CreditDlg.obj
 0001:00024350       ?OnBnClickedButtonCancelactive@CCreditDlg@@IAEXXZ 00425350 f   CreditDlg.obj
 0001:00024780       ?DoCredit@CCreditDlg@@IAEHXZ 00425780 f   CreditDlg.obj
 0001:00025000       ?SetPassWord@COperationInfo@@QAEXV?$CStringT@_WV?$StrTraitMFC_DLL@_WV?$ChTraitsCRT@_W@ATL@@@@@ATL@@@Z 00426000 f i CreditDlg.obj
 0001:00025060       ?DoCancelBundleTime@CCreditDlg@@IAEHV?$CStringT@_WV?$StrTraitMFC_DLL@_WV?$ChTraitsCRT@_W@ATL@@@@@ATL@@@Z 00426060 f   CreditDlg.obj
 0001:000252b0       ?SelectBundTime@CCreditDlg@@IAEXXZ 004262b0 f   CreditDlg.obj
 0001:00025580       ?GetBundleTimeMoney@CDlgBundleTimeList@@QBEIXZ 00426580 f i CreditDlg.obj
 0001:000255a0       ?GetStartTime@CDlgBundleTimeList@@QBE?AV?$CStringT@_WV?$StrTraitMFC_DLL@_WV?$ChTraitsCRT@_W@ATL@@@@@ATL@@XZ 004265a0 f i CreditDlg.obj
 0001:000255e0       ?GetEndTime@CDlgBundleTimeList@@QBE?AV?$CStringT@_WV?$StrTraitMFC_DLL@_WV?$ChTraitsCRT@_W@ATL@@@@@ATL@@XZ 004265e0 f i CreditDlg.obj
 0001:00025620       ?GetRemainTime@CDlgBundleTimeList@@QBE?AV?$CStringT@_WV?$StrTraitMFC_DLL@_WV?$ChTraitsCRT@_W@ATL@@@@@ATL@@XZ 00426620 f i CreditDlg.obj
 0001:00025660       ?OnBnClickedButtonCreditprint@CCreditDlg@@IAEXXZ 00426660 f   CreditDlg.obj
 0001:00025680       ?PreTranslateMessage@CCreditDlg@@MAEHPAUtagMSG@@@Z 00426680 f   CreditDlg.obj
 0001:00025710       ?CheckReturnAction@CCreditDlg@@IAEHXZ 00426710 f   CreditDlg.obj
 0001:000257a0       ?GetReturnAction@CIBAConfig@@QBEIXZ 004267a0 f i CreditDlg.obj
 0001:000257c0       ?ShowUserInfo@CCreditDlg@@IAEXAAVCBalanceMethod@NS_SERVLET@@@Z 004267c0 f   CreditDlg.obj
 0001:00025c30       ?ShowBundleTimeInfo@CCreditDlg@@IAEXAAVCBalanceMethod@NS_SERVLET@@@Z 00426c30 f   CreditDlg.obj
 0001:00026350       ?ShowControls@CCreditDlg@@IAEXAAVCBalanceMethod@NS_SERVLET@@@Z 00427350 f   CreditDlg.obj
 0001:000266c0       ?GetNeedActivation@CNetBarConfig@@QBEHXZ 004276c0 f i CreditDlg.obj
 0001:000266e0       ?DoLocalModeQuery@CCreditDlg@@UAEHXZ 004276e0 f   CreditDlg.obj
 0001:00026b80       ?DoLocalModeCredit@CCreditDlg@@UAEHI@Z 00427b80 f   CreditDlg.obj
 0001:00026d80       ?OnBnClickedWxCredit@CCreditDlg@@QAEXXZ 00427d80 f   CreditDlg.obj
 0001:00027280       ??0QrData@@QAE@XZ          00428280 f i CreditDlg.obj
 0001:00027280       ??0ClassIDItem@CChinaUnicomConfig@@QAE@XZ 00428280 f i ChinaUnicomConfig.obj
 0001:000272c0       ??MATL@@YA_NABV?$CStringT@_WV?$StrTraitMFC_DLL@_WV?$ChTraitsCRT@_W@ATL@@@@@0@0@Z 004282c0 f i CreditDlg.obj
 0001:000272f0       ??OATL@@YA_NABV?$CStringT@_WV?$StrTraitMFC_DLL@_WV?$ChTraitsCRT@_W@ATL@@@@@0@0@Z 004282f0 f i CreditDlg.obj
 0001:00027320       ?Format@COleDateTimeSpan@ATL@@QBE?AV?$CStringT@_WV?$StrTraitMFC_DLL@_WV?$ChTraitsCRT@_W@ATL@@@@@2@PB_W@Z 00428320 f i CreditDlg.obj
 0001:000273b0       ??0CTimeSpan@ATL@@QAE@JHHH@Z 004283b0 f i CreditDlg.obj
 0001:00027430       ?Format@CTimeSpan@ATL@@QBE?AV?$CStringT@_WV?$StrTraitMFC_DLL@_WV?$ChTraitsCRT@_W@ATL@@@@@2@PB_W@Z 00428430 f i CreditDlg.obj
 0001:00027610       ?GetDays@CTimeSpan@ATL@@QBE_JXZ 00428610 f i CreditDlg.obj
 0001:00027640       ?GetHours@CTimeSpan@ATL@@QBEJXZ 00428640 f i CreditDlg.obj
 0001:00027680       ?GetTotalHours@CTimeSpan@ATL@@QBE_JXZ 00428680 f i CreditDlg.obj
 0001:000276b0       ?GetMinutes@CTimeSpan@ATL@@QBEJXZ 004286b0 f i CreditDlg.obj
 0001:000276f0       ?GetTotalMinutes@CTimeSpan@ATL@@QBE_JXZ 004286f0 f i CreditDlg.obj
 0001:00027710       ?GetSeconds@CTimeSpan@ATL@@QBEJXZ 00428710 f i CreditDlg.obj
 0001:00027750       ?GetTotalSeconds@CTimeSpan@ATL@@QBE_JXZ 00428750 f i CreditDlg.obj
 0001:00027750       ?GetTime@CTime@ATL@@QBE_JXZ 00428750 f i CashierHelper.obj
 0001:00027770       ?GetDays@COleDateTimeSpan@ATL@@QBEJXZ 00428770 f i CreditDlg.obj
 0001:00027790       ?GetHours@COleDateTimeSpan@ATL@@QBEJXZ 00428790 f i CreditDlg.obj
 0001:000277c0       ?GetRuntimeClass@CCreditReverseDlg@@UBEPAUCRuntimeClass@@XZ 004287c0 f   CreditReverseDlg.obj
 0001:000277d0       ??0CCreditReverseDlg@@QAE@PAVCWnd@@@Z 004287d0 f   CreditReverseDlg.obj
 0001:00027920       ??_GCCreditReverseDlg@@UAEPAXI@Z 00428920 f i CreditReverseDlg.obj
 0001:00027920       ??_ECCreditReverseDlg@@UAEPAXI@Z 00428920 f i CreditReverseDlg.obj
 0001:00027950       ??1CCreditReverseDlg@@UAE@XZ 00428950 f   CreditReverseDlg.obj
 0001:00027a90       ?DoDataExchange@CCreditReverseDlg@@MAEXPAVCDataExchange@@@Z 00428a90 f   CreditReverseDlg.obj
 0001:00027b10       ?GetMessageMap@CCreditReverseDlg@@MBEPBUAFX_MSGMAP@@XZ 00428b10 f   CreditReverseDlg.obj
 0001:00027b20       ?OnBnClickedOk@CCreditReverseDlg@@IAEXXZ 00428b20 f   CreditReverseDlg.obj
 0001:00028140       ?SetLastTranTime@CLastTranInfo@NS_SERVLET@@QAEXV?$CStringT@_WV?$StrTraitMFC_DLL@_WV?$ChTraitsCRT@_W@ATL@@@@@ATL@@@Z 00429140 f i CreditReverseDlg.obj
 0001:00028190       ?OnInitDialog@CCreditReverseDlg@@MAEHXZ 00429190 f   CreditReverseDlg.obj
 0001:00028200       ?InitControls@CCreditReverseDlg@@IAEXXZ 00429200 f   CreditReverseDlg.obj
 0001:00028430       ?OnNMClickListCredit@CCreditReverseDlg@@IAEXPAUtagNMHDR@@PAJ@Z 00429430 f   CreditReverseDlg.obj
 0001:000285a0       ?OnOldCard@CCreditReverseDlg@@MAEXII@Z 004295a0 f   CreditReverseDlg.obj
 0001:00028600       ?OnGetBalanceOK@CCreditReverseDlg@@MAEXAAVCBalanceMethod@NS_SERVLET@@@Z 00429600 f   CreditReverseDlg.obj
 0001:000288f0       ?ClearData@CCreditReverseDlg@@MAEXXZ 004298f0 f   CreditReverseDlg.obj
 0001:000289d0       ?GetCreditInfos@CCreditReverseDlg@@IAEXI@Z 004299d0 f   CreditReverseDlg.obj
 0001:00028e80       ??0CPoint@@QAE@HH@Z        00429e80 f i IBAHelpper.obj
 0001:00028e80       ??0CSize@@QAE@HH@Z         00429e80 f i CreditReverseDlg.obj
 0001:00028eb0       ?OnBnClickedButtonRecentcredit@CCreditReverseDlg@@IAEXXZ 00429eb0 f   CreditReverseDlg.obj
 0001:00028ed0       ?OnGLCNotify@CCreditReverseDlg@@QAEXPAUtagNMHDR@@PAJ@Z 00429ed0 f   CreditReverseDlg.obj
 0001:000299c0       ?DeleteCredit@CCreditReverseDlg@@IAEHH@Z 0042a9c0 f   CreditReverseDlg.obj
 0001:00029ed0       ?GetRuntimeClass@CSetPageOfCredit@@UBEPAUCRuntimeClass@@XZ 0042aed0 f   CreditSetPage.obj
 0001:00029ee0       ??0CSetPageOfCredit@@QAE@XZ 0042aee0 f   CreditSetPage.obj
 0001:00029f90       ??_ECSetPageOfCredit@@UAEPAXI@Z 0042af90 f i CreditSetPage.obj
 0001:00029f90       ??_GCSetPageOfCredit@@UAEPAXI@Z 0042af90 f i CreditSetPage.obj
 0001:00029fc0       ??1CSetPageOfCredit@@UAE@XZ 0042afc0 f   CreditSetPage.obj
 0001:0002a020       ?DoDataExchange@CSetPageOfCredit@@MAEXPAVCDataExchange@@@Z 0042b020 f   CreditSetPage.obj
 0001:0002a0a0       ?GetMessageMap@CSetPageOfCredit@@MBEPBUAFX_MSGMAP@@XZ 0042b0a0 f   CreditSetPage.obj
 0001:0002a0b0       ?OnBnClickedCheckRefundment@CSetPageOfCredit@@IAEXXZ 0042b0b0 f   CreditSetPage.obj
 0001:0002a0f0       ?OnOK@CSetPageOfCredit@@MAEXXZ 0042b0f0 f   CreditSetPage.obj
 0001:0002a1a0       ?GetOperationAfterDClick@CIBAConfig@@QBEHXZ 0042b1a0 f i IBAConfig.obj
 0001:0002a1a0       ?GetMustAutoReturn@CNetBarConfig@@QAE?BHXZ 0042b1a0 f i CreditSetPage.obj
 0001:0002a1c0       ?SetReturnAction@CIBAConfig@@QAEXI@Z 0042b1c0 f i CreditSetPage.obj
 0001:0002a1e0       ?SetRefundmentTime@CIBAConfig@@QAEXABI@Z 0042b1e0 f i CreditSetPage.obj
 0001:0002a200       ?SetMaxCreditMoney@CIBAConfig@@QAEXABH@Z 0042b200 f i CreditSetPage.obj
 0001:0002a220       ?OnInitDialog@CSetPageOfCredit@@MAEHXZ 0042b220 f   CreditSetPage.obj
 0001:0002a2f0       ?GetAuditType@CNetBarConfig@@QBEIXZ 0042b2f0 f i BrokenNetworkResume.obj
 0001:0002a2f0       ?GetRefundmentTime@CIBAConfig@@QBEIXZ 0042b2f0 f i CreditSetPage.obj
 0001:0002a310       ?GetInstance@CCurrentNetBarUser@@SAPAV1@XZ 0042b310 f   CurrentNetBarUser.obj
 0001:0002a3f0       ??0CCurrentNetBarUser@@AAE@XZ 0042b3f0 f   CurrentNetBarUser.obj
 0001:0002a420       ??1CCurrentNetBarUser@@AAE@XZ 0042b420 f   CurrentNetBarUser.obj
 0001:0002a450       ?GetNetId@CCurrentNetBarUser@@QAE?AV?$CStringT@_WV?$StrTraitMFC_DLL@_WV?$ChTraitsCRT@_W@ATL@@@@@ATL@@XZ 0042b450 f   CurrentNetBarUser.obj
 0001:0002a520       ?QueryBalance@CCurrentNetBarUser@@QAEHPB_W@Z 0042b520 f   CurrentNetBarUser.obj
 0001:0002a740       ??1?$CSingletonCleaner@VCCurrentNetBarUser@@@@QAE@XZ 0042b740 f i CurrentNetBarUser.obj
 0001:0002a790       ??_GCCurrentNetBarUser@@AAEPAXI@Z 0042b790 f i CurrentNetBarUser.obj
 0001:0002a7c0       ?GetRuntimeClass@CDefineBundleTimeDlg@@UBEPAUCRuntimeClass@@XZ 0042b7c0 f   DefineBundTimeDlg.obj
 0001:0002a7d0       ??0CDefineBundleTimeDlg@@QAE@PAVCWnd@@@Z 0042b7d0 f   DefineBundTimeDlg.obj
 0001:0002a8d0       ??_ECDefineBundleTimeDlg@@UAEPAXI@Z 0042b8d0 f i DefineBundTimeDlg.obj
 0001:0002a8d0       ??_GCDefineBundleTimeDlg@@UAEPAXI@Z 0042b8d0 f i DefineBundTimeDlg.obj
 0001:0002a900       ??0SelfDefBundleTime@CDefineBundleTimeDlg@@QAE@XZ 0042b900 f i DefineBundTimeDlg.obj
 0001:0002a920       ??1CDefineBundleTimeDlg@@UAE@XZ 0042b920 f   DefineBundTimeDlg.obj
 0001:0002aa00       ?DoDataExchange@CDefineBundleTimeDlg@@MAEXPAVCDataExchange@@@Z 0042ba00 f   DefineBundTimeDlg.obj
 0001:0002aac0       ?GetMessageMap@CDefineBundleTimeDlg@@MBEPBUAFX_MSGMAP@@XZ 0042bac0 f   DefineBundTimeDlg.obj
 0001:0002aad0       ?InitTimeCtrl@CDefineBundleTimeDlg@@AAEHXZ 0042bad0 f   DefineBundTimeDlg.obj
 0001:0002ac20       ?InitTimeDate@CDefineBundleTimeDlg@@AAEHXZ 0042bc20 f   DefineBundTimeDlg.obj
 0001:0002ad00       ?OnInitDialog@CDefineBundleTimeDlg@@MAEHXZ 0042bd00 f   DefineBundTimeDlg.obj
 0001:0002ad30       ?InitOtherCtrl@CDefineBundleTimeDlg@@AAEXXZ 0042bd30 f   DefineBundTimeDlg.obj
 0001:0002aef0       ?OnBnClickedOk@CDefineBundleTimeDlg@@IAEXXZ 0042bef0 f   DefineBundTimeDlg.obj
 0001:0002b1c0       ?PreTranslateMessage@CDefineBundleTimeDlg@@MAEHPAUtagMSG@@@Z 0042c1c0 f   DefineBundTimeDlg.obj
 0001:0002b220       ?OnEndTimeChanged@CDefineBundleTimeDlg@@IAEXXZ 0042c220 f   DefineBundTimeDlg.obj
 0001:0002b400       ?OnEnChangeEditHour@CDefineBundleTimeDlg@@IAEXXZ 0042c400 f   DefineBundTimeDlg.obj
 0001:0002b540       ?OnEnChangeEditMin@CDefineBundleTimeDlg@@IAEXXZ 0042c540 f   DefineBundTimeDlg.obj
 0001:0002b560       ?GetItemData@CComboBox@@QBEKH@Z 0042c560 f i DefineBundTimeDlg.obj
 0001:0002b590       ?SetItemData@CComboBox@@QAEHHK@Z 0042c590 f i DefineBundTimeDlg.obj
 0001:0002b5c0       ??0CDevAccess@@QAE@XZ      0042c5c0 f   DevAccess.obj
 0001:0002b800       ??1CDevAccess@@QAE@XZ      0042c800 f   DevAccess.obj
 0001:0002b870       ?GetClassDevs@CDevAccess@@QAEHPBU_GUID@@PAV?$vector@V?$basic_string@_WU?$char_traits@_W@std@@V?$allocator@_W@2@@std@@V?$allocator@V?$basic_string@_WU?$char_traits@_W@std@@V?$allocator@_W@2@@std@@@2@@std@@@Z 0042c870 f   DevAccess.obj
 0001:0002ba80       ?InitPort@CDevAccess@@QAEHPB_WIDII@Z 0042ca80 f   DevAccess.obj
 0001:0002bc50       ?ShowLogo@CDevAccess@@QAEXXZ 0042cc50 f   DevAccess.obj
 0001:0002bc90       ?ShowSuccess@CDevAccess@@QAEXXZ 0042cc90 f   DevAccess.obj
 0001:0002bcd0       ?CleanDisplay@CDevAccess@@QAEXXZ 0042ccd0 f   DevAccess.obj
 0001:0002bd10       ?ShowQrInfo@CDevAccess@@QAEXPB_W00@Z 0042cd10 f   DevAccess.obj
 0001:0002bd90       ?WriteToDev@CDevAccess@@QAEXPB_W0@Z 0042cd90 f   DevAccess.obj
 0001:0002bef0       ?unicode_to_multibyte@CDevAccess@@AAE?AV?$basic_string@DU?$char_traits@D@std@@V?$allocator@D@2@@std@@PB_W@Z 0042cef0 f   DevAccess.obj
 0001:0002c010       ??0?$vector@V?$basic_string@_WU?$char_traits@_W@std@@V?$allocator@_W@2@@std@@V?$allocator@V?$basic_string@_WU?$char_traits@_W@std@@V?$allocator@_W@2@@std@@@2@@std@@QAE@XZ 0042d010 f i DevAccess.obj
 0001:0002c040       ?size@?$vector@V?$basic_string@DU?$char_traits@D@std@@V?$allocator@D@2@@std@@V?$allocator@V?$basic_string@DU?$char_traits@D@std@@V?$allocator@D@2@@std@@@2@@std@@QBEIXZ 0042d040 f i mailer.obj
 0001:0002c040       ?size@?$vector@V?$basic_string@_WU?$char_traits@_W@std@@V?$allocator@_W@2@@std@@V?$allocator@V?$basic_string@_WU?$char_traits@_W@std@@V?$allocator@_W@2@@std@@@2@@std@@QBEIXZ 0042d040 f i DevAccess.obj
 0001:0002c080       ??A?$vector@V?$basic_string@_WU?$char_traits@_W@std@@V?$allocator@_W@2@@std@@V?$allocator@V?$basic_string@_WU?$char_traits@_W@std@@V?$allocator@_W@2@@std@@@2@@std@@QAEAAV?$basic_string@_WU?$char_traits@_W@std@@V?$allocator@_W@2@@1@I@Z 0042d080 f i DevAccess.obj
 0001:0002c0c0       ?push_back@?$vector@V?$basic_string@_WU?$char_traits@_W@std@@V?$allocator@_W@2@@std@@V?$allocator@V?$basic_string@_WU?$char_traits@_W@std@@V?$allocator@_W@2@@std@@@2@@std@@QAEXABV?$basic_string@_WU?$char_traits@_W@std@@V?$allocator@_W@2@@2@@Z 0042d0c0 f i DevAccess.obj
 0001:0002c130       ?clear@?$vector@V?$basic_string@_WU?$char_traits@_W@std@@V?$allocator@_W@2@@std@@V?$allocator@V?$basic_string@_WU?$char_traits@_W@std@@V?$allocator@_W@2@@std@@@2@@std@@QAEXXZ 0042d130 f i DevAccess.obj
 0001:0002c130       ??1?$vector@V?$basic_string@_WU?$char_traits@_W@std@@V?$allocator@_W@2@@std@@V?$allocator@V?$basic_string@_WU?$char_traits@_W@std@@V?$allocator@_W@2@@std@@@2@@std@@QAE@XZ 0042d130 f i DevAccess.obj
 0001:0002c150       ?capacity@?$vector@V?$basic_string@DU?$char_traits@D@std@@V?$allocator@D@2@@std@@V?$allocator@V?$basic_string@DU?$char_traits@D@std@@V?$allocator@D@2@@std@@@2@@std@@QBEIXZ 0042d150 f i mailer.obj
 0001:0002c150       ?capacity@?$vector@V?$basic_string@_WU?$char_traits@_W@std@@V?$allocator@_W@2@@std@@V?$allocator@V?$basic_string@_WU?$char_traits@_W@std@@V?$allocator@_W@2@@std@@@2@@std@@QBEIXZ 0042d150 f i DevAccess.obj
 0001:0002c190       ?insert@?$vector@V?$basic_string@_WU?$char_traits@_W@std@@V?$allocator@_W@2@@std@@V?$allocator@V?$basic_string@_WU?$char_traits@_W@std@@V?$allocator@_W@2@@std@@@2@@std@@QAE?AViterator@12@V312@ABV?$basic_string@_WU?$char_traits@_W@std@@V?$allocator@_W@2@@2@@Z 0042d190 f i DevAccess.obj
 0001:0002c210       ?_Buy@?$vector@V?$basic_string@_WU?$char_traits@_W@std@@V?$allocator@_W@2@@std@@V?$allocator@V?$basic_string@_WU?$char_traits@_W@std@@V?$allocator@_W@2@@std@@@2@@std@@IAE_NI@Z 0042d210 f i DevAccess.obj
 0001:0002c290       ?_Tidy@?$vector@V?$basic_string@_WU?$char_traits@_W@std@@V?$allocator@_W@2@@std@@V?$allocator@V?$basic_string@_WU?$char_traits@_W@std@@V?$allocator@_W@2@@std@@@2@@std@@IAEXXZ 0042d290 f i DevAccess.obj
 0001:0002c300       ?_Ufill@?$vector@V?$basic_string@_WU?$char_traits@_W@std@@V?$allocator@_W@2@@std@@V?$allocator@V?$basic_string@_WU?$char_traits@_W@std@@V?$allocator@_W@2@@std@@@2@@std@@IAEPAV?$basic_string@_WU?$char_traits@_W@std@@V?$allocator@_W@2@@2@PAV32@IABV32@@Z 0042d300 f i DevAccess.obj
 0001:0002c330       ??Hconst_iterator@?$vector@V?$basic_string@DU?$char_traits@D@std@@V?$allocator@D@2@@std@@V?$allocator@V?$basic_string@DU?$char_traits@D@std@@V?$allocator@D@2@@std@@@2@@std@@QBE?AV012@H@Z 0042d330 f i mailer.obj
 0001:0002c330       ??Hiterator@?$vector@V?$basic_string@DU?$char_traits@D@std@@V?$allocator@D@2@@std@@V?$allocator@V?$basic_string@DU?$char_traits@D@std@@V?$allocator@D@2@@std@@@2@@std@@QBE?AV012@H@Z 0042d330 f i mailer.obj
 0001:0002c330       ??Hiterator@?$vector@V?$basic_string@_WU?$char_traits@_W@std@@V?$allocator@_W@2@@std@@V?$allocator@V?$basic_string@_WU?$char_traits@_W@std@@V?$allocator@_W@2@@std@@@2@@std@@QBE?AV012@H@Z 0042d330 f i DevAccess.obj
 0001:0002c360       ?_Destroy@?$vector@V?$basic_string@_WU?$char_traits@_W@std@@V?$allocator@_W@2@@std@@V?$allocator@V?$basic_string@_WU?$char_traits@_W@std@@V?$allocator@_W@2@@std@@@2@@std@@IAEXPAV?$basic_string@_WU?$char_traits@_W@std@@V?$allocator@_W@2@@2@0@Z 0042d360 f i DevAccess.obj
 0001:0002c390       ?_Insert_n@?$vector@V?$basic_string@_WU?$char_traits@_W@std@@V?$allocator@_W@2@@std@@V?$allocator@V?$basic_string@_WU?$char_traits@_W@std@@V?$allocator@_W@2@@std@@@2@@std@@IAEXViterator@12@IABV?$basic_string@_WU?$char_traits@_W@std@@V?$allocator@_W@2@@2@@Z 0042d390 f i DevAccess.obj
 0001:0002c6f0       ?_Xlen@?$vector@V?$basic_string@_WU?$char_traits@_W@std@@V?$allocator@_W@2@@std@@V?$allocator@V?$basic_string@_WU?$char_traits@_W@std@@V?$allocator@_W@2@@std@@@2@@std@@IBEXXZ 0042d6f0 f i DevAccess.obj
 0001:0002c750       ??0iterator@?$vector@V?$CStringT@_WV?$StrTraitMFC_DLL@_WV?$ChTraitsCRT@_W@ATL@@@@@ATL@@V?$allocator@V?$CStringT@_WV?$StrTraitMFC_DLL@_WV?$ChTraitsCRT@_W@ATL@@@@@ATL@@@std@@@std@@QAE@PAV?$CStringT@_WV?$StrTraitMFC_DLL@_WV?$ChTraitsCRT@_W@ATL@@@@@ATL@@@Z 0042d750 f i StaticRollText.obj
 0001:0002c750       ??0iterator@?$vector@V?$basic_string@DU?$char_traits@D@std@@V?$allocator@D@2@@std@@V?$allocator@V?$basic_string@DU?$char_traits@D@std@@V?$allocator@D@2@@std@@@2@@std@@QAE@PAV?$basic_string@DU?$char_traits@D@std@@V?$allocator@D@2@@2@@Z 0042d750 f i mailer.obj
 0001:0002c750       ??0iterator@?$vector@V?$CGxxString@_W@G2XUtility@@V?$allocator@V?$CGxxString@_W@G2XUtility@@@std@@@std@@QAE@PAV?$CGxxString@_W@G2XUtility@@@Z 0042d750 f i IBAHelpper.obj
 0001:0002c750       ??0iterator@?$vector@VCLocalMember@@V?$allocator@VCLocalMember@@@std@@@std@@QAE@PAVCLocalMember@@@Z 0042d750 f i IBADAL.obj
 0001:0002c750       ??0iterator@?$vector@PAUPair@GxxValueMap@@V?$allocator@PAUPair@GxxValueMap@@@std@@@std@@QAE@PAPAUPair@GxxValueMap@@@Z 0042d750 f i gxx_base.obj
 0001:0002c750       ??0iterator@?$vector@UOperationInfo@CWxMiddlewareImpl@@V?$allocator@UOperationInfo@CWxMiddlewareImpl@@@std@@@std@@QAE@PAUOperationInfo@CWxMiddlewareImpl@@@Z 0042d750 f i WxMiddlewareImpl.obj
 0001:0002c750       ??0iterator@?$_Tree@V?$_Tmap_traits@EP8CCommandProcessor@NS_ISERVER@@AEXPAEI@ZU?$less@E@std@@V?$allocator@U?$pair@$$CBEP8CCommandProcessor@NS_ISERVER@@AEXPAEI@Z@std@@@4@$0A@@std@@@std@@QAE@PAU_Node@?$_Tree_nod@V?$_Tmap_traits@EP8CCommandProcessor@NS_ISERVER@@AEXPAEI@ZU?$less@E@std@@V?$allocator@U?$pair@$$CBEP8CCommandProcessor@NS_ISERVER@@AEXPAEI@Z@std@@@4@$0A@@std@@@2@@Z 0042d750 f i CommandProcessor.obj
 0001:0002c750       ??0iterator@?$vector@HV?$allocator@H@std@@@std@@QAE@PAH@Z 0042d750 f i IBAHelpper.obj
 0001:0002c750       ??0iterator@?$vector@V?$basic_string@_WU?$char_traits@_W@std@@V?$allocator@_W@2@@std@@V?$allocator@V?$basic_string@_WU?$char_traits@_W@std@@V?$allocator@_W@2@@std@@@2@@std@@QAE@PAV?$basic_string@_WU?$char_traits@_W@std@@V?$allocator@_W@2@@2@@Z 0042d750 f i DevAccess.obj
 0001:0002c750       ??0iterator@?$vector@U?$pair@UAddress@mailer@jwsmtp@@F@std@@V?$allocator@U?$pair@UAddress@mailer@jwsmtp@@F@std@@@2@@std@@QAE@PAU?$pair@UAddress@mailer@jwsmtp@@F@2@@Z 0042d750 f i mailer.obj
 0001:0002c750       ??0iterator@?$_Tree@V?$_Tmap_traits@V?$CStringT@_WV?$StrTraitMFC_DLL@_WV?$ChTraitsCRT@_W@ATL@@@@@ATL@@HU?$less@V?$CStringT@_WV?$StrTraitMFC_DLL@_WV?$ChTraitsCRT@_W@ATL@@@@@ATL@@@std@@V?$allocator@U?$pair@$$CBV?$CStringT@_WV?$StrTraitMFC_DLL@_WV?$ChTraitsCRT@_W@ATL@@@@@ATL@@H@std@@@4@$0A@@std@@@std@@QAE@PAU_Node@?$_Tree_nod@V?$_Tmap_traits@V?$CStringT@_WV?$StrTraitMFC_DLL@_WV?$ChTraitsCRT@_W@ATL@@@@@ATL@@HU?$less@V?$CStringT@_WV?$StrTraitMFC_DLL@_WV?$ChTraitsCRT@_W@ATL@@@@@ATL@@@std@@V?$allocator@U?$pair@$$CBV?$CStringT@_WV?$StrTraitMFC_DLL@_WV?$ChTraitsCRT@_W@ATL@@@@@ATL@@H@std@@@4@$0A@@std@@@2@@Z 0042d750 f i ComputerList.obj
 0001:0002c750       ??0iterator@?$_Tree@V?$_Tmap_traits@HV?$basic_string@DU?$char_traits@D@std@@V?$allocator@D@2@@std@@U?$less@H@2@V?$allocator@U?$pair@$$CBHV?$basic_string@DU?$char_traits@D@std@@V?$allocator@D@2@@std@@@std@@@2@$0A@@std@@@std@@QAE@PAU_Node@?$_Tree_nod@V?$_Tmap_traits@HV?$basic_string@DU?$char_traits@D@std@@V?$allocator@D@2@@std@@U?$less@H@2@V?$allocator@U?$pair@$$CBHV?$basic_string@DU?$char_traits@D@std@@V?$allocator@D@2@@std@@@std@@@2@$0A@@std@@@2@@Z 0042d750 f i IZd.obj
 0001:0002c750       ??0iterator@?$vector@USOCKADDR_IN@jwsmtp@@V?$allocator@USOCKADDR_IN@jwsmtp@@@std@@@std@@QAE@PAUSOCKADDR_IN@jwsmtp@@@Z 0042d750 f i mailer.obj
 0001:0002c750       ??0iterator@?$vector@VCActiveMember@@V?$allocator@VCActiveMember@@@std@@@std@@QAE@PAVCActiveMember@@@Z 0042d750 f i ActiveMemberList.obj
 0001:0002c750       ??0iterator@?$vector@USubItemStruct@CGxxListCtrl@NS_COMMON@@V?$allocator@USubItemStruct@CGxxListCtrl@NS_COMMON@@@std@@@std@@QAE@PAUSubItemStruct@CGxxListCtrl@NS_COMMON@@@Z 0042d750 f i GxxListCtrl.obj
 0001:0002c750       ??0iterator@?$vector@UColInfo@CGxxListCtrl@NS_COMMON@@V?$allocator@UColInfo@CGxxListCtrl@NS_COMMON@@@std@@@std@@QAE@PAUColInfo@CGxxListCtrl@NS_COMMON@@@Z 0042d750 f i GxxListCtrl.obj
 0001:0002c750       ??0iterator@?$_Tree@V?$_Tmap_traits@V?$basic_string@DU?$char_traits@D@std@@V?$allocator@D@2@@std@@U_HandleInfo@CLocalCenter@@U?$less@V?$basic_string@DU?$char_traits@D@std@@V?$allocator@D@2@@std@@@2@V?$allocator@U?$pair@$$CBV?$basic_string@DU?$char_traits@D@std@@V?$allocator@D@2@@std@@U_HandleInfo@CLocalCenter@@@std@@@2@$0A@@std@@@std@@QAE@PAU_Node@?$_Tree_nod@V?$_Tmap_traits@V?$basic_string@DU?$char_traits@D@std@@V?$allocator@D@2@@std@@U_HandleInfo@CLocalCenter@@U?$less@V?$basic_string@DU?$char_traits@D@std@@V?$allocator@D@2@@std@@@2@V?$allocator@U?$pair@$$CBV?$basic_string@DU?$char_traits@D@std@@V?$allocator@D@2@@std@@U_HandleInfo@CLocalCenter@@@std@@@2@$0A@@std@@@2@@Z 0042d750 f i LocalCenter.obj
 0001:0002c750       ??0iterator@?$list@Utag_RegUserInfo@CAuditInterface@@V?$allocator@Utag_RegUserInfo@CAuditInterface@@@std@@@std@@QAE@PAU_Node@?$_List_nod@Utag_RegUserInfo@CAuditInterface@@V?$allocator@Utag_RegUserInfo@CAuditInterface@@@std@@@2@@Z 0042d750 f i RealNameBase.obj
 0001:0002c750       ??0iterator@?$vector@U?$pair@V?$vector@DV?$allocator@D@std@@@std@@V?$basic_string@DU?$char_traits@D@std@@V?$allocator@D@2@@2@@std@@V?$allocator@U?$pair@V?$vector@DV?$allocator@D@std@@@std@@V?$basic_string@DU?$char_traits@D@std@@V?$allocator@D@2@@2@@std@@@2@@std@@QAE@PAU?$pair@V?$vector@DV?$allocator@D@std@@@std@@V?$basic_string@DU?$char_traits@D@std@@V?$allocator@D@2@@2@@2@@Z 0042d750 f i mailer.obj
 0001:0002c750       ??0iterator@?$vector@V?$vector@USubItemStruct@CGxxListCtrl@NS_COMMON@@V?$allocator@USubItemStruct@CGxxListCtrl@NS_COMMON@@@std@@@std@@V?$allocator@V?$vector@USubItemStruct@CGxxListCtrl@NS_COMMON@@V?$allocator@USubItemStruct@CGxxListCtrl@NS_COMMON@@@std@@@std@@@2@@std@@QAE@PAV?$vector@USubItemStruct@CGxxListCtrl@NS_COMMON@@V?$allocator@USubItemStruct@CGxxListCtrl@NS_COMMON@@@std@@@2@@Z 0042d750 f i GxxListCtrl.obj
 0001:0002c750       ??0iterator@?$vector@UTermInfo@CSeatLayoutView@@V?$allocator@UTermInfo@CSeatLayoutView@@@std@@@std@@QAE@PAUTermInfo@CSeatLayoutView@@@Z 0042d750 f i SeatLayoutView.obj
 0001:0002c750       ??0iterator@?$vector@DV?$allocator@D@std@@@std@@QAE@PAD@Z 0042d750 f i base641.obj
 0001:0002c750       ??0iterator@?$_Tree@V?$_Tmap_traits@V?$CStringT@_WV?$StrTraitMFC_DLL@_WV?$ChTraitsCRT@_W@ATL@@@@@ATL@@IU?$less@V?$CStringT@_WV?$StrTraitMFC_DLL@_WV?$ChTraitsCRT@_W@ATL@@@@@ATL@@@std@@V?$allocator@U?$pair@$$CBV?$CStringT@_WV?$StrTraitMFC_DLL@_WV?$ChTraitsCRT@_W@ATL@@@@@ATL@@I@std@@@4@$0A@@std@@@std@@QAE@PAU_Node@?$_Tree_nod@V?$_Tmap_traits@V?$CStringT@_WV?$StrTraitMFC_DLL@_WV?$ChTraitsCRT@_W@ATL@@@@@ATL@@IU?$less@V?$CStringT@_WV?$StrTraitMFC_DLL@_WV?$ChTraitsCRT@_W@ATL@@@@@ATL@@@std@@V?$allocator@U?$pair@$$CBV?$CStringT@_WV?$StrTraitMFC_DLL@_WV?$ChTraitsCRT@_W@ATL@@@@@ATL@@I@std@@@4@$0A@@std@@@2@@Z 0042d750 f i ComputerList.obj
 0001:0002c750       ??0iterator@?$vector@V?$GxxAutoPtr@VGxxValue@@@@V?$allocator@V?$GxxAutoPtr@VGxxValue@@@@@std@@@std@@QAE@PAV?$GxxAutoPtr@VGxxValue@@@@@Z 0042d750 f i gxx_base.obj
 0001:0002c750       ??0iterator@?$list@PAVCByteArray@@V?$allocator@PAVCByteArray@@@std@@@std@@QAE@PAU_Node@?$_List_nod@PAVCByteArray@@V?$allocator@PAVCByteArray@@@std@@@2@@Z 0042d750 f i ClientSocket.obj
 0001:0002c770       ??Yiterator@?$vector@V?$basic_string@DU?$char_traits@D@std@@V?$allocator@D@2@@std@@V?$allocator@V?$basic_string@DU?$char_traits@D@std@@V?$allocator@D@2@@std@@@2@@std@@QAEAAV012@H@Z 0042d770 f i mailer.obj
 0001:0002c770       ??Yconst_iterator@?$vector@V?$basic_string@DU?$char_traits@D@std@@V?$allocator@D@2@@std@@V?$allocator@V?$basic_string@DU?$char_traits@D@std@@V?$allocator@D@2@@std@@@2@@std@@QAEAAV012@H@Z 0042d770 f i mailer.obj
 0001:0002c770       ??Yiterator@?$vector@V?$basic_string@_WU?$char_traits@_W@std@@V?$allocator@_W@2@@std@@V?$allocator@V?$basic_string@_WU?$char_traits@_W@std@@V?$allocator@_W@2@@std@@@2@@std@@QAEAAV012@H@Z 0042d770 f i DevAccess.obj
 0001:0002c790       ??Gconst_iterator@?$vector@V?$basic_string@_WU?$char_traits@_W@std@@V?$allocator@_W@2@@std@@V?$allocator@V?$basic_string@_WU?$char_traits@_W@std@@V?$allocator@_W@2@@std@@@2@@std@@QBEHABV012@@Z 0042d790 f i DevAccess.obj
 0001:0002c790       ??Gconst_iterator@?$vector@V?$basic_string@DU?$char_traits@D@std@@V?$allocator@D@2@@std@@V?$allocator@V?$basic_string@DU?$char_traits@D@std@@V?$allocator@D@2@@std@@@2@@std@@QBEHABV012@@Z 0042d790 f i mailer.obj
 0001:0002c7b0       ??$_Uninitialized_fill_n@PAV?$basic_string@_WU?$char_traits@_W@std@@V?$allocator@_W@2@@std@@IV12@V?$allocator@V?$basic_string@_WU?$char_traits@_W@std@@V?$allocator@_W@2@@std@@@2@@std@@YAXPAV?$basic_string@_WU?$char_traits@_W@std@@V?$allocator@_W@2@@0@IABV10@AAV?$allocator@V?$basic_string@_WU?$char_traits@_W@std@@V?$allocator@_W@2@@std@@@0@@Z 0042d7b0 f i DevAccess.obj
 0001:0002c7f0       ??$_Destroy_range@V?$basic_string@_WU?$char_traits@_W@std@@V?$allocator@_W@2@@std@@V?$allocator@V?$basic_string@_WU?$char_traits@_W@std@@V?$allocator@_W@2@@std@@@2@@std@@YAXPAV?$basic_string@_WU?$char_traits@_W@std@@V?$allocator@_W@2@@0@0AAV?$allocator@V?$basic_string@_WU?$char_traits@_W@std@@V?$allocator@_W@2@@std@@@0@@Z 0042d7f0 f i DevAccess.obj
 0001:0002c830       ??$_Ucopy@PAV?$basic_string@_WU?$char_traits@_W@std@@V?$allocator@_W@2@@std@@@?$vector@V?$basic_string@_WU?$char_traits@_W@std@@V?$allocator@_W@2@@std@@V?$allocator@V?$basic_string@_WU?$char_traits@_W@std@@V?$allocator@_W@2@@std@@@2@@std@@IAEPAV?$basic_string@_WU?$char_traits@_W@std@@V?$allocator@_W@2@@1@PAV21@00@Z 0042d830 f i DevAccess.obj
 0001:0002c860       ??$fill@PAV?$basic_string@_WU?$char_traits@_W@std@@V?$allocator@_W@2@@std@@V12@@std@@YAXPAV?$basic_string@_WU?$char_traits@_W@std@@V?$allocator@_W@2@@0@0ABV10@@Z 0042d860 f i DevAccess.obj
 0001:0002c890       ??$copy_backward@PAV?$basic_string@_WU?$char_traits@_W@std@@V?$allocator@_W@2@@std@@PAV12@@std@@YAPAV?$basic_string@_WU?$char_traits@_W@std@@V?$allocator@_W@2@@0@PAV10@00@Z 0042d890 f i DevAccess.obj
 0001:0002c8d0       ??$_Uninit_fill_n@PAV?$basic_string@_WU?$char_traits@_W@std@@V?$allocator@_W@2@@std@@IV12@V?$allocator@V?$basic_string@_WU?$char_traits@_W@std@@V?$allocator@_W@2@@std@@@2@@std@@YAXPAV?$basic_string@_WU?$char_traits@_W@std@@V?$allocator@_W@2@@0@IABV10@AAV?$allocator@V?$basic_string@_WU?$char_traits@_W@std@@V?$allocator@_W@2@@std@@@0@U_Nonscalar_ptr_iterator_tag@0@@Z 0042d8d0 f i DevAccess.obj
 0001:0002c970       ??$_Destroy_range@V?$basic_string@_WU?$char_traits@_W@std@@V?$allocator@_W@2@@std@@V?$allocator@V?$basic_string@_WU?$char_traits@_W@std@@V?$allocator@_W@2@@std@@@2@@std@@YAXPAV?$basic_string@_WU?$char_traits@_W@std@@V?$allocator@_W@2@@0@0AAV?$allocator@V?$basic_string@_WU?$char_traits@_W@std@@V?$allocator@_W@2@@std@@@0@U_Nonscalar_ptr_iterator_tag@0@@Z 0042d970 f i DevAccess.obj
 0001:0002c9a0       ??$_Uninitialized_copy@PAV?$basic_string@_WU?$char_traits@_W@std@@V?$allocator@_W@2@@std@@PAV12@V?$allocator@V?$basic_string@_WU?$char_traits@_W@std@@V?$allocator@_W@2@@std@@@2@@std@@YAPAV?$basic_string@_WU?$char_traits@_W@std@@V?$allocator@_W@2@@0@PAV10@00AAV?$allocator@V?$basic_string@_WU?$char_traits@_W@std@@V?$allocator@_W@2@@std@@@0@@Z 0042d9a0 f i DevAccess.obj
 0001:0002c9e0       ??$_Copy_backward_opt@PAV?$basic_string@_WU?$char_traits@_W@std@@V?$allocator@_W@2@@std@@PAV12@@std@@YAPAV?$basic_string@_WU?$char_traits@_W@std@@V?$allocator@_W@2@@0@PAV10@00U_Nonscalar_ptr_iterator_tag@0@@Z 0042d9e0 f i DevAccess.obj
 0001:0002ca20       ?construct@?$allocator@V?$basic_string@_WU?$char_traits@_W@std@@V?$allocator@_W@2@@std@@@std@@QAEXPAV?$basic_string@_WU?$char_traits@_W@std@@V?$allocator@_W@2@@2@ABV32@@Z 0042da20 f i DevAccess.obj
 0001:0002ca40       ?destroy@?$allocator@V?$basic_string@_WU?$char_traits@_W@std@@V?$allocator@_W@2@@std@@@std@@QAEXPAV?$basic_string@_WU?$char_traits@_W@std@@V?$allocator@_W@2@@2@@Z 0042da40 f i DevAccess.obj
 0001:0002ca60       ??$_Uninit_copy@PAV?$basic_string@_WU?$char_traits@_W@std@@V?$allocator@_W@2@@std@@PAV12@V?$allocator@V?$basic_string@_WU?$char_traits@_W@std@@V?$allocator@_W@2@@std@@@2@@std@@YAPAV?$basic_string@_WU?$char_traits@_W@std@@V?$allocator@_W@2@@0@PAV10@00AAV?$allocator@V?$basic_string@_WU?$char_traits@_W@std@@V?$allocator@_W@2@@std@@@0@U_Nonscalar_ptr_iterator_tag@0@@Z 0042da60 f i DevAccess.obj
 0001:0002cb10       ??$_Construct@V?$basic_string@_WU?$char_traits@_W@std@@V?$allocator@_W@2@@std@@V12@@std@@YAXPAV?$basic_string@_WU?$char_traits@_W@std@@V?$allocator@_W@2@@0@ABV10@@Z 0042db10 f i DevAccess.obj
 0001:0002cb80       ??$_Destroy@V?$basic_string@_WU?$char_traits@_W@std@@V?$allocator@_W@2@@std@@@std@@YAXPAV?$basic_string@_WU?$char_traits@_W@std@@V?$allocator@_W@2@@0@@Z 0042db80 f i DevAccess.obj
 0001:0002cb90       ??_G?$basic_string@_WU?$char_traits@_W@std@@V?$allocator@_W@2@@std@@QAEPAXI@Z 0042db90 f i DevAccess.obj
 0001:0002cbc0       ??1CDialogManager@@QAE@XZ  0042dbc0 f   DialogManager.obj
 0001:0002cbe0       ?AfxGetMainWnd@@YGPAVCWnd@@XZ 0042dbe0 f i DialogManager.obj
 0001:0002cc20       ??1?$CArray@UTDialogData@CDialogManager@@U12@@@UAE@XZ 0042dc20 f i DialogManager.obj
 0001:0002cc80       ?Serialize@?$CArray@UTDialogData@CDialogManager@@U12@@@UAEXAAVCArchive@@@Z 0042dc80 f i DialogManager.obj
 0001:0002cc80       ?Serialize@?$CArray@UTFocusEnter@CNDDialog@@U12@@@UAEXAAVCArchive@@@Z 0042dc80 f i NDDialog.obj
 0001:0002ccf0       ??_G?$CArray@UTDialogData@CDialogManager@@U12@@@UAEPAXI@Z 0042dcf0 f i DialogManager.obj
 0001:0002ccf0       ??_E?$CArray@UTDialogData@CDialogManager@@U12@@@UAEPAXI@Z 0042dcf0 f i DialogManager.obj
 0001:0002cd20       ?GetRuntimeClass@CDlgCapture@@UBEPAUCRuntimeClass@@XZ 0042dd20 f   DlgCapture.obj
 0001:0002cd30       ??0CDlgCapture@@QAE@PB_W0PAVCWnd@@@Z 0042dd30 f   DlgCapture.obj
 0001:0002ce00       ??_GCDlgCapture@@UAEPAXI@Z 0042de00 f i DlgCapture.obj
 0001:0002ce00       ??_ECDlgCapture@@UAEPAXI@Z 0042de00 f i DlgCapture.obj
 0001:0002ce30       ??1CDlgCapture@@UAE@XZ     0042de30 f   DlgCapture.obj
 0001:0002ceb0       ?DoDataExchange@CDlgCapture@@MAEXPAVCDataExchange@@@Z 0042deb0 f   DlgCapture.obj
 0001:0002cef0       ?GetMessageMap@CDlgCapture@@MBEPBUAFX_MSGMAP@@XZ 0042def0 f   DlgCapture.obj
 0001:0002cf00       ?OnInitDialog@CDlgCapture@@UAEHXZ 0042df00 f   DlgCapture.obj
 0001:0002cf40       ?OnTimer@CDlgCapture@@QAEXI@Z 0042df40 f   DlgCapture.obj
 0001:0002d0f0       ?SetCameraIndex@CIBAConfig@@QAEXABI@Z 0042e0f0 f i DlgCapture.obj
 0001:0002d110       ?OnBnClickedOk@CDlgCapture@@QAEXXZ 0042e110 f   DlgCapture.obj
 0001:0002d270       ?OnBnClickedCancel@CDlgCapture@@QAEXXZ 0042e270 f   DlgCapture.obj
 0001:0002d2a0       ?OnBnClickedBtnChoosecamera@CDlgCapture@@QAEXXZ 0042e2a0 f   DlgCapture.obj
 0001:0002d340       ?EnableControls@CDlgCapture@@QAEXH@Z 0042e340 f   DlgCapture.obj
 0001:0002d3a0       ?GetCount@CComboBox@@QBEHXZ 0042e3a0 f i DlgCapture.obj
 0001:0002d3d0       ?InsertString@CComboBox@@QAEHHPB_W@Z 0042e3d0 f i DlgCapture.obj
 0001:0002d400       ??0?$CArray@V?$CStringT@_WV?$StrTraitMFC_DLL@_WV?$ChTraitsCRT@_W@ATL@@@@@ATL@@V12@@@QAE@XZ 0042e400 f i DlgCapture.obj
 0001:0002d450       ??1?$CArray@V?$CStringT@_WV?$StrTraitMFC_DLL@_WV?$ChTraitsCRT@_W@ATL@@@@@ATL@@V12@@@UAE@XZ 0042e450 f i DlgCapture.obj
 0001:0002d4c0       ??_E?$CArray@V?$CStringT@_WV?$StrTraitMFC_DLL@_WV?$ChTraitsCRT@_W@ATL@@@@@ATL@@V12@@@UAEPAXI@Z 0042e4c0 f i DlgCapture.obj
 0001:0002d4c0       ??_G?$CArray@V?$CStringT@_WV?$StrTraitMFC_DLL@_WV?$ChTraitsCRT@_W@ATL@@@@@ATL@@V12@@@UAEPAXI@Z 0042e4c0 f i DlgCapture.obj
 0001:0002d4f0       ?GetRuntimeClass@CDlgChoseForwardBundle@@UBEPAUCRuntimeClass@@XZ 0042e4f0 f   DlgChoseForwardBundle.obj
 0001:0002d500       ??0CDlgChoseForwardBundle@@QAE@PAVCWnd@@@Z 0042e500 f   DlgChoseForwardBundle.obj
 0001:0002d5b0       ??_GCDlgChoseForwardBundle@@UAEPAXI@Z 0042e5b0 f i DlgChoseForwardBundle.obj
 0001:0002d5b0       ??_ECDlgChoseForwardBundle@@UAEPAXI@Z 0042e5b0 f i DlgChoseForwardBundle.obj
 0001:0002d5e0       ??1CDlgChoseForwardBundle@@UAE@XZ 0042e5e0 f   DlgChoseForwardBundle.obj
 0001:0002d640       ?DoDataExchange@CDlgChoseForwardBundle@@MAEXPAVCDataExchange@@@Z 0042e640 f   DlgChoseForwardBundle.obj
 0001:0002d680       ?GetMessageMap@CDlgChoseForwardBundle@@MBEPBUAFX_MSGMAP@@XZ 0042e680 f   DlgChoseForwardBundle.obj
 0001:0002d690       ?OnInitDialog@CDlgChoseForwardBundle@@EAEHXZ 0042e690 f   DlgChoseForwardBundle.obj
 0001:0002d6c0       ?ListPCClassInit@CDlgChoseForwardBundle@@AAEXXZ 0042e6c0 f   DlgChoseForwardBundle.obj
 0001:0002d760       ?InsertPCClassItem@CDlgChoseForwardBundle@@AAEXXZ 0042e760 f   DlgChoseForwardBundle.obj
 0001:0002dd90       ?CreateFontW@CFont@@QAEHHHHHHEEEEEEEEPB_W@Z 0042ed90 f i DlgChoseForwardBundle.obj
 0001:0002ddf0       ?GetLogFont@CFont@@QAEHPAUtagLOGFONTW@@@Z 0042edf0 f i DlgChoseForwardBundle.obj
 0001:0002de10       ?SetForwarBundleInfo@CDlgChoseForwardBundle@@QAEXNHHH@Z 0042ee10 f   DlgChoseForwardBundle.obj
 0001:0002de50       ?GetForwardBundleMoney@CDlgChoseForwardBundle@@QAEHXZ 0042ee50 f   DlgChoseForwardBundle.obj
 0001:0002de70       ?OnBnClickedOk@CDlgChoseForwardBundle@@QAEXXZ 0042ee70 f   DlgChoseForwardBundle.obj
 0001:0002ded0       ??0?$CArray@VCIDNameRecord@NS_DAL@@AAV12@@@QAE@XZ 0042eed0 f i DlgChoseForwardBundle.obj
 0001:0002df20       ?Add@?$CArray@VCIDNameRecord@NS_DAL@@AAV12@@@QAEHAAVCIDNameRecord@NS_DAL@@@Z 0042ef20 f i DlgChoseForwardBundle.obj
 0001:0002df50       ?Copy@?$CArray@VCIDNameRecord@NS_DAL@@AAV12@@@QAEXABV1@@Z 0042ef50 f i DlgChoseForwardBundle.obj
 0001:0002df90       ??1?$CArray@VCIDNameRecord@NS_DAL@@AAV12@@@UAE@XZ 0042ef90 f i DlgChoseForwardBundle.obj
 0001:0002e000       ?Serialize@?$CArray@VCIDNameRecord@NS_DAL@@AAV12@@@UAEXAAVCArchive@@@Z 0042f000 f i DlgChoseForwardBundle.obj
 0001:0002e070       ??_G?$CArray@VCIDNameRecord@NS_DAL@@AAV12@@@UAEPAXI@Z 0042f070 f i DlgChoseForwardBundle.obj
 0001:0002e070       ??_E?$CArray@VCIDNameRecord@NS_DAL@@AAV12@@@UAEPAXI@Z 0042f070 f i DlgChoseForwardBundle.obj
 0001:0002e0a0       ?SetSize@?$CArray@VCIDNameRecord@NS_DAL@@AAV12@@@QAEXHH@Z 0042f0a0 f i DlgChoseForwardBundle.obj
 0001:0002e4d0       ??0CIDNameRecord@NS_DAL@@QAE@XZ 0042f4d0 f i DlgChoseForwardBundle.obj
 0001:0002e4d0       ??0CIDTypeInfo@NS_DAL@@QAE@XZ 0042f4d0 f i IBADAL.obj
 0001:0002e4d0       ??0CRightsManagement@NS_DAL@@IAE@XZ 0042f4d0 f i Cashier.obj
 0001:0002e4d0       ??0CCommodityQueryCondition@NS_DAL@@QAE@XZ 0042f4d0 f i OffDutyDlg.obj
 0001:0002e500       ?SetAtGrow@?$CArray@VCIDNameRecord@NS_DAL@@AAV12@@@QAEXHAAVCIDNameRecord@NS_DAL@@@Z 0042f500 f i DlgChoseForwardBundle.obj
 0001:0002e550       ??$CopyElements@VCIDNameRecord@NS_DAL@@@@YGXPAVCIDNameRecord@NS_DAL@@PBV01@H@Z 0042f550 f i DlgChoseForwardBundle.obj
 0001:0002e5a0       ??4CIDNameRecord@NS_DAL@@QAEAAV01@ABV01@@Z 0042f5a0 f i DlgChoseForwardBundle.obj
 0001:0002e5a0       ??4CIDTypeInfo@NS_DAL@@QAEAAV01@ABV01@@Z 0042f5a0 f i IBADAL.obj
 0001:0002e5d0       ?GetRuntimeClass@CDlgCreditModify@@UBEPAUCRuntimeClass@@XZ 0042f5d0 f   DlgCreditModify.obj
 0001:0002e5e0       ??0CDlgCreditModify@@QAE@PAVCWnd@@@Z 0042f5e0 f   DlgCreditModify.obj
 0001:0002e6a0       ??_ECDlgCreditModify@@UAEPAXI@Z 0042f6a0 f i DlgCreditModify.obj
 0001:0002e6a0       ??_GCDlgCreditModify@@UAEPAXI@Z 0042f6a0 f i DlgCreditModify.obj
 0001:0002e6d0       ??1CDlgCreditModify@@UAE@XZ 0042f6d0 f   DlgCreditModify.obj
 0001:0002e750       ?DoDataExchange@CDlgCreditModify@@MAEXPAVCDataExchange@@@Z 0042f750 f   DlgCreditModify.obj
 0001:0002e7b0       ?GetMessageMap@CDlgCreditModify@@MBEPBUAFX_MSGMAP@@XZ 0042f7b0 f   DlgCreditModify.obj
 0001:0002e7c0       ?OnInitDialog@CDlgCreditModify@@UAEHXZ 0042f7c0 f   DlgCreditModify.obj
 0001:0002e840       ?OnBnClickedOk@CDlgCreditModify@@QAEXXZ 0042f840 f   DlgCreditModify.obj
 0001:0002e950       ?GetRuntimeClass@CDlgDutyLocal@@UBEPAUCRuntimeClass@@XZ 0042f950 f   DlgDutyLocal.obj
 0001:0002e960       ??0CDlgDutyLocal@@QAE@PAVCWnd@@@Z 0042f960 f   DlgDutyLocal.obj
 0001:0002eb10       ??_GCDlgDutyLocal@@UAEPAXI@Z 0042fb10 f i DlgDutyLocal.obj
 0001:0002eb10       ??_ECDlgDutyLocal@@UAEPAXI@Z 0042fb10 f i DlgDutyLocal.obj
 0001:0002eb40       ??1CDlgDutyLocal@@UAE@XZ   0042fb40 f   DlgDutyLocal.obj
 0001:0002ecb0       ?DoDataExchange@CDlgDutyLocal@@MAEXPAVCDataExchange@@@Z 0042fcb0 f   DlgDutyLocal.obj
 0001:0002ee00       ?GetMessageMap@CDlgDutyLocal@@MBEPBUAFX_MSGMAP@@XZ 0042fe00 f   DlgDutyLocal.obj
 0001:0002ee10       ?OnInitDialog@CDlgDutyLocal@@UAEHXZ 0042fe10 f   DlgDutyLocal.obj
 0001:0002f500       ?GetCheckOutTime@CCheckOutinfo@NS_DAL@@QBE?AV?$CStringT@_WV?$StrTraitMFC_DLL@_WV?$ChTraitsCRT@_W@ATL@@@@@ATL@@XZ 00430500 f i AllCheckOut.obj
 0001:0002f500       ?GetTermId@CLastUserInfo@NS_DAL@@QBE?AV?$CStringT@_WV?$StrTraitMFC_DLL@_WV?$ChTraitsCRT@_W@ATL@@@@@ATL@@XZ 00430500 f i NDCheckInDlg.obj
 0001:0002f500       ?GetOperationDateTime@CCardOpenInfo@NS_DAL@@QBE?AV?$CStringT@_WV?$StrTraitMFC_DLL@_WV?$ChTraitsCRT@_W@ATL@@@@@ATL@@XZ 00430500 f i CardopenConsumeDlg.obj
 0001:0002f500       ?GetCommodityCode@CStoreInRecord@NS_SERVLET@@QBE?AV?$CStringT@_WV?$StrTraitMFC_DLL@_WV?$ChTraitsCRT@_W@ATL@@@@@ATL@@XZ 00430500 f i StoreInMethod.obj
 0001:0002f500       ?GetVoucherNo@CRetailVoucher@NS_DAL@@QBE?AV?$CStringT@_WV?$StrTraitMFC_DLL@_WV?$ChTraitsCRT@_W@ATL@@@@@ATL@@XZ 00430500 f i IBADAL-JXC.obj
 0001:0002f500       ?GetCommodityCode@CCommodity@NS_DAL@@QBE?AV?$CStringT@_WV?$StrTraitMFC_DLL@_WV?$ChTraitsCRT@_W@ATL@@@@@ATL@@XZ 00430500 f i JXCCommodityDlg.obj
 0001:0002f500       ?GetDescription@CFullBundleTimeInfo@@QBE?AV?$CStringT@_WV?$StrTraitMFC_DLL@_WV?$ChTraitsCRT@_W@ATL@@@@@ATL@@XZ 00430500 f i BundleTimeListDlg.obj
 0001:0002f500       ?GetValue@CRespField@NS_SERVLET_HELPPER@NS_SERVLET@@QAE?AV?$CStringT@_WV?$StrTraitMFC_DLL@_WV?$ChTraitsCRT@_W@ATL@@@@@ATL@@XZ 00430500 f i RespField.obj
 0001:0002f500       ?GetCommodityCode@CSellRecord@NS_SERVLET@@QBE?AV?$CStringT@_WV?$StrTraitMFC_DLL@_WV?$ChTraitsCRT@_W@ATL@@@@@ATL@@XZ 00430500 f i RetailMethod.obj
 0001:0002f500       ?GetVoucherNo@CRetailDetail@NS_DAL@@QBE?AV?$CStringT@_WV?$StrTraitMFC_DLL@_WV?$ChTraitsCRT@_W@ATL@@@@@ATL@@XZ 00430500 f i IBADAL-JXC.obj
 0001:0002f500       ?GetUpgradeTime@CMemberUpgradeDB@NS_DAL@@QBE?AV?$CStringT@_WV?$StrTraitMFC_DLL@_WV?$ChTraitsCRT@_W@ATL@@@@@ATL@@XZ 00430500 f i IBADAL-USER.obj
 0001:0002f500       ?GetIDTypeName@CIDTypeInfo@NS_DAL@@QBE?AV?$CStringT@_WV?$StrTraitMFC_DLL@_WV?$ChTraitsCRT@_W@ATL@@@@@ATL@@XZ 00430500 f i CheckMemberDlg.obj
 0001:0002f500       ?GetCasherAccess@CLocalStatusInfo@NS_DAL@@QBE?AV?$CStringT@_WV?$StrTraitMFC_DLL@_WV?$ChTraitsCRT@_W@ATL@@@@@ATL@@XZ 00430500 f i BrokenNetwork.obj
 0001:0002f500       ?GetName@CIDNameRecord@NS_DAL@@QBE?AV?$CStringT@_WV?$StrTraitMFC_DLL@_WV?$ChTraitsCRT@_W@ATL@@@@@ATL@@XZ 00430500 f i DefineBundTimeDlg.obj
 0001:0002f500       ?GetReturnDate@CReturnedInfo@NS_DAL@@QBE?AV?$CStringT@_WV?$StrTraitMFC_DLL@_WV?$ChTraitsCRT@_W@ATL@@@@@ATL@@XZ 00430500 f i IBADAL-USER.obj
 0001:0002f500       ?GetName@CNetBarInfo@NS_DAL@@QBE?AV?$CStringT@_WV?$StrTraitMFC_DLL@_WV?$ChTraitsCRT@_W@ATL@@@@@ATL@@XZ 00430500 f i NetBarConfig.obj
 0001:0002f500       ?GetWWMIP@CNetBarConfig2@@QBE?AV?$CStringT@_WV?$StrTraitMFC_DLL@_WV?$ChTraitsCRT@_W@ATL@@@@@ATL@@XZ 00430500 f i RealNameConfigPage.obj
 0001:0002f500       ?GetLastTranTime@CLastTranInfo@NS_SERVLET@@QBE?AV?$CStringT@_WV?$StrTraitMFC_DLL@_WV?$ChTraitsCRT@_W@ATL@@@@@ATL@@XZ 00430500 f i DlgDutyLocal.obj
 0001:0002f500       ?GetCreditDate@CCreditInfoDB@NS_DAL@@QBE?AV?$CStringT@_WV?$StrTraitMFC_DLL@_WV?$ChTraitsCRT@_W@ATL@@@@@ATL@@XZ 00430500 f i IBADAL-USER.obj
 0001:0002f530       ?OnCtlColor@CDlgDutyLocal@@QAEPAUHBRUSH__@@PAVCDC@@PAVCWnd@@I@Z 00430530 f   DlgDutyLocal.obj
 0001:0002f6b0       ?GetWindow@CWnd@@QBEPAV1@I@Z 004306b0 f i DlgDutyLocal.obj
 0001:0002f6e0       ?GetRuntimeClass@CDlgIBAFastlane@@UBEPAUCRuntimeClass@@XZ 004306e0 f   DlgIBAFastlane.obj
 0001:0002f6f0       ??0CDlgIBAFastlane@@QAE@PAVCWnd@@@Z 004306f0 f   DlgIBAFastlane.obj
 0001:0002f7f0       ??_GCDlgIBAFastlane@@UAEPAXI@Z 004307f0 f i DlgIBAFastlane.obj
 0001:0002f7f0       ??_ECDlgIBAFastlane@@UAEPAXI@Z 004307f0 f i DlgIBAFastlane.obj
 0001:0002f820       ??1CDlgIBAFastlane@@UAE@XZ 00430820 f   DlgIBAFastlane.obj
 0001:0002f8f0       ?DoDataExchange@CDlgIBAFastlane@@MAEXPAVCDataExchange@@@Z 004308f0 f   DlgIBAFastlane.obj
 0001:0002f980       ?GetMessageMap@CDlgIBAFastlane@@MBEPBUAFX_MSGMAP@@XZ 00430980 f   DlgIBAFastlane.obj
 0001:0002f990       ?OnInitDialog@CDlgIBAFastlane@@MAEHXZ 00430990 f   DlgIBAFastlane.obj
 0001:0002fd10       ?AfxGetInstanceHandle@@YGPAUHINSTANCE__@@XZ 00430d10 f i DlgIBAFastlane.obj
 0001:0002fd20       ?OnEraseBkgnd@CDlgIBAFastlane@@IAEHPAVCDC@@@Z 00430d20 f   DlgIBAFastlane.obj
 0001:000303b0       ?LoadBitmapW@CBitmap@@QAEHI@Z 004313b0 f i DlgIBAFastlane.obj
 0001:000303e0       ?GetBitmap@CBitmap@@QAEHPAUtagBITMAP@@@Z 004313e0 f i DlgIBAFastlane.obj
 0001:00030400       ?OnSize@CDlgIBAFastlane@@IAEXIHH@Z 00431400 f   DlgIBAFastlane.obj
 0001:00030520       ?MoveWindow@CWnd@@QAEXPBUtagRECT@@H@Z 00431520 f i DlgIBAFastlane.obj
 0001:00030560       ?PreTranslateMessage@CDlgIBAFastlane@@MAEHPAUtagMSG@@@Z 00431560 f   DlgIBAFastlane.obj
 0001:000305f0       ?OnCbnSelendokComboFast@CDlgIBAFastlane@@IAEXXZ 004315f0 f   DlgIBAFastlane.obj
 0001:00031530       ?GetInputActivation@CNetBarConfig@@QBEHXZ 00432530 f i DlgIBAFastlane.obj
 0001:00031550       ?OnTimer@CDlgIBAFastlane@@QAEXI@Z 00432550 f   DlgIBAFastlane.obj
 0001:000315c0       ?UpdateBugle@CDlgIBAFastlane@@QAEXXZ 004325c0 f   DlgIBAFastlane.obj
 0001:00031600       ?InvalidateRect@CWnd@@QAEXPBUtagRECT@@H@Z 00432600 f i DlgIBAFastlane.obj
 0001:00031630       ?StartBugleTurn@CDlgIBAFastlane@@QAEXH@Z 00432630 f   DlgIBAFastlane.obj
 0001:00031670       ?StopBugleTurn@CDlgIBAFastlane@@QAEXH@Z 00432670 f   DlgIBAFastlane.obj
 0001:000316b0       ?OnCbnSelchangeComboFast@CDlgIBAFastlane@@IAEXXZ 004326b0 f   DlgIBAFastlane.obj
 0001:000316b0       ?OnCbnSelendcancelComboFast@CDlgIBAFastlane@@IAEXXZ 004326b0 f   DlgIBAFastlane.obj
 0001:000316d0       ?OnUpdateRollText@CDlgIBAFastlane@@IAEJIJ@Z 004326d0 f   DlgIBAFastlane.obj
 0001:000317d0       ?OnStnClickedPicStatus@CDlgIBAFastlane@@QAEXXZ 004327d0 f   DlgIBAFastlane.obj
 0001:00031890       ?OnUpdateIBAStatus@CDlgIBAFastlane@@IAEJIJ@Z 00432890 f   DlgIBAFastlane.obj
 0001:000318c0       ?OnLButtonDown@CDlgIBAFastlane@@QAEXIVCPoint@@@Z 004328c0 f   DlgIBAFastlane.obj
 0001:00031930       ?PtInRect@CRect@@QBEHUtagPOINT@@@Z 00432930 f i DlgIBAFastlane.obj
 0001:00031950       ?OnLButtonDblClk@CIBAOutputBar@@IAEXIVCPoint@@@Z 00432950 f   OutputBar.obj
 0001:00031950       ?OnSize@CConfigOfOther@@QAEXIHH@Z 00432950 f   NetBarOtherInfoPage.obj
 0001:00031950       ?OnSetCursor@CDlgIBAFastlane@@QAEHPAVCWnd@@II@Z 00432950 f   DlgIBAFastlane.obj
 0001:00031950       ?OnMouseActivate@CWebBrowser@@IAEHPAVCWnd@@II@Z 00432950 f   WebBrowser.obj
 0001:00031980       ?OnMouseMove@CDlgIBAFastlane@@QAEXIVCPoint@@@Z 00432980 f   DlgIBAFastlane.obj
 0001:00031a00       ?QueryActiveUser@CDlgIBAFastlane@@AAEHV?$CStringT@_WV?$StrTraitMFC_DLL@_WV?$ChTraitsCRT@_W@ATL@@@@@ATL@@AAI@Z 00432a00 f   DlgIBAFastlane.obj
 0001:00031b60       ?SetNetId@CDlgMemberInfo@@QAEXABV?$CStringT@_WV?$StrTraitMFC_DLL@_WV?$ChTraitsCRT@_W@ATL@@@@@ATL@@@Z 00432b60 f i DlgIBAFastlane.obj
 0001:00031b80       ?GetMemberId@CDlgMemberInfo@@QAE?BIXZ 00432b80 f i DlgIBAFastlane.obj
 0001:00031ba0       ?SetQueryStyle@CDlgMemberInfo@@QAEXI@Z 00432ba0 f i DlgIBAFastlane.obj
 0001:00031bc0       ?ActivateWndByComputerInfo@CDlgIBAFastlane@@AAEXAAVCComputerInfo@@@Z 00432bc0 f   DlgIBAFastlane.obj
 0001:00031cc0       ?PopupWindow_UnActiveMember@CDlgIBAFastlane@@AAEXV?$CStringT@_WV?$StrTraitMFC_DLL@_WV?$ChTraitsCRT@_W@ATL@@@@@ATL@@@Z 00432cc0 f   DlgIBAFastlane.obj
 0001:00031e90       ?IsIconic@CWnd@@QBEHXZ     00432e90 f i DlgIBAFastlane.obj
 0001:00031eb0       ?BringWindowToTop@CWnd@@QAEXXZ 00432eb0 f i DlgIBAFastlane.obj
 0001:00031ed0       ?SetNetId@CCurrentNetBarUser@@QAEXV?$CStringT@_WV?$StrTraitMFC_DLL@_WV?$ChTraitsCRT@_W@ATL@@@@@ATL@@@Z 00432ed0 f i DlgIBAFastlane.obj
 0001:00031f30       ?SetForegroundWindow@CWnd@@QAEHXZ 00432f30 f i DlgIBAFastlane.obj
 0001:00031f50       ?PopupWindow@CDlgIBAFastlane@@AAEXAAVCActiveMember@@@Z 00432f50 f   DlgIBAFastlane.obj
 0001:00032300       ?GetForegroundWindow@CWnd@@SGPAV1@XZ 00433300 f i DlgIBAFastlane.obj
 0001:00032320       ?QueryIDs_PartialMatch@CDlgIBAFastlane@@AAEHV?$CStringT@_WV?$StrTraitMFC_DLL@_WV?$ChTraitsCRT@_W@ATL@@@@@ATL@@AAV23@@Z 00433320 f   DlgIBAFastlane.obj
 0001:000324d0       ?GetNetId@CDlgMemberInfo@@QBE?AV?$CStringT@_WV?$StrTraitMFC_DLL@_WV?$ChTraitsCRT@_W@ATL@@@@@ATL@@XZ 004334d0 f i DlgIBAFastlane.obj
 0001:00032510       ?QueryIDs_PartialMatch@CDlgIBAFastlane@@AAEHV?$CStringT@_WV?$StrTraitMFC_DLL@_WV?$ChTraitsCRT@_W@ATL@@@@@ATL@@AAI@Z 00433510 f   DlgIBAFastlane.obj
 0001:00032670       ?Activation@CDlgIBAFastlane@@AAEHV?$CStringT@_WV?$StrTraitMFC_DLL@_WV?$ChTraitsCRT@_W@ATL@@@@@ATL@@AAI@Z 00433670 f   DlgIBAFastlane.obj
 0001:00033960       ?GetIsShowRzxPhoto@CNetBarConfig@@QAE?BHXZ 00434960 f i DlgIBAFastlane.obj
 0001:00033960       ?GetVIPColor@CIBAConfig@@QBEKXZ 00434960 f i MonitorSetPage.obj
 0001:00033980       ?GetSoftSfreg@CNetBarConfig@@QBEHXZ 00434980 f i DlgIBAFastlane.obj
 0001:000339a0       ?SetActivationTime@CActiveMember@@QAEXABVCOleDateTime@ATL@@@Z 004349a0 f i DlgIBAFastlane.obj
 0001:000339d0       ?SetNetIdAlias@CActiveMember@@QAEXABV?$CStringT@_WV?$StrTraitMFC_DLL@_WV?$ChTraitsCRT@_W@ATL@@@@@ATL@@@Z 004349d0 f i DlgIBAFastlane.obj
 0001:000339f0       ??0?$CStringLoaderDlg@VCBCGPDialog@@@@QAE@IPAVCWnd@@@Z 004349f0 f i DlgIBAFastlane.obj
 0001:00033a70       ??1CRegKey@ATL@@QAE@XZ     00434a70 f i DlgIBAFastlane.obj
 0001:00033a90       ?Close@CRegKey@ATL@@QAEJXZ 00434a90 f i DlgIBAFastlane.obj
 0001:00033ad0       ?Create@CRegKey@ATL@@QAEJPAUHKEY__@@PB_WPA_WKKPAU_SECURITY_ATTRIBUTES@@PAK@Z 00434ad0 f i DlgIBAFastlane.obj
 0001:00033b40       ?SetDWORDValue@CRegKey@ATL@@QAEJPB_WK@Z 00434b40 f i DlgIBAFastlane.obj
 0001:00033b70       ?SetStringValue@CRegKey@ATL@@QAEJPB_W0K@Z 00434b70 f i DlgIBAFastlane.obj
 0001:00033bb0       ?Draw@CImage@ATL@@QBEHPAUHDC__@@HHHHHHHH@Z 00434bb0 f i DlgIBAFastlane.obj
 0001:00033cc0       ?GetDC@CImage@ATL@@QBEPAUHDC__@@XZ 00434cc0 f i DlgIBAFastlane.obj
 0001:00033d20       ?GetDC@CDCCache@CImage@ATL@@QAEPAUHDC__@@XZ 00434d20 f i DlgIBAFastlane.obj
 0001:00033d80       ?ReleaseDC@CImage@ATL@@QBEXXZ 00434d80 f i DlgIBAFastlane.obj
 0001:00033de0       ?ReleaseDC@CDCCache@CImage@ATL@@QAEXPAUHDC__@@@Z 00434de0 f i DlgIBAFastlane.obj
 0001:00033e40       ?IsTransparencySupported@CImage@ATL@@SAHXZ 00434e40 f i DlgIBAFastlane.obj
 0001:00033e50       ?GetTransparentRGB@CImage@ATL@@ABEKXZ 00434e50 f i DlgIBAFastlane.obj
 0001:00033e90       ?GetRuntimeClass@CDlgInputMobile@@UBEPAUCRuntimeClass@@XZ 00434e90 f   DlgInputMobile.obj
 0001:00033ea0       ??0CDlgInputMobile@@QAE@PAVCWnd@@@Z 00434ea0 f   DlgInputMobile.obj
 0001:00033f20       ??_GCDlgInputMobile@@UAEPAXI@Z 00434f20 f i DlgInputMobile.obj
 0001:00033f20       ??_ECDlgInputMobile@@UAEPAXI@Z 00434f20 f i DlgInputMobile.obj
 0001:00033f50       ??1CDlgInputMobile@@UAE@XZ 00434f50 f   DlgInputMobile.obj
 0001:00033fc0       ?DoDataExchange@CDlgInputMobile@@MAEXPAVCDataExchange@@@Z 00434fc0 f   DlgInputMobile.obj
 0001:00033ff0       ?GetMessageMap@CDlgInputMobile@@MBEPBUAFX_MSGMAP@@XZ 00434ff0 f   DlgInputMobile.obj
 0001:00034000       ?OnBnClickedOk@CDlgInputMobile@@QAEXXZ 00435000 f   DlgInputMobile.obj
 0001:00034190       ?OnInitDialog@CDlgInputMobile@@UAEHXZ 00435190 f   DlgInputMobile.obj
 0001:000341d0       ?GetRuntimeClass@CDlgInputParam@@UBEPAUCRuntimeClass@@XZ 004351d0 f   DlgInputParam.obj
 0001:000341e0       ??0CDlgInputParam@@QAE@PAVCWnd@@@Z 004351e0 f   DlgInputParam.obj
 0001:00034280       ??_GCDlgInputParam@@UAEPAXI@Z 00435280 f i DlgInputParam.obj
 0001:00034280       ??_ECDlgInputParam@@UAEPAXI@Z 00435280 f i DlgInputParam.obj
 0001:000342b0       ??1CDlgInputParam@@UAE@XZ  004352b0 f   DlgInputParam.obj
 0001:00034300       ?DoDataExchange@CDlgInputParam@@MAEXPAVCDataExchange@@@Z 00435300 f   DlgInputParam.obj
 0001:00034350       ?GetMessageMap@CDlgInputParam@@MBEPBUAFX_MSGMAP@@XZ 00435350 f   DlgInputParam.obj
 0001:00034360       ?InitParam@CDlgInputParam@@QAEXV?$CStringT@_WV?$StrTraitMFC_DLL@_WV?$ChTraitsCRT@_W@ATL@@@@@ATL@@00@Z 00435360 f   DlgInputParam.obj
 0001:00034400       ?OnInitDialog@CDlgInputParam@@UAEHXZ 00435400 f   DlgInputParam.obj
 0001:00034440       ?OnBnClickedOk@CDlgInputUserPwd@@IAEXXZ 00435440 f   DlgInputUserPwd.obj
 0001:00034440       ?OnBnClickedOk@CDlgInputParam@@QAEXXZ 00435440 f   DlgInputParam.obj
 0001:00034460       ?GetRuntimeClass@CDlgInputUserPwd@@UBEPAUCRuntimeClass@@XZ 00435460 f   DlgInputUserPwd.obj
 0001:00034470       ??0CDlgInputUserPwd@@QAE@PAVCWnd@@@Z 00435470 f   DlgInputUserPwd.obj
 0001:000344b0       ??_ECDlgInputUserPwd@@UAEPAXI@Z 004354b0 f i DlgInputUserPwd.obj
 0001:000344b0       ??_GCDlgInputUserPwd@@UAEPAXI@Z 004354b0 f i DlgInputUserPwd.obj
 0001:000344e0       ??1CDlgInputUserPwd@@UAE@XZ 004354e0 f   DlgInputUserPwd.obj
 0001:00034510       ?GetMessageMap@CDlgInputUserPwd@@MBEPBUAFX_MSGMAP@@XZ 00435510 f   DlgInputUserPwd.obj
 0001:00034520       ?GetRuntimeClass@CDlgNotice@@UBEPAUCRuntimeClass@@XZ 00435520 f   DlgNotice.obj
 0001:00034530       ??0CDlgNotice@@QAE@PAVCWnd@@@Z 00435530 f   DlgNotice.obj
 0001:000345e0       ??_GCDlgNotice@@UAEPAXI@Z  004355e0 f i DlgNotice.obj
 0001:000345e0       ??_ECDlgNotice@@UAEPAXI@Z  004355e0 f i DlgNotice.obj
 0001:00034610       ?SetParams@CDlgNotice@@QAEXPB_W00HH@Z 00435610 f   DlgNotice.obj
 0001:000347f0       ??1CDlgNotice@@UAE@XZ      004357f0 f   DlgNotice.obj
 0001:00034890       ?DoDataExchange@CDlgNotice@@MAEXPAVCDataExchange@@@Z 00435890 f   DlgNotice.obj
 0001:000348c0       ?GetMessageMap@CDlgNotice@@MBEPBUAFX_MSGMAP@@XZ 004358c0 f   DlgNotice.obj
 0001:000348d0       ?OnInitDialog@CDlgNotice@@UAEHXZ 004358d0 f   DlgNotice.obj
 0001:00034930       ?OnStnClickedStaticInfo@CDlgNotice@@QAEXXZ 00435930 f   DlgNotice.obj
 0001:00034980       ?OnBnClickedOk@CDlgNotice@@QAEXXZ 00435980 f   DlgNotice.obj
 0001:000349e0       ?OnSetCursor@CDlgNotice@@QAEHPAVCWnd@@II@Z 004359e0 f   DlgNotice.obj
 0001:00034aa0       ?OnCtlColor@CDlgNotice@@QAEPAUHBRUSH__@@PAVCDC@@PAVCWnd@@I@Z 00435aa0 f   DlgNotice.obj
 0001:00034b10       ?EnableMenuItem@CMenu@@QAEIII@Z 00435b10 f i DlgNotice.obj
 0001:00034b40       ?GetSystemMenu@CWnd@@QBEPAVCMenu@@H@Z 00435b40 f i DlgNotice.obj
 0001:00034b70       ?GetRuntimeClass@CDlgRNZdCrc@@UBEPAUCRuntimeClass@@XZ 00435b70 f   DlgRNZdCrc.obj
 0001:00034b80       ??0CDlgRNZdCrc@@QAE@PAVCWnd@@@Z 00435b80 f   DlgRNZdCrc.obj
 0001:00034bc0       ??_GCDlgRNZdCrc@@UAEPAXI@Z 00435bc0 f i DlgRNZdCrc.obj
 0001:00034bc0       ??_ECDlgRNZdCrc@@UAEPAXI@Z 00435bc0 f i DlgRNZdCrc.obj
 0001:00034bf0       ??1CDlgRNZdCrc@@UAE@XZ     00435bf0 f   DlgRNZdCrc.obj
 0001:00034c10       ?GetMessageMap@CDlgRNZdCrc@@MBEPBUAFX_MSGMAP@@XZ 00435c10 f   DlgRNZdCrc.obj
 0001:00034c20       ?OnBnClickedOk@CDlgRNZdCrc@@IAEXXZ 00435c20 f   DlgRNZdCrc.obj
 0001:00034c50       ?GetRuntimeClass@CDlgUserPhoto@@UBEPAUCRuntimeClass@@XZ 00435c50 f   DlgUserPhoto.obj
 0001:00034c60       ??0CDlgUserPhoto@@QAE@PAVCWnd@@@Z 00435c60 f   DlgUserPhoto.obj
 0001:00034ce0       ??_GCDlgUserPhoto@@UAEPAXI@Z 00435ce0 f i DlgUserPhoto.obj
 0001:00034ce0       ??_ECDlgUserPhoto@@UAEPAXI@Z 00435ce0 f i DlgUserPhoto.obj
 0001:00034d10       ??1CDlgUserPhoto@@UAE@XZ   00435d10 f   DlgUserPhoto.obj
 0001:00034d70       ?DoDataExchange@CDlgUserPhoto@@MAEXPAVCDataExchange@@@Z 00435d70 f   DlgUserPhoto.obj
 0001:00034db0       ?GetMessageMap@CDlgUserPhoto@@MBEPBUAFX_MSGMAP@@XZ 00435db0 f   DlgUserPhoto.obj
 0001:00034dc0       ?OnSize@CDlgUserPhoto@@IAEXIHH@Z 00435dc0 f   DlgUserPhoto.obj
 0001:00034ed0       ?CreateObject@CDodonewView@@SGPAVCObject@@XZ 00435ed0 f   DodonewView.obj
 0001:00034f40       ?GetThisClass@CDodonewView@@SGPAUCRuntimeClass@@XZ 00435f40 f   DodonewView.obj
 0001:00034f50       ?GetRuntimeClass@CDodonewView@@UBEPAUCRuntimeClass@@XZ 00435f50 f   DodonewView.obj
 0001:00034f60       ??0CDodonewView@@IAE@XZ    00435f60 f   DodonewView.obj
 0001:00034f80       ??_ECDodonewView@@MAEPAXI@Z 00435f80 f i DodonewView.obj
 0001:00034f80       ??_GCDodonewView@@MAEPAXI@Z 00435f80 f i DodonewView.obj
 0001:00034fb0       ??1CDodonewView@@MAE@XZ    00435fb0 f   DodonewView.obj
 0001:00034fd0       ?GetMessageMap@CDodonewView@@MBEPBUAFX_MSGMAP@@XZ 00435fd0 f   DodonewView.obj
 0001:00034fe0       ?OnInitialUpdate@CDodonewView@@UAEXXZ 00435fe0 f   DodonewView.obj
 0001:00035190       ?GetQueryHost@CNetBarConfig@@QBE?AV?$CStringT@_WV?$StrTraitMFC_DLL@_WV?$ChTraitsCRT@_W@ATL@@@@@ATL@@XZ 00436190 f i DodonewView.obj
 0001:000351d0       ?Reflash@CDodonewView@@QAEXXZ 004361d0 f   DodonewView.obj
 0001:00035360       ?OnDestroy@CDodonewView@@QAEXXZ 00436360 f   DodonewView.obj
 0001:00035380       ?OnClose@CIBAFormView@@IAEXXZ 00436380 f   IBAFormView.obj
 0001:00035380       ?OnClose@CDodonewView@@QAEXXZ 00436380 f   DodonewView.obj
 0001:000353c0       ?PostNcDestroy@CDodonewView@@MAEXXZ 004363c0 f   DodonewView.obj
 0001:000353e0       ?CalcMD5@CEncrypt@@SAXV?$CStringT@_WV?$StrTraitMFC_DLL@_WV?$ChTraitsCRT@_W@ATL@@@@@ATL@@AAV23@@Z 004363e0 f   Encrypt.obj
 0001:00035560       ?CalcMac@CEncrypt@@SAXV?$CStringT@_WV?$StrTraitMFC_DLL@_WV?$ChTraitsCRT@_W@ATL@@@@@ATL@@AAV23@0H@Z 00436560 f   Encrypt.obj
 0001:000356e0       ?Decrypt@CEncrypt@@SAXV?$CStringT@_WV?$StrTraitMFC_DLL@_WV?$ChTraitsCRT@_W@ATL@@@@@ATL@@0AAV23@H@Z 004366e0 f   Encrypt.obj
 0001:000358e0       ?EncryptString@CEncrypt@@SA?AV?$CStringT@_WV?$StrTraitMFC_DLL@_WV?$ChTraitsCRT@_W@ATL@@@@@ATL@@PB_W0_W@Z 004368e0 f   Encrypt.obj
 0001:00035b70       ?BtoH@CEncrypt@@SAED@Z     00436b70 f   Encrypt.obj
 0001:00035bd0       ?AtoH@CEncrypt@@SAXPBDPADH@Z 00436bd0 f   Encrypt.obj
 0001:00035c50       ?Buffer2Byte@CEncrypt@@SAXPAE0I@Z 00436c50 f   Encrypt.obj
 0001:00035ce0       ?DES@CEncrypt@@SAXPBDPA_W0H@Z 00436ce0 f   Encrypt.obj
 0001:00035de0       ?des@CEncrypt@@SAXPAE00H@Z 00436de0 f   Encrypt.obj
 0001:000374b0       ?CalcMD5Bytes@CEncrypt@@SAXPAXJPAD@Z 004384b0 f   Encrypt.obj
 0001:00037570       ??0?$CW2AEX@$0IA@@ATL@@QAE@PB_WI@Z 00438570 f i Encrypt.obj
 0001:000375a0       ?CreateObject@CG2XPrintDummyView@@SGPAVCObject@@XZ 004385a0 f   G2XPrint.obj
 0001:00037610       ?GetRuntimeClass@CG2XPrintDummyView@@UBEPAUCRuntimeClass@@XZ 00438610 f   G2XPrint.obj
 0001:00037620       ??0CG2XPrintDummyView@@QAE@XZ 00438620 f   G2XPrint.obj
 0001:00037660       ?OnUpdateSeatRefresh@CSeatLayoutView@@IAEXPAVCCmdUI@@@Z 00438660 f i SeatLayoutView.obj
 0001:00037660       ?DoDataExchange@CWnd@@MAEXPAVCDataExchange@@@Z 00438660 f i AddTerminalDlg.obj
 0001:00037660       ?OnCheckOut@CRealNameBase@NS_REALNAME@@UAEXPBUtag_CheckoutInfo@2@@Z 00438660 f i GLWRealName.obj
 0001:00037660       ?GetTitle@CG2XPrintHelper@@MAEXAAV?$CStringT@_WV?$StrTraitMFC_DLL@_WV?$ChTraitsCRT@_W@ATL@@@@@ATL@@@Z 00438660 f i RegisterDlg.obj
 0001:00037660       ?OnGetBalanceFailed@CNDDialog@@MAEXAAVCBalanceMethod@NS_SERVLET@@@Z 00438660 f i NDDialog.obj
 0001:00037660       ?didRun@CG2XThreadDelegate@@MAEXPAVCG2XThread@@@Z 00438660 f i G2XThreadTemplate.obj
 0001:00037660       ?Dump@CObject@@UBEXAAVCDumpContext@@@Z 00438660 f i AddTerminalDlg.obj
 0001:00037660       ?OnDraw@CG2XPrintDummyView@@MAEXPAVCDC@@@Z 00438660 f i G2XPrint.obj
 0001:00037660       ?Serialize@CObject@@UAEXAAVCArchive@@@Z 00438660 f i AddTerminalDlg.obj
 0001:00037660       ?didInitInstance@CG2XThreadDelegate@@MAEXPAVCG2XThread@@@Z 00438660 f i G2XThreadTemplate.obj
 0001:00037670       ?OnPreparePrinting@CG2XPrintDummyView@@MAEHPAUCPrintInfo@@@Z 00438670 f i G2XPrint.obj
 0001:000376a0       ?OnBeginPrinting@CG2XPrintDummyView@@MAEXPAVCDC@@PAUCPrintInfo@@@Z 004386a0 f i G2XPrint.obj
 0001:000376d0       ?OnPrepareDC@CG2XPrintDummyView@@MAEXPAVCDC@@PAUCPrintInfo@@@Z 004386d0 f i G2XPrint.obj
 0001:00037700       ?OnPrint@CG2XPrintDummyView@@MAEXPAVCDC@@PAUCPrintInfo@@@Z 00438700 f i G2XPrint.obj
 0001:00037730       ?OnEndPrinting@CG2XPrintDummyView@@MAEXPAVCDC@@PAUCPrintInfo@@@Z 00438730 f i G2XPrint.obj
 0001:00037760       ??_ECG2XPrintDummyView@@UAEPAXI@Z 00438760 f i G2XPrint.obj
 0001:00037760       ??_GCG2XPrintDummyView@@UAEPAXI@Z 00438760 f i G2XPrint.obj
 0001:00037790       ??1CG2XPrintDummyView@@UAE@XZ 00438790 f   G2XPrint.obj
 0001:000377c0       ?SetFont@CBCGPLinkStatic@@QAEXPAVCFont@@@Z 004387c0 f   BCGPLinkStatic.obj
 0001:000377c0       ?SetPicBk@CSShowPic2@@QAEXK@Z 004387c0 f   NDCreditDlg.obj
 0001:000377c0       ?SetPrintDialog@CG2XPrintDummyView@@QAEXPAVCPrintInterfaceBase@@@Z 004387c0 f   G2XPrint.obj
 0001:000377e0       ?OnDoFilePrint@CG2XPrintDummyView@@QAEXXZ 004387e0 f   G2XPrint.obj
 0001:00037fe0       ?OnEndPrintPreview@CG2XPrintDummyView@@MAEXPAVCDC@@PAUCPrintInfo@@UtagPOINT@@PAVCPreviewView@@@Z 00438fe0 f   G2XPrint.obj
 0001:00038060       ?OnDialogPrint@CG2XPrintHelper@@QAEXXZ 00439060 f   G2XPrint.obj
 0001:000380c0       ?GetOwnerHandle@CG2XPrintHelper@@MAEPAUHWND__@@XZ 004390c0 f   G2XPrint.obj
 0001:00038110       ?OnPreparePrinting@CG2XPrintHelper@@MAEHPAUCPrintInfo@@@Z 00439110 f   G2XPrint.obj
 0001:00038130       ?SetRect@CRect@@QAEXHHHH@Z 00439130 f i G2XPrint.obj
 0001:00038160       ?GetDeviceCaps@CDC@@QBEHH@Z 00439160 f i G2XPrint.obj
 0001:00038180       ?DPtoLP@CDC@@QBEXPAUtagRECT@@@Z 00439180 f i G2XPrint.obj
 0001:000381a0       ?StartDocW@CDC@@QAEHPAU_DOCINFOW@@@Z 004391a0 f i G2XPrint.obj
 0001:000381c0       ?StartPage@CDC@@QAEHXZ     004391c0 f i G2XPrint.obj
 0001:000381e0       ?EndPage@CDC@@QAEHXZ       004391e0 f i G2XPrint.obj
 0001:00038200       ?AbortDoc@CDC@@QAEHXZ      00439200 f i G2XPrint.obj
 0001:00038220       ?EndDoc@CDC@@QAEHXZ        00439220 f i G2XPrint.obj
 0001:00038240       ?GetMinPage@CPrintInfo@@QBEIXZ 00439240 f i G2XPrint.obj
 0001:00038260       ?GetMaxPage@CPrintInfo@@QBEIXZ 00439260 f i G2XPrint.obj
 0001:00038280       ?GetFromPage@CPrintInfo@@QBEIXZ 00439280 f i G2XPrint.obj
 0001:000382a0       ?GetToPage@CPrintInfo@@QBEIXZ 004392a0 f i G2XPrint.obj
 0001:000382c0       ?GetRuntimeClass@CHeaderCtrlCl@@UBEPAUCRuntimeClass@@XZ 004392c0 f   HeaderCtrlCl.obj
 0001:000382d0       ??0CHeaderCtrlCl@@QAE@XZ   004392d0 f   HeaderCtrlCl.obj
 0001:000383b0       ??_GCHeaderCtrlCl@@UAEPAXI@Z 004393b0 f i HeaderCtrlCl.obj
 0001:000383b0       ??_ECHeaderCtrlCl@@UAEPAXI@Z 004393b0 f i HeaderCtrlCl.obj
 0001:000383e0       ??1CHeaderCtrlCl@@UAE@XZ   004393e0 f   HeaderCtrlCl.obj
 0001:00038440       ?GetMessageMap@CHeaderCtrlCl@@MBEPBUAFX_MSGMAP@@XZ 00439440 f   HeaderCtrlCl.obj
 0001:00038450       ?OnPaint@CHeaderCtrlCl@@QAEXXZ 00439450 f   HeaderCtrlCl.obj
 0001:00038a60       ?OnLayout@CHeaderCtrlCl@@QAEJIJ@Z 00439a60 f   HeaderCtrlCl.obj
 0001:00038ad0       ?OffsetRect@CRect@@QAEXHH@Z 00439ad0 f i HeaderCtrlCl.obj
 0001:00038af0       ??ACObArray@@QAEAAPAVCObject@@H@Z 00439af0 f i SeatList2.obj
 0001:00038af0       ??ACStringArray@@QAEAAV?$CStringT@_WV?$StrTraitMFC_DLL@_WV?$ChTraitsCRT@_W@ATL@@@@@ATL@@H@Z 00439af0 f i HeaderCtrlCl.obj
 0001:00038b10       ?ElementAt@CStringArray@@QAEAAV?$CStringT@_WV?$StrTraitMFC_DLL@_WV?$ChTraitsCRT@_W@ATL@@@@@ATL@@H@Z 00439b10 f i HeaderCtrlCl.obj
 0001:00038b10       ?ElementAt@CObArray@@QAEAAPAVCObject@@H@Z 00439b10 f i SeatList2.obj
 0001:00038b10       ?GetAt@CStringArray@@QBEABV?$CStringT@_WV?$StrTraitMFC_DLL@_WV?$ChTraitsCRT@_W@ATL@@@@@ATL@@H@Z 00439b10 f i AllCheckOut.obj
 0001:00038b40       ??0CBrush@@QAE@XZ          00439b40 f i HeaderCtrlCl.obj
 0001:00038b60       ??_ECBrush@@UAEPAXI@Z      00439b60 f i HeaderCtrlCl.obj
 0001:00038b60       ??_GCBrush@@UAEPAXI@Z      00439b60 f i HeaderCtrlCl.obj
 0001:00038b90       ??1CBrush@@UAE@XZ          00439b90 f i HeaderCtrlCl.obj
 0001:00038bb0       ?CreateSolidBrush@CBrush@@QAEHK@Z 00439bb0 f i HeaderCtrlCl.obj
 0001:00038bd0       ??0CHeaderCtrl@@QAE@XZ     00439bd0 f i HeaderCtrlCl.obj
 0001:00038bf0       ??_ECHeaderCtrl@@UAEPAXI@Z 00439bf0 f i HeaderCtrlCl.obj
 0001:00038bf0       ??_GCHeaderCtrl@@UAEPAXI@Z 00439bf0 f i HeaderCtrlCl.obj
 0001:00038c20       ?GetItemRect@CHeaderCtrl@@QBEHHPAUtagRECT@@@Z 00439c20 f i HeaderCtrlCl.obj
 0001:00038c50       ?GetMaxCostRateImp@HELPFUNC@@YAHHHHHH@Z 00439c50 f   HelpFunc.obj
 0001:00038e10       ?GetMaxCostRate@HELPFUNC@@YAHHHHH@Z 00439e10 f   HelpFunc.obj
 0001:00038ee0       ?GetMoneyToBundleTimeNotPCClass@HELPFUNC@@YAHAAV?$CStringT@_WV?$StrTraitMFC_DLL@_WV?$ChTraitsCRT@_W@ATL@@@@@ATL@@0HAAH@Z 00439ee0 f   HelpFunc.obj
 0001:00039260       ?GetMoneyToBundleTime@HELPFUNC@@YAHAAV?$CStringT@_WV?$StrTraitMFC_DLL@_WV?$ChTraitsCRT@_W@ATL@@@@@ATL@@0HHAAH@Z 0043a260 f   HelpFunc.obj
 0001:000395e0       ?GetMoneyToForwardBundle@HELPFUNC@@YAHNHHHH@Z 0043a5e0 f   HelpFunc.obj
 0001:000398b0       ?GetCashForwardBundleNoBalance@HELPFUNC@@YAHNHHHH@Z 0043a8b0 f   HelpFunc.obj
 0001:00039ba0       ?GetBundleTimeMoney@HELPFUNC@@YAHHH@Z 0043aba0 f   HelpFunc.obj
 0001:00039c90       ?GetDayOfWeek@COleDateTime@ATL@@QBEHXZ 0043ac90 f i HelpFunc.obj
 0001:00039cd0       ??0CIBAApp@@QAE@XZ         0043acd0 f   IBA.obj
 0001:00039e10       ??_GCIBAApp@@UAEPAXI@Z     0043ae10 f i IBA.obj
 0001:00039e10       ??_ECIBAApp@@UAEPAXI@Z     0043ae10 f i IBA.obj
 0001:00039e40       ??1CIBAApp@@UAE@XZ         0043ae40 f i IBA.obj
 0001:00039ed0       ?GetWorkPath@CIBAApp@@QBE?AV?$CStringT@_WV?$StrTraitMFC_DLL@_WV?$ChTraitsCRT@_W@ATL@@@@@ATL@@XZ 0043aed0 f   IBA.obj
 0001:00039f10       ?GetCurCashier@CIBAApp@@QAEPAVCCashier@@XZ 0043af10 f   IBA.obj
 0001:00039fa0       ?GetRealName@CIBAApp@@QAEPAVCIBARealName@@XZ 0043afa0 f   IBA.obj
 0001:0003a030       ?InitInstance@CIBAApp@@UAEHXZ 0043b030 f   IBA.obj
 0001:0003a240       ?ExitInstance@CIBAApp@@UAEHXZ 0043b240 f   IBA.obj
 0001:0003a530       ??_GCCashier@@QAEPAXI@Z    0043b530 f i IBA.obj
 0001:0003a560       ??_GCIBARealName@@QAEPAXI@Z 0043b560 f i IBA.obj
 0001:0003a590       ??_GCDialogManager@@QAEPAXI@Z 0043b590 f i IBA.obj
 0001:0003a5c0       ?LoadWindowPlacement@CIBAApp@@UAEHAAVCRect@@AAH1@Z 0043b5c0 f   IBA.obj
 0001:0003a600       ?IBAMsgBox@CIBAApp@@QAEHPB_WIH@Z 0043b600 f   IBA.obj
 0001:0003a6b0       ?IBAMsgBox2@CIBAApp@@QAEHPB_WIH@Z 0043b6b0 f   IBA.obj
 0001:0003a7d0       ?IBAMsgBox@CIBAApp@@QAEHIIH@Z 0043b7d0 f   IBA.obj
 0001:0003a850       ?InitIBA@CIBAApp@@AAEXXZ   0043b850 f   IBA.obj
 0001:0003abf0       ?UpdateIBA@CIBAApp@@QAEXXZ 0043bbf0 f   IBA.obj
 0001:0003ac70       ?InitIBAEnv@CIBAApp@@AAEHXZ 0043bc70 f   IBA.obj
 0001:0003aeb0       ?OnLoginOK@CIBAApp@@AAEXXZ 0043beb0 f   IBA.obj
 0001:0003b060       ?GetUnLockColor@CIBAConfig@@QBEKXZ 0043c060 f i MonitorSetPage.obj
 0001:0003b060       ?GetAuditInterface@CNetBarConfig@@QAE?BHXZ 0043c060 f i IBA.obj
 0001:0003b080       ?AutoRestart@CIBAApp@@QAEXXZ 0043c080 f   IBA.obj
 0001:0003b290       ?GetLastNetID@CIBAApp@@QBE?AV?$CStringT@_WV?$StrTraitMFC_DLL@_WV?$ChTraitsCRT@_W@ATL@@@@@ATL@@XZ 0043c290 f   IBA.obj
 0001:0003b360       ?OnCmdMsg@CIBAApp@@UAEHIHPAXPAUAFX_CMDHANDLERINFO@@@Z 0043c360 f   IBA.obj
 0001:0003b390       ?UpdateIBAStatus@CIBAApp@@QAEXH@Z 0043c390 f   IBA.obj
 0001:0003b3e0       ?InitSunlikeAuditInterface@CIBAApp@@AAE_NXZ 0043c3e0 f   IBA.obj
 0001:0003b700       ?UnInitSunlikeAuditInterface@CIBAApp@@AAE_NXZ 0043c700 f   IBA.obj
 0001:0003b770       ?ThreadTerminateProcess@CIBAApp@@SAKPAX@Z 0043c770 f   IBA.obj
 0001:0003b7c0       ?SetTerminateProcess@CIBAApp@@QAEXI@Z 0043c7c0 f   IBA.obj
 0001:0003b7f0       ?TopLevelUnhandledExceptionFilter@CIBAApp@@SGJPAU_EXCEPTION_POINTERS@@@Z 0043c7f0 f   IBA.obj
 0001:0003bf50       ?GetOperationName@CIBAGlobal@@SA?AV?$CStringT@_WV?$StrTraitMFC_DLL@_WV?$ChTraitsCRT@_W@ATL@@@@@ATL@@H@Z 0043cf50 f   IBA.obj
 0001:0003c040       ??_ECIBAApp@@WKE@AEPAXI@Z  0043d040 f i IBA.obj
 0001:0003c050       ??HATL@@YA?AV?$CStringT@_WV?$StrTraitMFC_DLL@_WV?$ChTraitsCRT@_W@ATL@@@@@0@PB_WABV10@@Z 0043d050 f i IBA.obj
 0001:0003c100       ?GetRuntimeClass@CIBAAboutDlg@@UBEPAUCRuntimeClass@@XZ 0043d100 f   IBAAboutDlg.obj
 0001:0003c110       ??0CIBAAboutDlg@@QAE@PAVCWnd@@@Z 0043d110 f   IBAAboutDlg.obj
 0001:0003c1c0       ??_GCIBAAboutDlg@@UAEPAXI@Z 0043d1c0 f i IBAAboutDlg.obj
 0001:0003c1c0       ??_ECIBAAboutDlg@@UAEPAXI@Z 0043d1c0 f i IBAAboutDlg.obj
 0001:0003c1f0       ??1CIBAAboutDlg@@UAE@XZ    0043d1f0 f   IBAAboutDlg.obj
 0001:0003c280       ?DoDataExchange@CIBAAboutDlg@@MAEXPAVCDataExchange@@@Z 0043d280 f   IBAAboutDlg.obj
 0001:0003c300       ?GetMessageMap@CIBAAboutDlg@@MBEPBUAFX_MSGMAP@@XZ 0043d300 f   IBAAboutDlg.obj
 0001:0003c310       ?OnInitDialog@CIBAAboutDlg@@MAEHXZ 0043d310 f   IBAAboutDlg.obj
 0001:0003c540       ?OnBnClickedButtonDodonew@CIBAAboutDlg@@IAEXXZ 0043d540 f   IBAAboutDlg.obj
 0001:0003c560       ?OnBnClickedButtonSunlike@CIBAAboutDlg@@IAEXXZ 0043d560 f   IBAAboutDlg.obj
 0001:0003c580       ?OnBnClickedButtonDuduniu@CIBAAboutDlg@@IAEXXZ 0043d580 f   IBAAboutDlg.obj
 0001:0003c5a0       ?GetRuntimeClass@CDlgIBAAgent@@UBEPAUCRuntimeClass@@XZ 0043d5a0 f   IBAAgent.obj
 0001:0003c5b0       ??0CDlgIBAAgent@@QAE@PAVCWnd@@@Z 0043d5b0 f   IBAAgent.obj
 0001:0003c6a0       ??_ECDlgIBAAgent@@UAEPAXI@Z 0043d6a0 f i IBAAgent.obj
 0001:0003c6a0       ??_GCDlgIBAAgent@@UAEPAXI@Z 0043d6a0 f i IBAAgent.obj
 0001:0003c6d0       ??1CDlgIBAAgent@@UAE@XZ    0043d6d0 f   IBAAgent.obj
 0001:0003c7a0       ?DoDataExchange@CDlgIBAAgent@@MAEXPAVCDataExchange@@@Z 0043d7a0 f   IBAAgent.obj
 0001:0003c850       ?GetMessageMap@CDlgIBAAgent@@MBEPBUAFX_MSGMAP@@XZ 0043d850 f   IBAAgent.obj
 0001:0003c860       ?OnInitDialog@CDlgIBAAgent@@MAEHXZ 0043d860 f   IBAAgent.obj
 0001:0003c950       ?InitData@CDlgIBAAgent@@AAEXXZ 0043d950 f   IBAAgent.obj
 0001:0003ca50       ?GetAgentName@CNetBarConfig@@QBE?AV?$CStringT@_WV?$StrTraitMFC_DLL@_WV?$ChTraitsCRT@_W@ATL@@@@@ATL@@XZ 0043da50 f i IBAAgent.obj
 0001:0003ca90       ?GetAgentMobilePhone@CNetBarConfig@@QBE?AV?$CStringT@_WV?$StrTraitMFC_DLL@_WV?$ChTraitsCRT@_W@ATL@@@@@ATL@@XZ 0043da90 f i IBAAgent.obj
 0001:0003cad0       ?GetAgentregularTel@CNetBarConfig@@QBE?AV?$CStringT@_WV?$StrTraitMFC_DLL@_WV?$ChTraitsCRT@_W@ATL@@@@@ATL@@XZ 0043dad0 f i IBAAgent.obj
 0001:0003cb10       ?OnBnClickedButtonEmail@CDlgIBAAgent@@IAEXXZ 0043db10 f   IBAAgent.obj
 0001:0003cb30       ?OnBnClickedButtonBbs@CDlgIBAAgent@@IAEXXZ 0043db30 f   IBAAgent.obj
 0001:0003cb50       ?OnBnClickedButtonOnline@CDlgIBAAgent@@IAEXXZ 0043db50 f   IBAAgent.obj
 0001:0003cb70       ?OnCtlColor@CDlgIBAAgent@@IAEPAUHBRUSH__@@PAVCDC@@PAVCWnd@@I@Z 0043db70 f   IBAAgent.obj
 0001:0003cbc0       ?GetRuntimeClass@CSetPageOfRegister@@UBEPAUCRuntimeClass@@XZ 0043dbc0 f   IBABusinessSet.obj
 0001:0003cbd0       ??0CSetPageOfRegister@@QAE@XZ 0043dbd0 f   IBABusinessSet.obj
 0001:0003ccd0       ??_GCSetPageOfRegister@@UAEPAXI@Z 0043dcd0 f i IBABusinessSet.obj
 0001:0003ccd0       ??_ECSetPageOfRegister@@UAEPAXI@Z 0043dcd0 f i IBABusinessSet.obj
 0001:0003cd00       ??1CSetPageOfRegister@@UAE@XZ 0043dd00 f   IBABusinessSet.obj
 0001:0003cde0       ?DoDataExchange@CSetPageOfRegister@@MAEXPAVCDataExchange@@@Z 0043dde0 f   IBABusinessSet.obj
 0001:0003cef0       ?GetMessageMap@CSetPageOfRegister@@MBEPBUAFX_MSGMAP@@XZ 0043def0 f   IBABusinessSet.obj
 0001:0003cf00       ?OnInitDialog@CSetPageOfRegister@@MAEHXZ 0043df00 f   IBABusinessSet.obj
 0001:0003d310       ?GetCheckIDCardNumber@CIBAConfig@@QBEHXZ 0043e310 f i IBABusinessSet.obj
 0001:0003d330       ?GetMemberId@CBalanceMethod@NS_SERVLET@@QBEIXZ 0043e330 f i Cashier.obj
 0001:0003d330       ?GetShiftType@COnDutyMethod@NS_SERVLET@@QBEIXZ 0043e330 f i Cashier.obj
 0001:0003d330       ?GetScanType@CActiveMember@@QBEHXZ 0043e330 f i ActiveMemberList.obj
 0001:0003d330       ?GetRegisterAge@CIBAConfig@@QBEIXZ 0043e330 f i IBABusinessSet.obj
 0001:0003d330       ?GetMemberId@CCheckout2Method@NS_SERVLET@@QBEIXZ 0043e330 f i BrokenNetworkResume.obj
 0001:0003d350       ?GetPasswordType@CIBAConfig@@QBEIXZ 0043e350 f i IBABusinessSet.obj
 0001:0003d370       ?GetDefPassword@CIBAConfig@@QBE?AV?$CStringT@_WV?$StrTraitMFC_DLL@_WV?$ChTraitsCRT@_W@ATL@@@@@ATL@@XZ 0043e370 f i IBABusinessSet.obj
 0001:0003d370       ?GetTerminalID@CActiveMember@@QAE?BV?$CStringT@_WV?$StrTraitMFC_DLL@_WV?$ChTraitsCRT@_W@ATL@@@@@ATL@@XZ 0043e370 f i AllCheckOut.obj
 0001:0003d3b0       ?GetTempDefPassword@CIBAConfig@@QBE?AV?$CStringT@_WV?$StrTraitMFC_DLL@_WV?$ChTraitsCRT@_W@ATL@@@@@ATL@@XZ 0043e3b0 f i IBABusinessSet.obj
 0001:0003d3f0       ?GetRoomMemberId@CActiveMember@@QBEIXZ 0043e3f0 f i AllCheckOut.obj
 0001:0003d3f0       ?GetDefIDTypeId@CIBAConfig@@QBEIXZ 0043e3f0 f i IBABusinessSet.obj
 0001:0003d410       ?OnOK@CSetPageOfRegister@@MAEXXZ 0043e410 f   IBABusinessSet.obj
 0001:0003d630       ?SetCheckIDCardNumber@CIBAConfig@@QAEXH@Z 0043e630 f i IBABusinessSet.obj
 0001:0003d650       ?SetHasCard@CIBAConfig@@QAEXH@Z 0043e650 f i IBABusinessSet.obj
 0001:0003d650       ?SetActive@CActiveMember@@QAEXH@Z 0043e650 f i AllCheckOut.obj
 0001:0003d670       ?SetStatus@CActiveMember@@QAEXH@Z 0043e670 f i AllCheckOut.obj
 0001:0003d670       ?SetRegisterMoney@CIBAConfig@@QAEXI@Z 0043e670 f i IBABusinessSet.obj
 0001:0003d690       ?SetRegisterAge@CIBAConfig@@QAEXI@Z 0043e690 f i IBABusinessSet.obj
 0001:0003d6b0       ?SetTransparent@CBCGPLinkStatic@@QAEXH@Z 0043e6b0 f i BCGPLinkStatic.obj
 0001:0003d6b0       ?SetPasswordType@CIBAConfig@@QAEXI@Z 0043e6b0 f i IBABusinessSet.obj
 0001:0003d6d0       ?SetDefPassword@CIBAConfig@@QAEXV?$CStringT@_WV?$StrTraitMFC_DLL@_WV?$ChTraitsCRT@_W@ATL@@@@@ATL@@@Z 0043e6d0 f i IBABusinessSet.obj
 0001:0003d730       ?SetTempDefPassword@CIBAConfig@@QAEXV?$CStringT@_WV?$StrTraitMFC_DLL@_WV?$ChTraitsCRT@_W@ATL@@@@@ATL@@@Z 0043e730 f i IBABusinessSet.obj
 0001:0003d790       ?SetDefUserClassID@CIBAConfig@@QAEXI@Z 0043e790 f i IBABusinessSet.obj
 0001:0003d7b0       ?SetDefIDTypeId@CIBAConfig@@QAEXI@Z 0043e7b0 f i IBABusinessSet.obj
 0001:0003d7d0       ?OnCbnSelchangeComboPasswordtype@CSetPageOfRegister@@IAEXXZ 0043e7d0 f   IBABusinessSet.obj
 0001:0003d8a0       ?OnCbnSelchangeComboPasswordtype2@CSetPageOfRegister@@IAEXXZ 0043e8a0 f   IBABusinessSet.obj
 0001:0003d970       ??0CIBACaptureImage@@QAE@XZ 0043e970 f   IBACaptureImage.obj
 0001:0003da30       ??1CIBACaptureImage@@QAE@XZ 0043ea30 f   IBACaptureImage.obj
 0001:0003daa0       ?Init@CIBACaptureImage@@QAE_NPAUHWND__@@H@Z 0043eaa0 f   IBACaptureImage.obj
 0001:0003dc50       ?SetSaveFilePath@CCaptureVideo@@QAEXPB_W@Z 0043ec50 f i IBACaptureImage.obj
 0001:0003dc70       ?SetSaveFilePath@CSampleGrabberCB@@QAEXPB_W@Z 0043ec70 f i IBACaptureImage.obj
 0001:0003dca0       ?GetCapArray@CIBACaptureImage@@QAE_NAAV?$CArray@V?$CStringT@_WV?$StrTraitMFC_DLL@_WV?$ChTraitsCRT@_W@ATL@@@@@ATL@@V12@@@@Z 0043eca0 f   IBACaptureImage.obj
 0001:0003dce0       ?CaptureImage@CIBACaptureImage@@QAE_NPB_W@Z 0043ece0 f   IBACaptureImage.obj
 0001:0003ded0       ?IsOpened@CCaptureVideo@@QAEHXZ 0043eed0 f i IBACaptureImage.obj
 0001:0003def0       ?SetImagesPath@CIBACaptureImage@@QAEXPB_W@Z 0043eef0 f   IBACaptureImage.obj
 0001:0003dfc0       ?Stop@CIBACaptureImage@@QAEXXZ 0043efc0 f   IBACaptureImage.obj
 0001:0003dff0       ?ResetEvent@CEvent@@QAEHXZ 0043eff0 f i IBACaptureImage.obj
 0001:0003e010       ??0GdiplusStartupInput@Gdiplus@@QAE@P6GXW4DebugEventLevel@1@PAD@ZHH@Z 0043f010 f i IBACaptureImage.obj
 0001:0003e050       ?GetInstance@CIBAConfig@@SAPAV1@XZ 0043f050 f   IBAConfig.obj
 0001:0003e130       ?GetAppPath@CIBAConfig@@SA?AV?$CStringT@_WV?$StrTraitMFC_DLL@_WV?$ChTraitsCRT@_W@ATL@@@@@ATL@@XZ 0043f130 f   IBAConfig.obj
 0001:0003e250       ??0CIBAConfig@@AAE@XZ      0043f250 f   IBAConfig.obj
 0001:0003e5d0       ??_GCIBAConfig@@EAEPAXI@Z  0043f5d0 f i IBAConfig.obj
 0001:0003e5d0       ??_ECIBAConfig@@EAEPAXI@Z  0043f5d0 f i IBAConfig.obj
 0001:0003e600       ??1CIBAConfig@@EAE@XZ      0043f600 f   IBAConfig.obj
 0001:0003e710       ?GetLocalSerialNo@CIBAConfig@@QAEIXZ 0043f710 f   IBAConfig.obj
 0001:0003e790       ?LoadConfig@CIBAConfig@@QAEXXZ 0043f790 f   IBAConfig.obj
 0001:0003f140       ?SetAllowNextDutyMoney@CIBAConfig@@QAEAAHXZ 00440140 f i IBAConfig.obj
 0001:0003f160       ?SetJXCPayCash@CIBAConfig@@QAEAAHXZ 00440160 f i IBAConfig.obj
 0001:0003f180       ?SetShowLocalModeButton@CIBAConfig@@QAEAAHXZ 00440180 f i IBAConfig.obj
 0001:0003f1a0       ?SetPrintTicketCreditMember@CIBAConfig@@QAEAAHXZ 004401a0 f i IBAConfig.obj
 0001:0003f1c0       ?SetPrintTicketCreditTemp@CIBAConfig@@QAEAAHXZ 004401c0 f i IBAConfig.obj
 0001:0003f1e0       ?SetPrintTicketOpenMember@CIBAConfig@@QAEAAHXZ 004401e0 f i IBAConfig.obj
 0001:0003f200       ?SetPrintTicketOpenTemp@CIBAConfig@@QAEAAHXZ 00440200 f i IBAConfig.obj
 0001:0003f220       ?SetPrintTicketBTMember@CIBAConfig@@QAEAAHXZ 00440220 f i IBAConfig.obj
 0001:0003f240       ?SetPrintTicketBTTemp@CIBAConfig@@QAEAAHXZ 00440240 f i IBAConfig.obj
 0001:0003f260       ?SetPrintTicketReturnMember@CIBAConfig@@QAEAAHXZ 00440260 f i IBAConfig.obj
 0001:0003f260       ?response@mailer@jwsmtp@@QBEABV?$basic_string@DU?$char_traits@D@std@@V?$allocator@D@2@@std@@XZ 00440260 f i mailer.obj
 0001:0003f280       ?SetPrintTicketReturnTemp@CIBAConfig@@QAEAAHXZ 00440280 f i IBAConfig.obj
 0001:0003f2a0       ?SetOperationAfterEnter@CIBAConfig@@QAEAAHXZ 004402a0 f i IBAConfig.obj
 0001:0003f2c0       ?SetOperationAfterDClick@CIBAConfig@@QAEAAHXZ 004402c0 f i IBAConfig.obj
 0001:0003f2e0       ?SetMaxCreditMoney@CIBAConfig@@QAEAAHXZ 004402e0 f i IBAConfig.obj
 0001:0003f300       ?SetIsShowShiftCash@CIBAConfig@@QAEAAHXZ 00440300 f i IBAConfig.obj
 0001:0003f320       ?SetCameraIndex@CIBAConfig@@QAEAAIXZ 00440320 f i IBAConfig.obj
 0001:0003f340       ?SetZdCrc@CIBAConfig@@QAEAAKXZ 00440340 f i IBAConfig.obj
 0001:0003f360       ?SaveConfig@CIBAConfig@@QAEXXZ 00440360 f   IBAConfig.obj
 0001:0003fbf0       ?GetJXCPayCash@CIBAConfig@@QBEHXZ 00440bf0 f i IBAConfig.obj
 0001:0003fc10       ?GetPrintTicketCreditTemp@CIBAConfig@@QBEHXZ 00440c10 f i IBAConfig.obj
 0001:0003fc30       ?GetPrintTicketOpenMember@CIBAConfig@@QBEHXZ 00440c30 f i IBAConfig.obj
 0001:0003fc50       ?GetPrintTicketBTTemp@CIBAConfig@@QBEHXZ 00440c50 f i IBAConfig.obj
 0001:0003fc70       ?GetUserTypeColor@CIBAConfig@@QAEKI@Z 00440c70 f   IBAConfig.obj
 0001:0003fd00       ?SetUserTypeColor@CIBAConfig@@QAEXIK@Z 00440d00 f   IBAConfig.obj
 0001:0003fd90       ?GetShowPCClassType@CIBAConfig@@QAEII@Z 00440d90 f   IBAConfig.obj
 0001:0003fe30       ?SetShowPCClassType@CIBAConfig@@QAEXII@Z 00440e30 f   IBAConfig.obj
 0001:0003fec0       ?GetDynamicReserveMoney@CIBAConfig@@QAEIXZ 00440ec0 f   IBAConfig.obj
 0001:0003fef0       ?SetDynamicReserveMoney@CIBAConfig@@QAEXI@Z 00440ef0 f   IBAConfig.obj
 0001:0003ff20       ?GetPrintCreditTicket@CIBAConfig@@QAEHH@Z 00440f20 f   IBAConfig.obj
 0001:0003ff50       ?GetPrintReturnTicket@CIBAConfig@@QAEHH@Z 00440f50 f   IBAConfig.obj
 0001:0003ff80       ?GetPrintTicketBT@CIBAConfig@@QAEHH@Z 00440f80 f   IBAConfig.obj
 0001:0003ffb0       ??1?$CSingletonCleaner@VCIBATTS@NS_TTS@@@@QAE@XZ 00440fb0 f i IBATTS.obj
 0001:0003ffb0       ??1?$CSingletonCleaner@VCLocalServer@NS_ISERVER@@@@QAE@XZ 00440fb0 f i LocalServer.obj
 0001:0003ffb0       ??1?$CSingletonCleaner@VCIBAConfig@@@@QAE@XZ 00440fb0 f i IBAConfig.obj
 0001:0003ffb0       ?DestoryRealName@CIBARealName@@QAEXXZ 00440fb0 f i IBARealName.obj
 0001:0003ffb0       ??1?$CSingletonCleaner@VCIBALog@@@@QAE@XZ 00440fb0 f i IBALog.obj
 0001:0003ffb0       ??1?$CSingletonCleaner@VCNetBarConfig@@@@QAE@XZ 00440fb0 f i NetBarConfig.obj
 0001:00040000       ?GetThisMessageMap@CIBADialog@@KGPBUAFX_MSGMAP@@XZ 00441000 f   IBADialog.obj
 0001:00040010       ?GetMessageMap@CIBADialog@@MBEPBUAFX_MSGMAP@@XZ 00441010 f   IBADialog.obj
 0001:00040020       ??0CIBADialog@@IAE@IPAVCWnd@@@Z 00441020 f   IBADialog.obj
 0001:00040140       ??_GCIBADialog@@UAEPAXI@Z  00441140 f i IBADialog.obj
 0001:00040140       ??_ECIBADialog@@UAEPAXI@Z  00441140 f i IBADialog.obj
 0001:00040170       ?OnInitDialog@CIBADialog@@MAEHXZ 00441170 f   IBADialog.obj
 0001:000402e0       ?PreTranslateMessage@CIBADialog@@MAEHPAUtagMSG@@@Z 004412e0 f   IBADialog.obj
 0001:00040310       ?SetToolTipPos@CIBADialog@@IAEXI@Z 00441310 f   IBADialog.obj
 0001:00040380       ?ShowToolTip@CIBADialog@@IAEXIH@Z 00441380 f   IBADialog.obj
 0001:00040400       ?ShowToolTip@CIBADialog@@IAEXV?$CStringT@_WV?$StrTraitMFC_DLL@_WV?$ChTraitsCRT@_W@ATL@@@@@ATL@@H@Z 00441400 f   IBADialog.obj
 0001:00040520       ?ShowToolTip@CIBADialog@@IAEXIIH@Z 00441520 f   IBADialog.obj
 0001:00040550       ?ShowToolTipFormat@CIBADialog@@IAAXIZZ 00441550 f   IBADialog.obj
 0001:00040610       ?MsgBox@CIBADialog@@QAEHPB_WI0@Z 00441610 f   IBADialog.obj
 0001:000406e0       ?MsgBox@CIBADialog@@QAEHIIPB_W@Z 004416e0 f   IBADialog.obj
 0001:00040760       ?MsgBoxFormat@CIBADialog@@QAAHIIZZ 00441760 f   IBADialog.obj
 0001:00040820       ?OnTimer@CIBADialog@@IAEXI@Z 00441820 f   IBADialog.obj
 0001:00040860       ?AutoClose@CIBADialog@@IAEXH@Z 00441860 f   IBADialog.obj
 0001:00040890       ?CreateObject@CIBADoc@@SGPAVCObject@@XZ 00441890 f   IBADoc.obj
 0001:00040900       ?GetThisClass@CIBADoc@@SGPAUCRuntimeClass@@XZ 00441900 f   IBADoc.obj
 0001:00040910       ?GetRuntimeClass@CIBADoc@@UBEPAUCRuntimeClass@@XZ 00441910 f   IBADoc.obj
 0001:00040920       ?GetMessageMap@CIBADoc@@MBEPBUAFX_MSGMAP@@XZ 00441920 f   IBADoc.obj
 0001:00040930       ??0CIBADoc@@IAE@XZ         00441930 f   IBADoc.obj
 0001:00040950       ??_GCIBADoc@@UAEPAXI@Z     00441950 f i IBADoc.obj
 0001:00040950       ??_ECIBADoc@@UAEPAXI@Z     00441950 f i IBADoc.obj
 0001:00040980       ??1CIBADoc@@UAE@XZ         00441980 f   IBADoc.obj
 0001:000409a0       ?OnNewDocument@CIBADoc@@UAEHXZ 004419a0 f   IBADoc.obj
 0001:000409c0       ?Serialize@CIBADoc@@UAEXAAVCArchive@@@Z 004419c0 f   IBADoc.obj
 0001:00040a40       ?SetTitle@CIBADoc@@UAEXPB_W@Z 00441a40 f   IBADoc.obj
 0001:00040ab0       ??0CIBAFormView@@IAE@I@Z   00441ab0 f   IBAFormView.obj
 0001:00040b60       ??_GCIBAFormView@@MAEPAXI@Z 00441b60 f i IBAFormView.obj
 0001:00040b60       ??_ECIBAFormView@@MAEPAXI@Z 00441b60 f i IBAFormView.obj
 0001:00040b90       ??1?$CStringLoaderView@VCBCGPFormView@@@@UAE@XZ 00441b90 f i IBAFormView.obj
 0001:00040c00       ??1CIBAFormView@@MAE@XZ    00441c00 f   IBAFormView.obj
 0001:00040c80       ?GetThisMessageMap@CIBAFormView@@KGPBUAFX_MSGMAP@@XZ 00441c80 f   IBAFormView.obj
 0001:00040c90       ?GetMessageMap@CIBAFormView@@MBEPBUAFX_MSGMAP@@XZ 00441c90 f   IBAFormView.obj
 0001:00040ca0       ?OnInitialUpdate@CIBAFormView@@UAEXXZ 00441ca0 f   IBAFormView.obj
 0001:00040d60       ?SetToolTipPos@CIBAFormView@@IAEXI@Z 00441d60 f   IBAFormView.obj
 0001:00040d90       ?ShowToolTip@CIBAFormView@@IAEXIH@Z 00441d90 f   IBAFormView.obj
 0001:00040e10       ?ShowToolTip@CIBAFormView@@IAEXV?$CStringT@_WV?$StrTraitMFC_DLL@_WV?$ChTraitsCRT@_W@ATL@@@@@ATL@@H@Z 00441e10 f   IBAFormView.obj
 0001:00040f30       ?SetEditFont@CIBAFormView@@IAEXXZ 00441f30 f   IBAFormView.obj
 0001:00040f30       ?SetEditFont@CIBADialog@@IAEXXZ 00441f30 f   IBADialog.obj
 0001:00041000       ?PreTranslateMessage@CIBAFormView@@UAEHPAUtagMSG@@@Z 00442000 f   IBAFormView.obj
 0001:00041030       ?OnKillFocus@CIBAFormView@@IAEXPAVCWnd@@@Z 00442030 f   IBAFormView.obj
 0001:00041060       ??0?$CStringLoaderView@VCBCGPFormView@@@@IAE@I@Z 00442060 f i IBAFormView.obj
 0001:000410e0       ??_G?$CStringLoaderView@VCBCGPFormView@@@@UAEPAXI@Z 004420e0 f i IBAFormView.obj
 0001:000410e0       ??_E?$CStringLoaderView@VCBCGPFormView@@@@UAEPAXI@Z 004420e0 f i IBAFormView.obj
 0001:00041110       ?IsCtrlPressed@CIBAHelpper@@SAHXZ 00442110 f   IBAHelpper.obj
 0001:00041130       ?IsAltPressed@CIBAHelpper@@SAHXZ 00442130 f   IBAHelpper.obj
 0001:00041150       ?AddEnvironmentVariable@CIBAHelpper@@SAXPB_W@Z 00442150 f   IBAHelpper.obj
 0001:00041210       ?CenterTimeToOleDateTime@CIBAHelpper@@SA?AVCOleDateTime@ATL@@V?$CStringT@_WV?$StrTraitMFC_DLL@_WV?$ChTraitsCRT@_W@ATL@@@@@3@@Z 00442210 f   IBAHelpper.obj
 0001:000413d0       ?FormatCenterTime@CIBAHelpper@@SA?AV?$CStringT@_WV?$StrTraitMFC_DLL@_WV?$ChTraitsCRT@_W@ATL@@@@@ATL@@V23@@Z 004423d0 f   IBAHelpper.obj
 0001:000415b0       ?MakeSurePathExists@CIBAHelpper@@SAHPB_W@Z 004425b0 f   IBAHelpper.obj
 0001:000415f0       ?ReadFile@CIBAHelpper@@SAHV?$CStringT@_WV?$StrTraitMFC_DLL@_WV?$ChTraitsCRT@_W@ATL@@@@@ATL@@AAV23@@Z 004425f0 f   IBAHelpper.obj
 0001:00041730       ?WriteFile@CIBAHelpper@@SAHV?$CStringT@_WV?$StrTraitMFC_DLL@_WV?$ChTraitsCRT@_W@ATL@@@@@ATL@@AAV23@@Z 00442730 f   IBAHelpper.obj
 0001:00041860       ?AppendWriteFile@CIBAHelpper@@SAHV?$CStringT@_WV?$StrTraitMFC_DLL@_WV?$ChTraitsCRT@_W@ATL@@@@@ATL@@AAV23@@Z 00442860 f   IBAHelpper.obj
 0001:000419c0       ?SeekToEnd@CFile@@QAE_KXZ  004429c0 f i IBAHelpper.obj
 0001:000419e0       ?SplitLine@CIBAHelpper@@SAXAAV?$CStringT@_WV?$StrTraitMFC_DLL@_WV?$ChTraitsCRT@_W@ATL@@@@@ATL@@AAVCStringArray@@_W@Z 004429e0 f   IBAHelpper.obj
 0001:00041b70       ?RemoveAll@CStringArray@@QAEXXZ 00442b70 f i IBAHelpper.obj
 0001:00041b90       ?Add@CStringArray@@QAEHABV?$CStringT@_WV?$StrTraitMFC_DLL@_WV?$ChTraitsCRT@_W@ATL@@@@@ATL@@@Z 00442b90 f i IBAHelpper.obj
 0001:00041bc0       ?CreateFontW@CIBAHelpper@@SAXAAVCFont@@JJH@Z 00442bc0 f   IBAHelpper.obj
 0001:00041c40       ?CreateStockObject@CGdiObject@@QAEHH@Z 00442c40 f i IBAHelpper.obj
 0001:00041c70       ?CreateFontIndirectW@CFont@@QAEHPBUtagLOGFONTW@@@Z 00442c70 f i IBAHelpper.obj
 0001:00041c90       ?CreateFontW@CIBAHelpper@@SAXAAVCFont@@@Z 00442c90 f   IBAHelpper.obj
 0001:00041cf0       ?GetFontType@CIBAConfig@@QBEIXZ 00442cf0 f i IBAHelpper.obj
 0001:00041d10       ?GetIPAndMAC@CIBAHelpper@@SAHAAV?$CStringT@_WV?$StrTraitMFC_DLL@_WV?$ChTraitsCRT@_W@ATL@@@@@ATL@@0@Z 00442d10 f   IBAHelpper.obj
 0001:000420f0       ?PutTextToClipboard@CIBAHelpper@@SAHPB_W@Z 004430f0 f   IBAHelpper.obj
 0001:00042190       ?AdjustPrivileges@CIBAHelpper@@SAHPB_W@Z 00443190 f   IBAHelpper.obj
 0001:00042240       ?SyncLocalTime@CIBAHelpper@@SAHVCOleDateTime@ATL@@@Z 00443240 f   IBAHelpper.obj
 0001:000422a0       ?GetCurrentTimeAsString@CIBAHelpper@@SA?AV?$CStringT@_WV?$StrTraitMFC_DLL@_WV?$ChTraitsCRT@_W@ATL@@@@@ATL@@H@Z 004432a0 f   IBAHelpper.obj
 0001:000423a0       ?IsValidTime@CIBAHelpper@@SAHVCOleDateTime@ATL@@@Z 004433a0 f   IBAHelpper.obj
 0001:000423e0       ?FormatTime@CIBAHelpper@@SA?AV?$CStringT@_WV?$StrTraitMFC_DLL@_WV?$ChTraitsCRT@_W@ATL@@@@@ATL@@VCOleDateTime@3@@Z 004433e0 f   IBAHelpper.obj
 0001:00042450       ?FillString@CIBAHelpper@@SAXAAV?$CStringT@_WV?$StrTraitMFC_DLL@_WV?$ChTraitsCRT@_W@ATL@@@@@ATL@@I_W@Z 00443450 f   IBAHelpper.obj
 0001:000424f0       ?AppendString@CIBAHelpper@@SAXAAV?$CStringT@_WV?$StrTraitMFC_DLL@_WV?$ChTraitsCRT@_W@ATL@@@@@ATL@@V23@I@Z 004434f0 f   IBAHelpper.obj
 0001:00042570       ?AppendString@CIBAHelpper@@SAXAAV?$CStringT@_WV?$StrTraitMFC_DLL@_WV?$ChTraitsCRT@_W@ATL@@@@@ATL@@II@Z 00443570 f   IBAHelpper.obj
 0001:00042600       ?RoundMoney@CIBAHelpper@@SAIII@Z 00443600 f   IBAHelpper.obj
 0001:000426c0       ?GetSexAsString@CIBAHelpper@@SA?AV?$CStringT@_WV?$StrTraitMFC_DLL@_WV?$ChTraitsCRT@_W@ATL@@@@@ATL@@I@Z 004436c0 f   IBAHelpper.obj
 0001:00042750       ?WaitFor@CIBAHelpper@@SAXK@Z 00443750 f   IBAHelpper.obj
 0001:000427b0       ?TranformTime@CIBAHelpper@@SA?AV?$CStringT@_WV?$StrTraitMFC_DLL@_WV?$ChTraitsCRT@_W@ATL@@@@@ATL@@V23@@Z 004437b0 f   IBAHelpper.obj
 0001:00042870       ?EncodePassword@CIBAHelpper@@SA?AV?$CStringT@_WV?$StrTraitMFC_DLL@_WV?$ChTraitsCRT@_W@ATL@@@@@ATL@@V23@_N@Z 00443870 f   IBAHelpper.obj
 0001:00042960       ?FormatNetId@CIBAHelpper@@SA?AV?$CStringT@_WV?$StrTraitMFC_DLL@_WV?$ChTraitsCRT@_W@ATL@@@@@ATL@@ABV23@@Z 00443960 f   IBAHelpper.obj
 0001:00042a50       ?DecT2Int@CIBAHelpper@@SAHPB_WH@Z 00443a50 f   IBAHelpper.obj
 0001:00042c00       ?EnumChildProcHX@CIBAHelpper@@SGHPAUHWND__@@J@Z 00443c00 f   IBAHelpper.obj
 0001:00042d50       ?AutoHXPayout@CIBAHelpper@@SAHPB_W@Z 00443d50 f   IBAHelpper.obj
 0001:00042ed0       ?MsgBox@CIBAHelpper@@SAHPAVCWnd@@IIPB_W@Z 00443ed0 f   IBAHelpper.obj
 0001:00042f50       ?MsgBox@CIBAHelpper@@SAHPAVCWnd@@PB_WI1@Z 00443f50 f   IBAHelpper.obj
 0001:00043020       ?MsgBoxFormat@CIBAHelpper@@SAHPAVCWnd@@IIZZ 00444020 f   IBAHelpper.obj
 0001:000430e0       ?GetZcImgPath@CIBAHelpper@@SA?AV?$CStringT@_WV?$StrTraitMFC_DLL@_WV?$ChTraitsCRT@_W@ATL@@@@@ATL@@XZ 004440e0 f   IBAHelpper.obj
 0001:000433e0       ?GetZjImgPath@CIBAHelpper@@SA?AV?$CStringT@_WV?$StrTraitMFC_DLL@_WV?$ChTraitsCRT@_W@ATL@@@@@ATL@@XZ 004443e0 f   IBAHelpper.obj
 0001:000436e0       ?GetUserZcImgPath@CIBAHelpper@@SA?AV?$CStringT@_WV?$StrTraitMFC_DLL@_WV?$ChTraitsCRT@_W@ATL@@@@@ATL@@HABV23@@Z 004446e0 f   IBAHelpper.obj
 0001:000439a0       ?GetUserZcImgFilePath@CIBAHelpper@@SA?AV?$CStringT@_WV?$StrTraitMFC_DLL@_WV?$ChTraitsCRT@_W@ATL@@@@@ATL@@HABV23@@Z 004449a0 f   IBAHelpper.obj
 0001:00043a70       ?GetUserZjImgPath@CIBAHelpper@@SA?AV?$CStringT@_WV?$StrTraitMFC_DLL@_WV?$ChTraitsCRT@_W@ATL@@@@@ATL@@HABV23@@Z 00444a70 f   IBAHelpper.obj
 0001:00043d30       ?GetUserZjImgFilePath@CIBAHelpper@@SA?AV?$CStringT@_WV?$StrTraitMFC_DLL@_WV?$ChTraitsCRT@_W@ATL@@@@@ATL@@HABV23@@Z 00444d30 f   IBAHelpper.obj
 0001:00043e00       ?TakePhoto@CIBAHelpper@@SA_NPB_W0@Z 00444e00 f   IBAHelpper.obj
 0001:00043f60       ?IsInsideVPC@CIBAHelpper@@SA_NXZ 00444f60 f   IBAHelpper.obj
 0001:00043fe0       ?IsInsideVPC_exceptionFilter@CIBAHelpper@@SAKPAU_EXCEPTION_POINTERS@@@Z 00444fe0 f i IBAHelpper.obj
 0001:00044020       ?IsInsideVMWare@CIBAHelpper@@SA_NXZ 00445020 f   IBAHelpper.obj
 0001:000440b0       ?IsVirMach@CIBAHelpper@@SA_NXZ 004450b0 f   IBAHelpper.obj
 0001:000440e0       ?GetSelfDefineResource@CIBAHelpper@@SAHPAUHINSTANCE__@@HPB_WPAXPAJ@Z 004450e0 f   IBAHelpper.obj
 0001:000441a0       ?StringToOleDateTime@CIBAHelpper@@SA?AVCOleDateTime@ATL@@V?$CStringT@_WV?$StrTraitMFC_DLL@_WV?$ChTraitsCRT@_W@ATL@@@@@3@@Z 004451a0 f   IBAHelpper.obj
 0001:00044340       ?LoadIconW@CWinApp@@QBEPAUHICON__@@I@Z 00445340 f i IBAHelpper.obj
 0001:00044370       ?CalcLocalCreditCheckCode@CIBAHelpper@@SA?AV?$CStringT@_WV?$StrTraitMFC_DLL@_WV?$ChTraitsCRT@_W@ATL@@@@@ATL@@IPB_WI@Z 00445370 f   IBAHelpper.obj
 0001:00044440       ?WriteRegisterIsFN@CIBAHelpper@@SAXH@Z 00445440 f   IBAHelpper.obj
 0001:00044520       ?ReadUtf8File@CIBAHelpper@@SAHV?$CStringT@_WV?$StrTraitMFC_DLL@_WV?$ChTraitsCRT@_W@ATL@@@@@ATL@@AAV23@@Z 00445520 f   IBAHelpper.obj
 0001:00044670       ?Utf8_to_WideChar@CIBAHelpper@@SA?AV?$basic_string@_WU?$char_traits@_W@std@@V?$allocator@_W@2@@std@@AAV?$basic_string@DU?$char_traits@D@std@@V?$allocator@D@2@@3@@Z 00445670 f   IBAHelpper.obj
 0001:00044790       ?GenQrRequestParam@CIBAHelpper@@SA?AV?$CStringT@_WV?$StrTraitMFC_DLL@_WV?$ChTraitsCRT@_W@ATL@@@@@ATL@@PBV23@0IIII@Z 00445790 f   IBAHelpper.obj
 0001:00045680       ?create@GxxDictionary@@SA?AV?$GxxAutoPtr@VGxxDictionary@@@@XZ 00446680 f i IBAHelpper.obj
 0001:00045740       ??0GxxDictionary@@IAE@XZ   00446740 f i IBAHelpper.obj
 0001:000457a0       ??_GGxxDictionary@@UAEPAXI@Z 004467a0 f i IBAHelpper.obj
 0001:000457a0       ??_EGxxDictionary@@UAEPAXI@Z 004467a0 f i IBAHelpper.obj
 0001:000457d0       ??1GxxDictionary@@UAE@XZ   004467d0 f i IBAHelpper.obj
 0001:00045820       ?GetQrData@CIBAHelpper@@SAHPBV?$CStringT@_WV?$StrTraitMFC_DLL@_WV?$ChTraitsCRT@_W@ATL@@@@@ATL@@PAV23@PAI@Z 00446820 f   IBAHelpper.obj
 0001:00045ce0       ?MaskNetID@CIBAHelpper@@SA?AV?$CStringT@_WV?$StrTraitMFC_DLL@_WV?$ChTraitsCRT@_W@ATL@@@@@ATL@@PBV23@@Z 00446ce0 f   IBAHelpper.obj
 0001:00045e80       ?ToHex@CIBAHelpper@@SAEE@Z 00446e80 f   IBAHelpper.obj
 0001:00045eb0       ?UrlEncode@CIBAHelpper@@SA?AV?$basic_string@DU?$char_traits@D@std@@V?$allocator@D@2@@std@@ABV23@@Z 00446eb0 f   IBAHelpper.obj
 0001:00046070       ??8ATL@@YA_NABV?$CStringT@_WV?$StrTraitMFC_DLL@_WV?$ChTraitsCRT@_W@ATL@@@@@0@PBD@Z 00447070 f i IBAHelpper.obj
 0001:000460b0       ??9ATL@@YA_NABV?$CStringT@_WV?$StrTraitMFC_DLL@_WV?$ChTraitsCRT@_W@ATL@@@@@0@PB_W@Z 004470b0 f i IBAHelpper.obj
 0001:000460d0       ??0?$vector@HV?$allocator@H@std@@@std@@QAE@XZ 004470d0 f i IBAHelpper.obj
 0001:00046100       ??1?$GxxAutoPtr@VGxxString@@@@QAE@XZ 00447100 f i gxx_base.obj
 0001:00046100       ??1?$GxxAutoPtr@VGxxArray@@@@QAE@XZ 00447100 f i BrokenNetwork.obj
 0001:00046100       ??1?$GxxAutoPtr@VGxxValueMap@@@@QAE@XZ 00447100 f i IBAHelpper.obj
 0001:00046100       ??1?$GxxAutoPtr@VGxxValue@@@@QAE@XZ 00447100 f i IBAHelpper.obj
 0001:00046100       ??1?$GxxAutoPtr@VGxxDictionary@@@@QAE@XZ 00447100 f i GlobalFunctions.obj
 0001:00046100       ??1?$GxxAutoPtr@VGxxObject@@@@QAE@XZ 00447100 f i gxx_base.obj
 0001:00046120       ?pow@@YANHH@Z              00447120 f i IBAHelpper.obj
 0001:00046140       ??0?$CA2WEX@$0IAA@@ATL@@QAE@PBD@Z 00447140 f i IBAHelpper.obj
 0001:00046170       ??0?$CW2AEX@$0IAA@@ATL@@QAE@PB_W@Z 00447170 f i IBAHelpper.obj
 0001:000461a0       ??0?$CGxxString@_W@G2XUtility@@QAE@PB_W@Z 004471a0 f i IBAHelpper.obj
 0001:000461d0       ??1?$CGxxString@_W@G2XUtility@@UAE@XZ 004471d0 f i IBAHelpper.obj
 0001:00046210       ?IsEmpty@?$CGxxString@_W@G2XUtility@@QBE_NXZ 00447210 f i IBAHelpper.obj
 0001:00046230       ?Replace@?$CGxxString@_W@G2XUtility@@QAEAAV12@_W0@Z 00447230 f i IBAHelpper.obj
 0001:000462f0       ?Split@?$CGxxString@_W@G2XUtility@@QAEHPB_WAAV?$vector@HV?$allocator@H@std@@@std@@@Z 004472f0 f i IBAHelpper.obj
 0001:000463a0       ??_E?$CGxxString@_W@G2XUtility@@UAEPAXI@Z 004473a0 f i IBAHelpper.obj
 0001:000463a0       ??_G?$CGxxString@_W@G2XUtility@@UAEPAXI@Z 004473a0 f i IBAHelpper.obj
 0001:000463d0       ?push_back@?$vector@HV?$allocator@H@std@@@std@@QAEXABH@Z 004473d0 f i IBAHelpper.obj
 0001:00046440       ?_Buy@?$vector@HV?$allocator@H@std@@@std@@IAE_NI@Z 00447440 f i IBAHelpper.obj
 0001:000464c0       ?Init@?$CA2WEX@$0IAA@@ATL@@AAEXPBDI@Z 004474c0 f i IBAHelpper.obj
 0001:00046550       ?Init@?$CW2AEX@$0IAA@@ATL@@AAEXPB_WI@Z 00447550 f i IBAHelpper.obj
 0001:000465e0       ?Append@?$CGxxString@_W@G2XUtility@@QAEXPB_W@Z 004475e0 f i IBAHelpper.obj
 0001:00046600       ?Split@?$CGxxString@_W@G2XUtility@@QAEHPB_WAAV?$vector@V?$CGxxString@_W@G2XUtility@@V?$allocator@V?$CGxxString@_W@G2XUtility@@@std@@@std@@@Z 00447600 f i IBAHelpper.obj
 0001:000467f0       ?ParseInt@?$CGxxString@_W@G2XUtility@@QAEHXZ 004477f0 f i IBAHelpper.obj
 0001:00046830       ?_init@?$CGxxString@_W@G2XUtility@@IAEXI@Z 00447830 f i IBAHelpper.obj
 0001:00046880       ??0?$vector@V?$CGxxString@_W@G2XUtility@@V?$allocator@V?$CGxxString@_W@G2XUtility@@@std@@@std@@QAE@XZ 00447880 f i IBAHelpper.obj
 0001:000468b0       ?size@?$vector@V?$CGxxString@_W@G2XUtility@@V?$allocator@V?$CGxxString@_W@G2XUtility@@@std@@@std@@QBEIXZ 004478b0 f i IBAHelpper.obj
 0001:000468b0       ?size@?$vector@UOperationInfo@CWxMiddlewareImpl@@V?$allocator@UOperationInfo@CWxMiddlewareImpl@@@std@@@std@@QBEIXZ 004478b0 f i WxMiddlewareImpl.obj
 0001:000468b0       ?size@?$vector@V?$vector@USubItemStruct@CGxxListCtrl@NS_COMMON@@V?$allocator@USubItemStruct@CGxxListCtrl@NS_COMMON@@@std@@@std@@V?$allocator@V?$vector@USubItemStruct@CGxxListCtrl@NS_COMMON@@V?$allocator@USubItemStruct@CGxxListCtrl@NS_COMMON@@@std@@@std@@@2@@std@@QBEIXZ 004478b0 f i GxxListCtrl.obj
 0001:000468f0       ??A?$vector@V?$vector@USubItemStruct@CGxxListCtrl@NS_COMMON@@V?$allocator@USubItemStruct@CGxxListCtrl@NS_COMMON@@@std@@@std@@V?$allocator@V?$vector@USubItemStruct@CGxxListCtrl@NS_COMMON@@V?$allocator@USubItemStruct@CGxxListCtrl@NS_COMMON@@@std@@@std@@@2@@std@@QAEAAV?$vector@USubItemStruct@CGxxListCtrl@NS_COMMON@@V?$allocator@USubItemStruct@CGxxListCtrl@NS_COMMON@@@std@@@1@I@Z 004478f0 f i GxxListCtrl.obj
 0001:000468f0       ??A?$vector@V?$CGxxString@_W@G2XUtility@@V?$allocator@V?$CGxxString@_W@G2XUtility@@@std@@@std@@QAEAAV?$CGxxString@_W@G2XUtility@@I@Z 004478f0 f i IBAHelpper.obj
 0001:00046930       ?insert@?$vector@HV?$allocator@H@std@@@std@@QAE?AViterator@12@V312@ABH@Z 00447930 f i IBAHelpper.obj
 0001:000469b0       ?_Destroy@?$vector@IV?$allocator@I@std@@@std@@IAEXPAI0@Z 004479b0 f i AddTerminalDlg.obj
 0001:000469b0       ?_Destroy@?$vector@PAUPair@GxxValueMap@@V?$allocator@PAUPair@GxxValueMap@@@std@@@std@@IAEXPAPAUPair@GxxValueMap@@0@Z 004479b0 f i gxx_base.obj
 0001:000469b0       ?_Destroy@?$vector@HV?$allocator@H@std@@@std@@IAEXPAH0@Z 004479b0 f i IBAHelpper.obj
 0001:000469b0       ?_Destroy@?$vector@DV?$allocator@D@std@@@std@@IAEXPAD0@Z 004479b0 f i base641.obj
 0001:000469e0       ?_Ufill@?$vector@PAUPair@GxxValueMap@@V?$allocator@PAUPair@GxxValueMap@@@std@@@std@@IAEPAPAUPair@GxxValueMap@@PAPAU34@IABQAU34@@Z 004479e0 f i gxx_base.obj
 0001:000469e0       ?_Ufill@?$vector@HV?$allocator@H@std@@@std@@IAEPAHPAHIABH@Z 004479e0 f i IBAHelpper.obj
 0001:00046a10       ?init@GxxObject@@MAE_NXZ   00447a10 f i IBADAL.obj
 0001:00046a10       ?IsWideCharCode@?$CGxxString@_W@G2XUtility@@QAE_NXZ 00447a10 f i IBAHelpper.obj
 0001:00046a20       ?GetLength@?$CGxxString@_W@G2XUtility@@QBEHPB_W@Z 00447a20 f i IBAHelpper.obj
 0001:00046a60       ?Append@?$CGxxString@_W@G2XUtility@@QAEXPB_WH@Z 00447a60 f i IBAHelpper.obj
 0001:00046b00       ?Mid@?$CGxxString@_W@G2XUtility@@QAE?AV12@HI@Z 00447b00 f i IBAHelpper.obj
 0001:00046bf0       ?FindString@?$CGxxString@_W@G2XUtility@@QAEHPB_WH@Z 00447bf0 f i IBAHelpper.obj
 0001:00046ca0       ?push_back@?$vector@V?$CGxxString@_W@G2XUtility@@V?$allocator@V?$CGxxString@_W@G2XUtility@@@std@@@std@@QAEXABV?$CGxxString@_W@G2XUtility@@@Z 00447ca0 f i IBAHelpper.obj
 0001:00046d10       ?clear@?$vector@V?$CGxxString@_W@G2XUtility@@V?$allocator@V?$CGxxString@_W@G2XUtility@@@std@@@std@@QAEXXZ 00447d10 f i IBAHelpper.obj
 0001:00046d10       ??1?$vector@V?$CGxxString@_W@G2XUtility@@V?$allocator@V?$CGxxString@_W@G2XUtility@@@std@@@std@@QAE@XZ 00447d10 f i IBAHelpper.obj
 0001:00046d30       ?_Buy@?$vector@V?$CGxxString@_W@G2XUtility@@V?$allocator@V?$CGxxString@_W@G2XUtility@@@std@@@std@@IAE_NI@Z 00447d30 f i IBAHelpper.obj
 0001:00046db0       ?_Tidy@?$vector@V?$CGxxString@_W@G2XUtility@@V?$allocator@V?$CGxxString@_W@G2XUtility@@@std@@@std@@IAEXXZ 00447db0 f i IBAHelpper.obj
 0001:00046e20       ?_Insert_n@?$vector@HV?$allocator@H@std@@@std@@IAEXViterator@12@IABH@Z 00447e20 f i IBAHelpper.obj
 0001:00047140       ??0?$CGxxString@_W@G2XUtility@@QAE@ABV01@@Z 00448140 f i IBAHelpper.obj
 0001:00047180       ?ReAllocate@?$CGxxString@_W@G2XUtility@@QAE_NI_N@Z 00448180 f i IBAHelpper.obj
 0001:00047250       ?capacity@?$vector@V?$vector@USubItemStruct@CGxxListCtrl@NS_COMMON@@V?$allocator@USubItemStruct@CGxxListCtrl@NS_COMMON@@@std@@@std@@V?$allocator@V?$vector@USubItemStruct@CGxxListCtrl@NS_COMMON@@V?$allocator@USubItemStruct@CGxxListCtrl@NS_COMMON@@@std@@@std@@@2@@std@@QBEIXZ 00448250 f i GxxListCtrl.obj
 0001:00047250       ?capacity@?$vector@V?$CGxxString@_W@G2XUtility@@V?$allocator@V?$CGxxString@_W@G2XUtility@@@std@@@std@@QBEIXZ 00448250 f i IBAHelpper.obj
 0001:00047250       ?capacity@?$vector@UOperationInfo@CWxMiddlewareImpl@@V?$allocator@UOperationInfo@CWxMiddlewareImpl@@@std@@@std@@QBEIXZ 00448250 f i WxMiddlewareImpl.obj
 0001:00047290       ?insert@?$vector@V?$CGxxString@_W@G2XUtility@@V?$allocator@V?$CGxxString@_W@G2XUtility@@@std@@@std@@QAE?AViterator@12@V312@ABV?$CGxxString@_W@G2XUtility@@@Z 00448290 f i IBAHelpper.obj
 0001:00047310       ?_Destroy@?$vector@V?$CGxxString@_W@G2XUtility@@V?$allocator@V?$CGxxString@_W@G2XUtility@@@std@@@std@@IAEXPAV?$CGxxString@_W@G2XUtility@@0@Z 00448310 f i IBAHelpper.obj
 0001:00047340       ?_Ufill@?$vector@V?$CGxxString@_W@G2XUtility@@V?$allocator@V?$CGxxString@_W@G2XUtility@@@std@@@std@@IAEPAV?$CGxxString@_W@G2XUtility@@PAV34@IABV34@@Z 00448340 f i IBAHelpper.obj
 0001:00047370       ?_Xlen@?$vector@V?$CGxxString@_W@G2XUtility@@V?$allocator@V?$CGxxString@_W@G2XUtility@@@std@@@std@@IBEXXZ 00448370 f i IBAHelpper.obj
 0001:00047370       ?_Xlen@?$vector@HV?$allocator@H@std@@@std@@IBEXXZ 00448370 f i IBAHelpper.obj
 0001:000473d0       ?Append@?$CGxxString@_W@G2XUtility@@QAEXABV12@@Z 004483d0 f i IBAHelpper.obj
 0001:000473f0       ?_Insert_n@?$vector@V?$CGxxString@_W@G2XUtility@@V?$allocator@V?$CGxxString@_W@G2XUtility@@@std@@@std@@IAEXViterator@12@IABV?$CGxxString@_W@G2XUtility@@@Z 004483f0 f i IBAHelpper.obj
 0001:00047720       ?max_size@?$allocator@V?$vector@USubItemStruct@CGxxListCtrl@NS_COMMON@@V?$allocator@USubItemStruct@CGxxListCtrl@NS_COMMON@@@std@@@std@@@std@@QBEIXZ 00448720 f i GxxListCtrl.obj
 0001:00047720       ?max_size@?$allocator@UOperationInfo@CWxMiddlewareImpl@@@std@@QBEIXZ 00448720 f i WxMiddlewareImpl.obj
 0001:00047720       ?max_size@?$allocator@V?$CGxxString@_W@G2XUtility@@@std@@QBEIXZ 00448720 f i IBAHelpper.obj
 0001:00047750       ??Giterator@?$vector@UOperationInfo@CWxMiddlewareImpl@@V?$allocator@UOperationInfo@CWxMiddlewareImpl@@@std@@@std@@QBEHABVconst_iterator@12@@Z 00448750 f i WxMiddlewareImpl.obj
 0001:00047750       ??Giterator@?$vector@V?$vector@USubItemStruct@CGxxListCtrl@NS_COMMON@@V?$allocator@USubItemStruct@CGxxListCtrl@NS_COMMON@@@std@@@std@@V?$allocator@V?$vector@USubItemStruct@CGxxListCtrl@NS_COMMON@@V?$allocator@USubItemStruct@CGxxListCtrl@NS_COMMON@@@std@@@std@@@2@@std@@QBEHABVconst_iterator@12@@Z 00448750 f i GxxListCtrl.obj
 0001:00047750       ??Giterator@?$vector@V?$CGxxString@_W@G2XUtility@@V?$allocator@V?$CGxxString@_W@G2XUtility@@@std@@@std@@QBEHABVconst_iterator@12@@Z 00448750 f i IBAHelpper.obj
 0001:00047780       ??Gconst_iterator@?$vector@V?$CGxxString@_W@G2XUtility@@V?$allocator@V?$CGxxString@_W@G2XUtility@@@std@@@std@@QBEHABV012@@Z 00448780 f i IBAHelpper.obj
 0001:00047780       ??Gconst_iterator@?$vector@UOperationInfo@CWxMiddlewareImpl@@V?$allocator@UOperationInfo@CWxMiddlewareImpl@@@std@@@std@@QBEHABV012@@Z 00448780 f i WxMiddlewareImpl.obj
 0001:00047780       ??Gconst_iterator@?$vector@V?$vector@USubItemStruct@CGxxListCtrl@NS_COMMON@@V?$allocator@USubItemStruct@CGxxListCtrl@NS_COMMON@@@std@@@std@@V?$allocator@V?$vector@USubItemStruct@CGxxListCtrl@NS_COMMON@@V?$allocator@USubItemStruct@CGxxListCtrl@NS_COMMON@@@std@@@std@@@2@@std@@QBEHABV012@@Z 00448780 f i GxxListCtrl.obj
 0001:000477a0       ??$_Ucopy@PAPAUPair@GxxValueMap@@@?$vector@PAUPair@GxxValueMap@@V?$allocator@PAUPair@GxxValueMap@@@std@@@std@@IAEPAPAUPair@GxxValueMap@@PAPAU23@00@Z 004487a0 f i gxx_base.obj
 0001:000477a0       ??$_Ucopy@PAH@?$vector@HV?$allocator@H@std@@@std@@IAEPAHPAH00@Z 004487a0 f i IBAHelpper.obj
 0001:000477d0       ??$fill@PAPAUPair@GxxValueMap@@PAU12@@std@@YAXPAPAUPair@GxxValueMap@@0ABQAU12@@Z 004487d0 f i gxx_base.obj
 0001:000477d0       ??$fill@PAHH@std@@YAXPAH0ABH@Z 004487d0 f i IBAHelpper.obj
 0001:00047800       ??$_Destroy_range@V?$CGxxString@_W@G2XUtility@@V?$allocator@V?$CGxxString@_W@G2XUtility@@@std@@@std@@YAXPAV?$CGxxString@_W@G2XUtility@@0AAV?$allocator@V?$CGxxString@_W@G2XUtility@@@0@@Z 00448800 f i IBAHelpper.obj
 0001:00047840       ??$_Uninitialized_fill_n@PAV?$CGxxString@_W@G2XUtility@@IV12@V?$allocator@V?$CGxxString@_W@G2XUtility@@@std@@@std@@YAXPAV?$CGxxString@_W@G2XUtility@@IABV12@AAV?$allocator@V?$CGxxString@_W@G2XUtility@@@0@@Z 00448840 f i IBAHelpper.obj
 0001:00047880       ??$_Ucopy@PAV?$CGxxString@_W@G2XUtility@@@?$vector@V?$CGxxString@_W@G2XUtility@@V?$allocator@V?$CGxxString@_W@G2XUtility@@@std@@@std@@IAEPAV?$CGxxString@_W@G2XUtility@@PAV23@00@Z 00448880 f i IBAHelpper.obj
 0001:000478b0       ??$fill@PAV?$CGxxString@_W@G2XUtility@@V12@@std@@YAXPAV?$CGxxString@_W@G2XUtility@@0ABV12@@Z 004488b0 f i IBAHelpper.obj
 0001:000478e0       ??$copy_backward@PAV?$CGxxString@_W@G2XUtility@@PAV12@@std@@YAPAV?$CGxxString@_W@G2XUtility@@PAV12@00@Z 004488e0 f i IBAHelpper.obj
 0001:00047920       ??4?$CGxxString@_W@G2XUtility@@QAEAAV01@ABV01@@Z 00448920 f i IBAHelpper.obj
 0001:00047950       ?SetAppendAt@?$CGxxString@_W@G2XUtility@@QAEXH@Z 00448950 f i IBAHelpper.obj
 0001:00047980       ??$_Uninit_fill_n@PAUPair@GxxValueMap@@IPAU12@@std@@YAXPAPAUPair@GxxValueMap@@IABQAU12@AAV?$allocator@PAUPair@GxxValueMap@@@0@U_Scalar_ptr_iterator_tag@0@@Z 00448980 f i gxx_base.obj
 0001:00047980       ??$_Uninit_fill_n@PAV?$CStringT@_WV?$StrTraitMFC_DLL@_WV?$ChTraitsCRT@_W@ATL@@@@@ATL@@IPAV12@@std@@YAXPAPAV?$CStringT@_WV?$StrTraitMFC_DLL@_WV?$ChTraitsCRT@_W@ATL@@@@@ATL@@IABQAV12@AAV?$allocator@PAV?$CStringT@_WV?$StrTraitMFC_DLL@_WV?$ChTraitsCRT@_W@ATL@@@@@ATL@@@0@U_Scalar_ptr_iterator_tag@0@@Z 00448980 f i StaticRollText.obj
 0001:00047980       ??$_Uninit_fill_n@HIH@std@@YAXPAHIABHAAV?$allocator@H@0@U_Scalar_ptr_iterator_tag@0@@Z 00448980 f i IBAHelpper.obj
 0001:000479a0       ??$_Destroy_range@V?$CGxxString@_W@G2XUtility@@V?$allocator@V?$CGxxString@_W@G2XUtility@@@std@@@std@@YAXPAV?$CGxxString@_W@G2XUtility@@0AAV?$allocator@V?$CGxxString@_W@G2XUtility@@@0@U_Nonscalar_ptr_iterator_tag@0@@Z 004489a0 f i IBAHelpper.obj
 0001:000479d0       ??$_Uninit_fill_n@PAV?$CGxxString@_W@G2XUtility@@IV12@V?$allocator@V?$CGxxString@_W@G2XUtility@@@std@@@std@@YAXPAV?$CGxxString@_W@G2XUtility@@IABV12@AAV?$allocator@V?$CGxxString@_W@G2XUtility@@@0@U_Nonscalar_ptr_iterator_tag@0@@Z 004489d0 f i IBAHelpper.obj
 0001:00047a70       ??$_Uninitialized_copy@PAV?$CGxxString@_W@G2XUtility@@PAV12@V?$allocator@V?$CGxxString@_W@G2XUtility@@@std@@@std@@YAPAV?$CGxxString@_W@G2XUtility@@PAV12@00AAV?$allocator@V?$CGxxString@_W@G2XUtility@@@0@@Z 00448a70 f i IBAHelpper.obj
 0001:00047ab0       ??$_Copy_backward_opt@PAV?$CGxxString@_W@G2XUtility@@PAV12@@std@@YAPAV?$CGxxString@_W@G2XUtility@@PAV12@00U_Nonscalar_ptr_iterator_tag@0@@Z 00448ab0 f i IBAHelpper.obj
 0001:00047ae0       ?construct@?$allocator@V?$CGxxString@_W@G2XUtility@@@std@@QAEXPAV?$CGxxString@_W@G2XUtility@@ABV34@@Z 00448ae0 f i IBAHelpper.obj
 0001:00047b00       ?destroy@?$allocator@V?$CGxxString@_W@G2XUtility@@@std@@QAEXPAV?$CGxxString@_W@G2XUtility@@@Z 00448b00 f i IBAHelpper.obj
 0001:00047b20       ??$_Uninit_copy@HH@std@@YAPAHPAH00AAV?$allocator@H@0@U_Scalar_ptr_iterator_tag@0@@Z 00448b20 f i IBAHelpper.obj
 0001:00047b20       ??$_Uninit_copy@PAV?$CStringT@_WV?$StrTraitMFC_DLL@_WV?$ChTraitsCRT@_W@ATL@@@@@ATL@@PAV12@@std@@YAPAPAV?$CStringT@_WV?$StrTraitMFC_DLL@_WV?$ChTraitsCRT@_W@ATL@@@@@ATL@@PAPAV12@00AAV?$allocator@PAV?$CStringT@_WV?$StrTraitMFC_DLL@_WV?$ChTraitsCRT@_W@ATL@@@@@ATL@@@0@U_Scalar_ptr_iterator_tag@0@@Z 00448b20 f i StaticRollText.obj
 0001:00047b20       ??$_Uninit_copy@PAUPair@GxxValueMap@@PAU12@@std@@YAPAPAUPair@GxxValueMap@@PAPAU12@00AAV?$allocator@PAUPair@GxxValueMap@@@0@U_Scalar_ptr_iterator_tag@0@@Z 00448b20 f i gxx_base.obj
 0001:00047b60       ??$_Uninit_copy@PAV?$CGxxString@_W@G2XUtility@@PAV12@V?$allocator@V?$CGxxString@_W@G2XUtility@@@std@@@std@@YAPAV?$CGxxString@_W@G2XUtility@@PAV12@00AAV?$allocator@V?$CGxxString@_W@G2XUtility@@@0@U_Nonscalar_ptr_iterator_tag@0@@Z 00448b60 f i IBAHelpper.obj
 0001:00047c10       ??$_Construct@V?$CGxxString@_W@G2XUtility@@V12@@std@@YAXPAV?$CGxxString@_W@G2XUtility@@ABV12@@Z 00448c10 f i IBAHelpper.obj
 0001:00047c80       ??$_Destroy@V?$CGxxString@_W@G2XUtility@@@std@@YAXPAV?$CGxxString@_W@G2XUtility@@@Z 00448c80 f i IBAHelpper.obj
 0001:00047ca0       ?DeleteSubKey@CRegKey@ATL@@QAEJPB_W@Z 00448ca0 f i IBAHelpper.obj
 0001:00047cc0       ?DeleteValue@CRegKey@ATL@@QAEJPB_W@Z 00448cc0 f i IBAHelpper.obj
 0001:00047ce0       ?Open@CRegKey@ATL@@QAEJPAUHKEY__@@PB_WK@Z 00448ce0 f i IBAHelpper.obj
 0001:00047d30       ?QueryDWORDValue@CRegKey@ATL@@QAEJPB_WAAK@Z 00448d30 f i IBAHelpper.obj
 0001:00047d90       ??8ATL@@YA_NABV?$CStringT@_WV?$StrTraitMFC_DLL@_WV?$ChTraitsCRT@_W@ATL@@@@@0@PB_W@Z 00448d90 f i IBAHelpper.obj
 0001:00047db0       ??$_Pow_int@H@@YAHHH@Z     00448db0 f i IBAHelpper.obj
 0001:00047e30       ?GetInstance@CIBALog@@SAPAV1@XZ 00448e30 f   IBALog.obj
 0001:00047f00       ??0CIBALog@@AAE@XZ         00448f00 f   IBALog.obj
 0001:00048000       ??_GCIBALog@@EAEPAXI@Z     00449000 f i IBALog.obj
 0001:00048000       ??_ECIBALog@@EAEPAXI@Z     00449000 f i IBALog.obj
 0001:00048030       ??1CIBALog@@EAE@XZ         00449030 f   IBALog.obj
 0001:00048080       ?WriteLogHead@CIBALog@@AAEXXZ 00449080 f   IBALog.obj
 0001:00048390       ?GetAppVer@CIBALog@@QBE?AV?$CStringT@_WV?$StrTraitMFC_DLL@_WV?$ChTraitsCRT@_W@ATL@@@@@ATL@@XZ 00449390 f   IBALog.obj
 0001:00048390       ?GetCheckData@CLocalConsumeInfo@NS_DAL@@QAE?BV?$CStringT@_WV?$StrTraitMFC_DLL@_WV?$ChTraitsCRT@_W@ATL@@@@@ATL@@XZ 00449390 f   IBADAL.obj
 0001:000483d0       ?GetPersonalID@CComputerInfo@@QBE?AV?$CStringT@_WV?$StrTraitMFC_DLL@_WV?$ChTraitsCRT@_W@ATL@@@@@ATL@@XZ 004493d0 f   ColorGridCtrl.obj
 0001:000483d0       ?GetAppBuildTime@CIBALog@@QBE?AV?$CStringT@_WV?$StrTraitMFC_DLL@_WV?$ChTraitsCRT@_W@ATL@@@@@ATL@@XZ 004493d0 f   IBALog.obj
 0001:00048410       ?GetRuntimeClass@CIBALoginDlg@@UBEPAUCRuntimeClass@@XZ 00449410 f   IBALoginDlg.obj
 0001:00048420       ??0CIBALoginDlg@@QAE@PAVCWnd@@@Z 00449420 f   IBALoginDlg.obj
 0001:00048530       ??_ECIBALoginDlg@@UAEPAXI@Z 00449530 f i IBALoginDlg.obj
 0001:00048530       ??_GCIBALoginDlg@@UAEPAXI@Z 00449530 f i IBALoginDlg.obj
 0001:00048560       ??1CIBALoginDlg@@UAE@XZ    00449560 f   IBALoginDlg.obj
 0001:00048640       ?DoDataExchange@CIBALoginDlg@@MAEXPAVCDataExchange@@@Z 00449640 f   IBALoginDlg.obj
 0001:000486f0       ?GetMessageMap@CIBALoginDlg@@MBEPBUAFX_MSGMAP@@XZ 004496f0 f   IBALoginDlg.obj
 0001:00048700       ?OnBnClickedOk@CIBALoginDlg@@IAEXXZ 00449700 f   IBALoginDlg.obj
 0001:00049040       ?SetName@CCashier@@QAEXV?$CStringT@_WV?$StrTraitMFC_DLL@_WV?$ChTraitsCRT@_W@ATL@@@@@ATL@@@Z 0044a040 f i IBALoginDlg.obj
 0001:000490a0       ?SetPassword@CCashier@@QAEXV?$CStringT@_WV?$StrTraitMFC_DLL@_WV?$ChTraitsCRT@_W@ATL@@@@@ATL@@@Z 0044a0a0 f i IBALoginDlg.obj
 0001:00049100       ?OnInitDialog@CIBALoginDlg@@MAEHXZ 0044a100 f   IBALoginDlg.obj
 0001:00049480       ?GetNetBarKey@CNetBarConfig@@QBE?AV?$CStringT@_WV?$StrTraitMFC_DLL@_WV?$ChTraitsCRT@_W@ATL@@@@@ATL@@XZ 0044a480 f i IBALoginDlg.obj
 0001:000494c0       ?GetEnmergencyVisible@CIBAConfig@@QBEHXZ 0044a4c0 f i IBALoginDlg.obj
 0001:000494e0       ??0CRgn@@QAE@XZ            0044a4e0 f i IBALoginDlg.obj
 0001:00049500       ??_GCRgn@@UAEPAXI@Z        0044a500 f i IBALoginDlg.obj
 0001:00049500       ??_ECRgn@@UAEPAXI@Z        0044a500 f i IBALoginDlg.obj
 0001:00049530       ??1CRgn@@UAE@XZ            0044a530 f i IBALoginDlg.obj
 0001:00049550       ?CreateRoundRectRgn@CRgn@@QAEHHHHHHH@Z 0044a550 f i IBALoginDlg.obj
 0001:00049590       ?SetWindowRgn@CWnd@@QAEHPAUHRGN__@@H@Z 0044a590 f i IBALoginDlg.obj
 0001:000495c0       ?OnCancel@CIBALoginDlg@@MAEXXZ 0044a5c0 f   IBALoginDlg.obj
 0001:00049680       ?InitOperatorsCombo@CIBALoginDlg@@AAEXXZ 0044a680 f   IBALoginDlg.obj
 0001:00049820       ?CheckInput@CIBALoginDlg@@AAEHAAV?$CStringT@_WV?$StrTraitMFC_DLL@_WV?$ChTraitsCRT@_W@ATL@@@@@ATL@@@Z 0044a820 f   IBALoginDlg.obj
 0001:000498b0       ?OnBnClickedButtonSet@CIBALoginDlg@@IAEXXZ 0044a8b0 f   IBALoginDlg.obj
 0001:00049970       ?OnEraseBkgnd@CIBALoginDlg@@IAEHPAVCDC@@@Z 0044a970 f   IBALoginDlg.obj
 0001:00049a10       ?OnLButtonDown@CIBALoginDlg@@IAEXIVCPoint@@@Z 0044aa10 f   IBALoginDlg.obj
 0001:00049a70       ?LoadImageW@CIBALoginDlg@@AAEXXZ 0044aa70 f   IBALoginDlg.obj
 0001:00049c80       ?OnBnClickedButtonEnmergency@CIBALoginDlg@@IAEXXZ 0044ac80 f   IBALoginDlg.obj
 0001:00049d00       ?SetLoginType@CIBALoginDlg@@QAEXI@Z 0044ad00 f   IBALoginDlg.obj
 0001:00049d20       ??0CImage@ATL@@QAE@XZ      0044ad20 f i IBALoginDlg.obj
 0001:00049dc0       ?IncreaseCImageCount@CInitGDIPlus@CImage@ATL@@QAEXXZ 0044adc0 f i IBALoginDlg.obj
 0001:00049e00       ??_ECImage@ATL@@UAEPAXI@Z  0044ae00 f i IBALoginDlg.obj
 0001:00049e00       ??_GCImage@ATL@@UAEPAXI@Z  0044ae00 f i IBALoginDlg.obj
 0001:00049e30       ??1CImage@ATL@@UAE@XZ      0044ae30 f i IBALoginDlg.obj
 0001:00049e60       ?DecreaseCImageCount@CInitGDIPlus@CImage@ATL@@QAEXXZ 0044ae60 f i IBALoginDlg.obj
 0001:00049eb0       ?ReleaseGDIPlus@CInitGDIPlus@CImage@ATL@@QAEXXZ 0044aeb0 f i IBALoginDlg.obj
 0001:00049f00       ?Destroy@CImage@ATL@@QAEXXZ 0044af00 f i IBALoginDlg.obj
 0001:00049f30       ?Detach@CImage@ATL@@QAEPAUHBITMAP__@@XZ 0044af30 f i IBALoginDlg.obj
 0001:00049fa0       ?Draw@CImage@ATL@@QBEHPAUHDC__@@HH@Z 0044afa0 f i IBALoginDlg.obj
 0001:00049ff0       ?IsNull@CImage@ATL@@QBE_NXZ 0044aff0 f i IBALoginDlg.obj
 0001:0004a010       ?Load@CImage@ATL@@QAEJPB_W@Z 0044b010 f i IBALoginDlg.obj
 0001:0004a0b0       ?GetLastStatus@Image@Gdiplus@@QBE?AW4Status@2@XZ 0044b0b0 f i IBALoginDlg.obj
 0001:0004a0e0       ??0Bitmap@Gdiplus@@QAE@PB_WH@Z 0044b0e0 f i IBALoginDlg.obj
 0001:0004a180       ??0Image@Gdiplus@@IAE@XZ   0044b180 f i IBALoginDlg.obj
 0001:0004a1a0       ??_EImage@Gdiplus@@UAEPAXI@Z 0044b1a0 f i IBALoginDlg.obj
 0001:0004a1a0       ??_GImage@Gdiplus@@UAEPAXI@Z 0044b1a0 f i IBALoginDlg.obj
 0001:0004a1d0       ??3GdiplusBase@Gdiplus@@SAXPAX@Z 0044b1d0 f i IBALoginDlg.obj
 0001:0004a1e0       ??1Image@Gdiplus@@UAE@XZ   0044b1e0 f i IBALoginDlg.obj
 0001:0004a200       ?Clone@Image@Gdiplus@@UAEPAV12@XZ 0044b200 f i IBALoginDlg.obj
 0001:0004a2a0       ??2GdiplusBase@Gdiplus@@SAPAXI@Z 0044b2a0 f i IBALoginDlg.obj
 0001:0004a2b0       ?SetStatus@Brush@Gdiplus@@IBE?AW4Status@2@W432@@Z 0044b2b0 f i IBAPrint.obj
 0001:0004a2b0       ?SetStatus@Image@Gdiplus@@IBE?AW4Status@2@W432@@Z 0044b2b0 f i IBALoginDlg.obj
 0001:0004a2e0       ??0Image@Gdiplus@@IAE@PAVGpImage@1@W4Status@1@@Z 0044b2e0 f i IBALoginDlg.obj
 0001:0004a310       ??_EBitmap@Gdiplus@@UAEPAXI@Z 0044b310 f i IBALoginDlg.obj
 0001:0004a310       ??_GBitmap@Gdiplus@@UAEPAXI@Z 0044b310 f i IBALoginDlg.obj
 0001:0004a340       ??1Bitmap@Gdiplus@@UAE@XZ  0044b340 f i IBALoginDlg.obj
 0001:0004a360       ?CreateFromGdiplusBitmap@CImage@ATL@@AAEJAAVBitmap@Gdiplus@@@Z 0044b360 f i IBALoginDlg.obj
 0001:0004a750       ?_AtlVerifyStackAvailable@_ATL_SAFE_ALLOCA_IMPL@ATL@@YA_NK@Z 0044b750 f i IBALoginDlg.obj
 0001:0004a7f0       ?GetPixelFormatSize@Gdiplus@@YAIH@Z 0044b7f0 f i IBALoginDlg.obj
 0001:0004a800       ?IsIndexedPixelFormat@Gdiplus@@YAHH@Z 0044b800 f i IBALoginDlg.obj
 0001:0004a820       ?IsAlphaPixelFormat@Gdiplus@@YAHH@Z 0044b820 f i IBALoginDlg.obj
 0001:0004a840       ??0Graphics@Gdiplus@@QAE@PAVImage@1@@Z 0044b840 f i IBALoginDlg.obj
 0001:0004a890       ??1Graphics@Gdiplus@@QAE@XZ 0044b890 f i IBALoginDlg.obj
 0001:0004a8b0       ?DrawImage@Graphics@Gdiplus@@QAE?AW4Status@2@PAVImage@2@HH@Z 0044b8b0 f i IBALoginDlg.obj
 0001:0004a900       ?SetStatus@Graphics@Gdiplus@@IBE?AW4Status@2@W432@@Z 0044b900 f i IBALoginDlg.obj
 0001:0004a930       ?GetWidth@Image@Gdiplus@@QAEIXZ 0044b930 f i IBALoginDlg.obj
 0001:0004a960       ?GetHeight@Image@Gdiplus@@QAEIXZ 0044b960 f i IBALoginDlg.obj
 0001:0004a990       ?GetPixelFormat@Image@Gdiplus@@QAEHXZ 0044b990 f i IBALoginDlg.obj
 0001:0004a9c0       ?GetPaletteSize@Image@Gdiplus@@QAEHXZ 0044b9c0 f i IBALoginDlg.obj
 0001:0004a9f0       ?GetPalette@Image@Gdiplus@@QAE?AW4Status@2@PAUColorPalette@2@H@Z 0044b9f0 f i IBALoginDlg.obj
 0001:0004aa20       ??0Bitmap@Gdiplus@@QAE@HHHHPAE@Z 0044ba20 f i IBALoginDlg.obj
 0001:0004aab0       ?LockBits@Bitmap@Gdiplus@@QAE?AW4Status@2@PBVRect@2@IHPAVBitmapData@2@@Z 0044bab0 f i IBALoginDlg.obj
 0001:0004aaf0       ?UnlockBits@Bitmap@Gdiplus@@QAE?AW4Status@2@PAVBitmapData@2@@Z 0044baf0 f i IBALoginDlg.obj
 0001:0004ab20       ?Create@CImage@ATL@@QAEHHHHK@Z 0044bb20 f i IBALoginDlg.obj
 0001:0004ab50       ?CreateEx@CImage@ATL@@QAEHHHHKPBKK@Z 0044bb50 f i IBALoginDlg.obj
 0001:0004acb0       ?Attach@CImage@ATL@@QAEXPAUHBITMAP__@@W4DIBOrientation@12@@Z 0044bcb0 f i IBALoginDlg.obj
 0001:0004ace0       ?SetColorTable@CImage@ATL@@QAEXIIPBUtagRGBQUAD@@@Z 0044bce0 f i IBALoginDlg.obj
 0001:0004ad20       ?UpdateBitmapInfo@CImage@ATL@@AAEXW4DIBOrientation@12@@Z 0044bd20 f i IBALoginDlg.obj
 0001:0004ae30       ?abs@@YAJJ@Z               0044be30 f i IBALoginDlg.obj
 0001:0004ae50       ?ComputePitch@CImage@ATL@@CAHHH@Z 0044be50 f i IBALoginDlg.obj
 0001:0004ae70       ?InitGDIPlus@CImage@ATL@@CA_NXZ 0044be70 f i IBALoginDlg.obj
 0001:0004ae90       ?Init@CInitGDIPlus@CImage@ATL@@QAE_NXZ 0044be90 f i IBALoginDlg.obj
 0001:0004af00       ?Allocate@?$CAtlSafeAllocBufferManager@VCCRTAllocator@ATL@@@_ATL_SAFE_ALLOCA_IMPL@ATL@@QAEPAXK@Z 0044bf00 f i IBALoginDlg.obj
 0001:0004af50       ?Allocate@CCRTAllocator@ATL@@SAPAXI@Z 0044bf50 f i IBALoginDlg.obj
 0001:0004af70       ??$AtlAlignUp@I@ATL@@YGIIK@Z 0044bf70 f i IBALoginDlg.obj
 0001:0004af90       ??0CIBAMenuBar@@QAE@XZ     0044bf90 f   IBAMenuBar.obj
 0001:0004b0a0       ??_GCIBAMenuBar@@UAEPAXI@Z 0044c0a0 f i IBAMenuBar.obj
 0001:0004b0a0       ??_ECIBAMenuBar@@UAEPAXI@Z 0044c0a0 f i IBAMenuBar.obj
 0001:0004b0d0       ??1CIBAMenuBar@@UAE@XZ     0044c0d0 f   IBAMenuBar.obj
 0001:0004b0f0       ?CreateMenuBar@CIBAMenuBar@@QAEHPAVCWnd@@@Z 0044c0f0 f   IBAMenuBar.obj
 0001:0004b160       ?OnDefaultMenuLoaded@CIBAMenuBar@@UAEXPAUHMENU__@@@Z 0044c160 f   IBAMenuBar.obj
 0001:0004b210       ?GetCreditDirect@CNetBarConfig@@QBEHXZ 0044c210 f i IBAMenuBar.obj
 0001:0004b210       ?GetPrintTicketReturnTemp@CIBAConfig@@QBEHXZ 0044c210 f i IBAConfig.obj
 0001:0004b230       ??0CMenu@@QAE@XZ           0044c230 f i IBAMenuBar.obj
 0001:0004b260       ??_ECMenu@@UAEPAXI@Z       0044c260 f i IBAMenuBar.obj
 0001:0004b260       ??_GCMenu@@UAEPAXI@Z       0044c260 f i IBAMenuBar.obj
 0001:0004b290       ??1CMenu@@UAE@XZ           0044c290 f i IBAMenuBar.obj
 0001:0004b2f0       ?GetSubMenu@CMenu@@QBEPAV1@H@Z 0044c2f0 f i IBAMenuBar.obj
 0001:0004b320       ?RemoveMenu@CMenu@@QAEHII@Z 0044c320 f i IBAMenuBar.obj
 0001:0004b350       ?G2XStartup@@YAHXZ         0044c350 f   IBAPrint.obj
 0001:0004b380       ?G2XShutdown@@YAXXZ        0044c380 f   IBAPrint.obj
 0001:0004b390       ?ReplaceHeaderInfo@CIBAPrint@@SAXAAV?$CStringT@_WV?$StrTraitMFC_DLL@_WV?$ChTraitsCRT@_W@ATL@@@@@ATL@@@Z 0044c390 f   IBAPrint.obj
 0001:0004b4a0       ?Print@CIBAPrint@@SAXAAV?$CStringT@_WV?$StrTraitMFC_DLL@_WV?$ChTraitsCRT@_W@ATL@@@@@ATL@@@Z 0044c4a0 f   IBAPrint.obj
 0001:0004b740       ?SelectObject@CDC@@QAEPAXPAX@Z 0044c740 f i IBAPrint.obj
 0001:0004b780       ?TextOutW@CDC@@QAEHHHABV?$CStringT@_WV?$StrTraitMFC_DLL@_WV?$ChTraitsCRT@_W@ATL@@@@@ATL@@@Z 0044c780 f i IBAPrint.obj
 0001:0004b7c0       ?GetTextExtent@CDC@@QBE?AVCSize@@ABV?$CStringT@_WV?$StrTraitMFC_DLL@_WV?$ChTraitsCRT@_W@ATL@@@@@ATL@@@Z 0044c7c0 f i IBAPrint.obj
 0001:0004b810       ??0CSize@@QAE@UtagSIZE@@@Z 0044c810 f i IBAPrint.obj
 0001:0004b810       ??0CTimeSpan@ATL@@QAE@_J@Z 0044c810 f i SeatLayoutView.obj
 0001:0004b810       ??0CPoint@@QAE@UtagSIZE@@@Z 0044c810 f i SeatLayoutView.obj
 0001:0004b810       ??0CTime@ATL@@QAE@_J@Z     0044c810 f i AllCheckOut.obj
 0001:0004b830       ??1CPrintDialog@@UAE@XZ    0044c830 f i IBAPrint.obj
 0001:0004b850       ?GetRegisterTicket@CIBAPrint@@SAXAAV?$CStringT@_WV?$StrTraitMFC_DLL@_WV?$ChTraitsCRT@_W@ATL@@@@@ATL@@@Z 0044c850 f   IBAPrint.obj
 0001:0004b8e0       ?GetCreditTicket@CIBAPrint@@SAXAAV?$CStringT@_WV?$StrTraitMFC_DLL@_WV?$ChTraitsCRT@_W@ATL@@@@@ATL@@@Z 0044c8e0 f   IBAPrint.obj
 0001:0004b970       ?GetBundleTimeTicket@CIBAPrint@@SAXAAV?$CStringT@_WV?$StrTraitMFC_DLL@_WV?$ChTraitsCRT@_W@ATL@@@@@ATL@@@Z 0044c970 f   IBAPrint.obj
 0001:0004ba00       ?GetRegisterAndBundleTimeTicket@CIBAPrint@@SAXAAV?$CStringT@_WV?$StrTraitMFC_DLL@_WV?$ChTraitsCRT@_W@ATL@@@@@ATL@@@Z 0044ca00 f   IBAPrint.obj
 0001:0004ba90       ?GetCreditAndBundleTimeTicket@CIBAPrint@@SAXAAV?$CStringT@_WV?$StrTraitMFC_DLL@_WV?$ChTraitsCRT@_W@ATL@@@@@ATL@@@Z 0044ca90 f   IBAPrint.obj
 0001:0004bb20       ?GetShiftCashTicket@CIBAPrint@@SAXAAV?$CStringT@_WV?$StrTraitMFC_DLL@_WV?$ChTraitsCRT@_W@ATL@@@@@ATL@@@Z 0044cb20 f   IBAPrint.obj
 0001:0004bbb0       ?GetRefundTicket@CIBAPrint@@SAXAAV?$CStringT@_WV?$StrTraitMFC_DLL@_WV?$ChTraitsCRT@_W@ATL@@@@@ATL@@H@Z 0044cbb0 f   IBAPrint.obj
 0001:0004bc60       ?GetShoppingTicket@CIBAPrint@@SAXAAV?$CStringT@_WV?$StrTraitMFC_DLL@_WV?$ChTraitsCRT@_W@ATL@@@@@ATL@@H@Z 0044cc60 f   IBAPrint.obj
 0001:0004bd10       ?SetOwner@CIBAPrintA4@@QAEXPAVCWnd@@@Z 0044cd10 f   IBAPrint.obj
 0001:0004bdb0       ?OnPreparePrinting@CIBAPrintA4@@MAEHPAUCPrintInfo@@@Z 0044cdb0 f   IBAPrint.obj
 0001:0004bde0       ?OnPrint@CIBAPrintA4@@MAEXPAVCDC@@PAUCPrintInfo@@@Z 0044cde0 f   IBAPrint.obj
 0001:0004c230       ??_GFont@Gdiplus@@QAEPAXI@Z 0044d230 f i IBAPrint.obj
 0001:0004c260       ??1CCommonDialog@@UAE@XZ   0044d260 f i IBAPrint.obj
 0001:0004c280       ?GetPrinterDC@CPrintDialog@@QBEPAUHDC__@@XZ 0044d280 f i IBAPrint.obj
 0001:0004c2a0       ?SetMaxPage@CPrintInfo@@QAEXI@Z 0044d2a0 f i IBAPrint.obj
 0001:0004c2c0       ??0RectF@Gdiplus@@QAE@XZ   0044d2c0 f i IBAPrint.obj
 0001:0004c300       ??0Color@Gdiplus@@QAE@EEE@Z 0044d300 f i IBAPrint.obj
 0001:0004c330       ?MakeARGB@Color@Gdiplus@@SAKEEEE@Z 0044d330 f i IBAPrint.obj
 0001:0004c360       ??0SolidBrush@Gdiplus@@QAE@ABVColor@1@@Z 0044d360 f i IBAPrint.obj
 0001:0004c3e0       ??1Brush@Gdiplus@@UAE@XZ   0044d3e0 f i IBAPrint.obj
 0001:0004c400       ?Clone@Brush@Gdiplus@@UBEPAV12@XZ 0044d400 f i IBAPrint.obj
 0001:0004c4b0       ??0Brush@Gdiplus@@IAE@XZ   0044d4b0 f i IBAPrint.obj
 0001:0004c4e0       ??0Brush@Gdiplus@@IAE@PAVGpBrush@1@W4Status@1@@Z 0044d4e0 f i IBAPrint.obj
 0001:0004c510       ??_GBrush@Gdiplus@@UAEPAXI@Z 0044d510 f i IBAPrint.obj
 0001:0004c510       ??_EBrush@Gdiplus@@UAEPAXI@Z 0044d510 f i IBAPrint.obj
 0001:0004c540       ??_ESolidBrush@Gdiplus@@UAEPAXI@Z 0044d540 f i IBAPrint.obj
 0001:0004c540       ??_GSolidBrush@Gdiplus@@UAEPAXI@Z 0044d540 f i IBAPrint.obj
 0001:0004c570       ??1SolidBrush@Gdiplus@@UAE@XZ 0044d570 f i IBAPrint.obj
 0001:0004c590       ??0StringFormat@Gdiplus@@QAE@HG@Z 0044d590 f i IBAPrint.obj
 0001:0004c5d0       ??1StringFormat@Gdiplus@@QAE@XZ 0044d5d0 f i IBAPrint.obj
 0001:0004c5f0       ?SetAlignment@StringFormat@Gdiplus@@QAE?AW4Status@2@W4StringAlignment@2@@Z 0044d5f0 f i IBAPrint.obj
 0001:0004c620       ?SetLineAlignment@StringFormat@Gdiplus@@QAE?AW4Status@2@W4StringAlignment@2@@Z 0044d620 f i IBAPrint.obj
 0001:0004c650       ?SetStatus@StringFormat@Gdiplus@@IBE?AW4Status@2@W432@@Z 0044d650 f i IBAPrint.obj
 0001:0004c680       ??0Graphics@Gdiplus@@QAE@PAUHDC__@@@Z 0044d680 f i IBAPrint.obj
 0001:0004c6c0       ?SetPageUnit@Graphics@Gdiplus@@QAE?AW4Status@2@W4Unit@2@@Z 0044d6c0 f i IBAPrint.obj
 0001:0004c6f0       ?DrawString@Graphics@Gdiplus@@QAE?AW4Status@2@PB_WHPBVFont@2@ABVRectF@2@PBVStringFormat@2@PBVBrush@2@@Z 0044d6f0 f i IBAPrint.obj
 0001:0004c780       ??0Font@Gdiplus@@QAE@PB_WMHW4Unit@1@PBVFontCollection@1@@Z 0044d780 f i IBAPrint.obj
 0001:0004c8b0       ??0FontFamily@Gdiplus@@QAE@PB_WPBVFontCollection@1@@Z 0044d8b0 f i IBAPrint.obj
 0001:0004c900       ?GenericSansSerif@FontFamily@Gdiplus@@SAPBV12@XZ 0044d900 f i IBAPrint.obj
 0001:0004c940       ??1FontFamily@Gdiplus@@QAE@XZ 0044d940 f i IBAPrint.obj
 0001:0004c960       ?GetLastStatus@FontFamily@Gdiplus@@QBE?AW4Status@2@XZ 0044d960 f i IBAPrint.obj
 0001:0004c990       ??1Font@Gdiplus@@QAE@XZ    0044d990 f i IBAPrint.obj
 0001:0004c9b0       ?GetRuntimeClass@CSetOfIBAPropertySheet@@UBEPAUCRuntimeClass@@XZ 0044d9b0 f   IBAPropertySheet.obj
 0001:0004c9c0       ?GetMessageMap@CSetOfIBAPropertySheet@@MBEPBUAFX_MSGMAP@@XZ 0044d9c0 f   IBAPropertySheet.obj
 0001:0004c9d0       ??0CSetOfIBAPropertySheet@@QAE@PAVCWnd@@@Z 0044d9d0 f   IBAPropertySheet.obj
 0001:0004cbf0       ??_ECSetOfIBAPropertySheet@@UAEPAXI@Z 0044dbf0 f i IBAPropertySheet.obj
 0001:0004cbf0       ??_GCSetOfIBAPropertySheet@@UAEPAXI@Z 0044dbf0 f i IBAPropertySheet.obj
 0001:0004cc20       ??1CSetOfIBAPropertySheet@@UAE@XZ 0044dc20 f   IBAPropertySheet.obj
 0001:0004cd30       ??0CIBAReportHelper@@IAE@XZ 0044dd30 f   IBAReportHelper.obj
 0001:0004ce50       ??1CIBAReportHelper@@QAE@XZ 0044de50 f   IBAReportHelper.obj
 0001:0004cf70       ?GetInstance@CIBAReportHelper@@SAPAV1@XZ 0044df70 f   IBAReportHelper.obj
 0001:0004cfe0       ?workPath@CIBAReportHelper@@AAE?AV?$CStringT@_WV?$StrTraitMFC_DLL@_WV?$ChTraitsCRT@_W@ATL@@@@@ATL@@XZ 0044dfe0 f   IBAReportHelper.obj
 0001:0004d130       ?Utf8_to_WideChar@CIBAReportHelper@@AAE?AV?$basic_string@_WU?$char_traits@_W@std@@V?$allocator@_W@2@@std@@AAV?$basic_string@DU?$char_traits@D@std@@V?$allocator@D@2@@3@@Z 0044e130 f   IBAReportHelper.obj
 0001:0004d260       ?WideChar_to_Utf8@CIBAReportHelper@@AAE?AV?$basic_string@DU?$char_traits@D@std@@V?$allocator@D@2@@std@@AAV?$basic_string@_WU?$char_traits@_W@std@@V?$allocator@_W@2@@3@@Z 0044e260 f   IBAReportHelper.obj
 0001:0004d3d0       ?DoReport@CIBAReportHelper@@QAEXXZ 0044e3d0 f   IBAReportHelper.obj
 0001:0004dac0       ?GetOpenWx@CNetBarConfig@@QAE_NXZ 0044eac0 f i IBAReportHelper.obj
 0001:0004dae0       ?GetResHandle@CIBAApp@@QAEPAUHINSTANCE__@@XZ 0044eae0 f i IBAReportHelper.obj
 0001:0004db00       ?GetRuntimeClass@CSetPageOfCommon@@UBEPAUCRuntimeClass@@XZ 0044eb00 f   IBASetPage.obj
 0001:0004db10       ??0CSetPageOfCommon@@QAE@XZ 0044eb10 f   IBASetPage.obj
 0001:0004dbd0       ??_ECSetPageOfCommon@@UAEPAXI@Z 0044ebd0 f i IBASetPage.obj
 0001:0004dbd0       ??_GCSetPageOfCommon@@UAEPAXI@Z 0044ebd0 f i IBASetPage.obj
 0001:0004dc00       ??1CSetPageOfCommon@@UAE@XZ 0044ec00 f   IBASetPage.obj
 0001:0004dc20       ?DoDataExchange@CSetPageOfCommon@@MAEXPAVCDataExchange@@@Z 0044ec20 f   IBASetPage.obj
 0001:0004dd90       ?GetMessageMap@CSetPageOfCommon@@MBEPBUAFX_MSGMAP@@XZ 0044ed90 f   IBASetPage.obj
 0001:0004dda0       ?OnOK@CSetPageOfCommon@@MAEXXZ 0044eda0 f   IBASetPage.obj
 0001:0004df90       ?SetDeposit@CCardOpenInfo@NS_DAL@@QAEXI@Z 0044ef90 f i RegisterDlg.obj
 0001:0004df90       ?SetOperationAfterSwipingCard@CIBAConfig@@QAEXH@Z 0044ef90 f i IBASetPage.obj
 0001:0004df90       ?SetAmount@CSellRecord@NS_SERVLET@@QAEXI@Z 0044ef90 f i RetailMethod.obj
 0001:0004df90       ?SetOldClassId@CMemberUpgradeDB@NS_DAL@@QAEXI@Z 0044ef90 f i NDUpgradeDlg.obj
 0001:0004df90       ?SetReturnAmount@CReturnedInfo@NS_DAL@@QAEXI@Z 0044ef90 f i BrokenNetworkResume.obj
 0001:0004df90       ?SetTimePass@CFullBundleTimeInfo@@QAEXI@Z 0044ef90 f i NetbarBundleTime.obj
 0001:0004df90       ?SetDirection@CSeat@@QAEXH@Z 0044ef90 f i SeatLayoutView.obj
 0001:0004dfb0       ?SetFontType@CIBAConfig@@QAEXI@Z 0044efb0 f i IBASetPage.obj
 0001:0004dfd0       ?SetOpenAfterSave@CIBAConfig@@QAEXH@Z 0044efd0 f i IBASetPage.obj
 0001:0004dff0       ?SetEnmergencyVisible@CIBAConfig@@QAEXH@Z 0044eff0 f i IBASetPage.obj
 0001:0004e010       ?SetPauseRevMsg@CIBAConfig@@QAEXH@Z 0044f010 f i IBASetPage.obj
 0001:0004e030       ?SetShowAllComputer@CIBAConfig@@QAEXH@Z 0044f030 f i IBASetPage.obj
 0001:0004e050       ?SetShowLastUserNetId@CIBAConfig@@QAEXH@Z 0044f050 f i IBASetPage.obj
 0001:0004e070       ?SetMsgAutoHide@CIBAConfig@@QAEXH@Z 0044f070 f i IBASetPage.obj
 0001:0004e090       ?SetMsgLeftBottom@CIBAConfig@@QAEXH@Z 0044f090 f i IBASetPage.obj
 0001:0004e090       ?SetReturnOnlyClassId@CNetBarConfig@@QAEXH@Z 0044f090 f i NetBarConfig.obj
 0001:0004e0b0       ?SetOperationAfterEnter@CIBAConfig@@QAEXABH@Z 0044f0b0 f i IBASetPage.obj
 0001:0004e0d0       ?SetOperationAfterDClick@CIBAConfig@@QAEXABH@Z 0044f0d0 f i IBASetPage.obj
 0001:0004e0f0       ?OnInitDialog@CSetPageOfCommon@@MAEHXZ 0044f0f0 f   IBASetPage.obj
 0001:0004e390       ?GetUserRCheckIn@CNetBarConfig@@QAE?BHXZ 0044f390 f i IBASetPage.obj
 0001:0004e3b0       ?GetForbidCaptureScreen@CNetBarConfig@@QAE?BHXZ 0044f3b0 f i IBASetPage.obj
 0001:0004e3d0       ?GetZSBBalance@CShiftCash@NS_DAL@@QBEHXZ 0044f3d0 f i OffDutyDlg.obj
 0001:0004e3d0       ?GetScanId@CIBAConfig@@QBEHXZ 0044f3d0 f i IBASetPage.obj
 0001:0004e3d0       ?GetDynamicMaxAmount@CActiveMember@@QBEHXZ 0044f3d0 f i ActiveMemberList.obj
 0001:0004e3f0       ?GetOpenAfterSave@CIBAConfig@@QBEHXZ 0044f3f0 f i IBASetPage.obj
 0001:0004e410       ?GetShowAllComputer@CIBAConfig@@QBEHXZ 0044f410 f i IBASetPage.obj
 0001:0004e430       ?GetMsgAutoHide@CIBAConfig@@QBEHXZ 0044f430 f i IBASetPage.obj
 0001:0004e450       ?GetReturnOnlyClassId@CNetBarConfig@@QBEHXZ 0044f450 f i BrokenNetworkResume.obj
 0001:0004e450       ?GetMsgLeftBottom@CIBAConfig@@QBEHXZ 0044f450 f i IBASetPage.obj
 0001:0004e470       ?CreateObject@CIBAView@@SGPAVCObject@@XZ 0044f470 f   IBAView.obj
 0001:0004e4e0       ?GetThisClass@CIBAView@@SGPAUCRuntimeClass@@XZ 0044f4e0 f   IBAView.obj
 0001:0004e4f0       ?GetRuntimeClass@CIBAView@@UBEPAUCRuntimeClass@@XZ 0044f4f0 f   IBAView.obj
 0001:0004e500       ?GetMessageMap@CIBAView@@MBEPBUAFX_MSGMAP@@XZ 0044f500 f   IBAView.obj
 0001:0004e510       ??0CIBAView@@IAE@XZ        0044f510 f   IBAView.obj
 0001:0004e5a0       ??_GCIBAView@@UAEPAXI@Z    0044f5a0 f i IBAView.obj
 0001:0004e5a0       ??_ECIBAView@@UAEPAXI@Z    0044f5a0 f i IBAView.obj
 0001:0004e5d0       ??1CIBAView@@UAE@XZ        0044f5d0 f   IBAView.obj
 0001:0004e5f0       ?OnInitialUpdate@CIBAView@@MAEXXZ 0044f5f0 f   IBAView.obj
 0001:0004e610       ?OnCreate@CIBAView@@IAEHPAUtagCREATESTRUCTW@@@Z 0044f610 f   IBAView.obj
 0001:0004e850       ?SetRectEmpty@CRect@@QAEXXZ 0044f850 f i IBAView.obj
 0001:0004e870       ?SetIBAView@CIBAApp@@QAEXPAVCIBAView@@@Z 0044f870 f i IBAView.obj
 0001:0004e870       ?SetType@CMsgBoxDlg@@QAEXI@Z 0044f870 f i BrokenNetwork.obj
 0001:0004e870       ?SetAllowNoCardLogin@CNetBarConfig@@QAEXH@Z 0044f870 f i NetBarConfig.obj
 0001:0004e890       ?OnActivateView@CIBAView@@MAEXPAVCView@@@Z 0044f890 f   IBAView.obj
 0001:0004e980       ?ShowTermConsumeView@CIBAView@@QAEXXZ 0044f980 f   IBAView.obj
 0001:0004eae0       ?QueryTermConsumeList@CIBAView@@QAEXPB_W@Z 0044fae0 f   IBAView.obj
 0001:0004eb10       ?ShowComsumeListView@CIBAView@@QAEXXZ 0044fb10 f   IBAView.obj
 0001:0004ec70       ?QueryUserComsumeList@CIBAView@@QAEXPB_WI@Z 0044fc70 f   IBAView.obj
 0001:0004eca0       ?ShowOperationView@CIBAView@@QAEXXZ 0044fca0 f   IBAView.obj
 0001:0004ee00       ?ShowShiftCashView@CIBAView@@QAEXXZ 0044fe00 f   IBAView.obj
 0001:0004ef60       ?ShowSeatLayoutView@CIBAView@@QAEXXZ 0044ff60 f   IBAView.obj
 0001:0004f110       ?SetDisplayType@CIBAConfig@@QAEXI@Z 00450110 f i IBAView.obj
 0001:0004f130       ?ShowShortMsgView@CIBAView@@QAEXXZ 00450130 f   IBAView.obj
 0001:0004f290       ?ShowCardOpenConsumeView@CIBAView@@QAEXXZ 00450290 f   IBAView.obj
 0001:0004f3f0       ?OnChildClose@CIBAView@@IAEJIJ@Z 004503f0 f   IBAView.obj
 0001:0004f460       ?ShowDodonewView@CIBAView@@QAEXXZ 00450460 f   IBAView.obj
 0001:0004f5f0       ?GetActiveMemberView@CIBAView@@QAEPAVCActiveMemberView@@XZ 004505f0 f   IBAView.obj
 0001:0004f620       ?GetComputerListView@CIBAView@@QAEPAVCComputerListView@@XZ 00450620 f   IBAView.obj
 0001:0004f650       ?IsCurrentComputerView@CIBAView@@QAEHXZ 00450650 f   IBAView.obj
 0001:0004f690       ?GotoActiveMember@CIBAView@@QAEHV?$CStringT@_WV?$StrTraitMFC_DLL@_WV?$ChTraitsCRT@_W@ATL@@@@@ATL@@H@Z 00450690 f   IBAView.obj
 0001:0004f9d0       ?GotoComputer@CIBAView@@QAEXV?$CStringT@_WV?$StrTraitMFC_DLL@_WV?$ChTraitsCRT@_W@ATL@@@@@ATL@@H@Z 004509d0 f   IBAView.obj
 0001:0004fa80       ?GotoComputerByIP@CIBAView@@QAEXV?$CStringT@_WV?$StrTraitMFC_DLL@_WV?$ChTraitsCRT@_W@ATL@@@@@ATL@@H@Z 00450a80 f   IBAView.obj
 0001:0004fb10       ?GotoComputerByNetID@CIBAView@@QAEXV?$CStringT@_WV?$StrTraitMFC_DLL@_WV?$ChTraitsCRT@_W@ATL@@@@@ATL@@H@Z 00450b10 f   IBAView.obj
 0001:0004fba0       ?OnUpdateSeat@CIBAView@@QAEJIJ@Z 00450ba0 f   IBAView.obj
 0001:0004fbd0       ??0CIdentityNumber@@QAE@PB_W@Z 00450bd0 f   IdentityNumber.obj
 0001:0004fc70       ??1CIdentityNumber@@QAE@XZ 00450c70 f   IdentityNumber.obj
 0001:0004fc90       ?Attach@CIdentityNumber@@QAEXPB_W@Z 00450c90 f   IdentityNumber.obj
 0001:00050330       ?MakeVerifyCode@CIdentityNumber@@QAE_WXZ 00451330 f   IdentityNumber.obj
 0001:00050420       ?IsValid@CIdentityNumber@@QAEHXZ 00451420 f   IdentityNumber.obj
 0001:000504f0       ?IsBirthDay@CIdentityNumber@@QAEHXZ 004514f0 f   IdentityNumber.obj
 0001:00050550       ?SetDate@COleDateTime@ATL@@QAEHHHH@Z 00451550 f i IdentityNumber.obj
 0001:00050580       ?CreateObject@CIdentityToolbarButton@@SGPAVCObject@@XZ 00451580 f   IdentityToolbarButton.obj
 0001:000505f0       ?GetThisClass@CIdentityToolbarButton@@SGPAUCRuntimeClass@@XZ 004515f0 f   IdentityToolbarButton.obj
 0001:00050600       ?GetRuntimeClass@CIdentityToolbarButton@@UBEPAUCRuntimeClass@@XZ 00451600 f   IdentityToolbarButton.obj
 0001:00050610       ??0CIdentityToolbarButton@@QAE@XZ 00451610 f   IdentityToolbarButton.obj
 0001:00050670       ??_GCIdentityToolbarButton@@UAEPAXI@Z 00451670 f i IdentityToolbarButton.obj
 0001:00050670       ??_ECIdentityToolbarButton@@UAEPAXI@Z 00451670 f i IdentityToolbarButton.obj
 0001:000506a0       ??0CIdentityToolbarButton@@QAE@IPAVCBCGPToolBar@@@Z 004516a0 f   IdentityToolbarButton.obj
 0001:00050720       ??1CIdentityToolbarButton@@UAE@XZ 00451720 f   IdentityToolbarButton.obj
 0001:00050780       ?CreateCtrlWnd@CIdentityToolbarButton@@MAEHXZ 00451780 f   IdentityToolbarButton.obj
 0001:00050800       ?GetCtrlWnd@CBCGPToolbarCtrlCommon@@QBEPAVCWnd@@XZ 00451800 f i IdentityToolbarButton.obj
 0001:00050820       ??0CIniConfig@@IAE@XZ      00451820 f   IniConfig.obj
 0001:00050850       ??_GCIniConfig@@MAEPAXI@Z  00451850 f i IniConfig.obj
 0001:00050850       ??_ECIniConfig@@MAEPAXI@Z  00451850 f i IniConfig.obj
 0001:00050880       ??1CIniConfig@@MAE@XZ      00451880 f   IniConfig.obj
 0001:000508a0       ?ReadValue@CIniConfig@@IAEXPB_W0AAHI@Z 004518a0 f   IniConfig.obj
 0001:000508a0       ?ReadValue@CIniConfig@@IAEXPB_W0AAKI@Z 004518a0 f   IniConfig.obj
 0001:000508a0       ?ReadValue@CIniConfig@@IAEXPB_W0AAII@Z 004518a0 f   IniConfig.obj
 0001:000508e0       ?ReadValue@CIniConfig@@IAEXPB_W0AAV?$CStringT@_WV?$StrTraitMFC_DLL@_WV?$ChTraitsCRT@_W@ATL@@@@@ATL@@0@Z 004518e0 f   IniConfig.obj
 0001:00050990       ?SaveValue@CIniConfig@@IAEXPB_W0ABV?$CStringT@_WV?$StrTraitMFC_DLL@_WV?$ChTraitsCRT@_W@ATL@@@@@ATL@@@Z 00451990 f   IniConfig.obj
 0001:000509d0       ?SaveValue@CIniConfig@@IAEXPB_W0I@Z 004519d0 f   IniConfig.obj
 0001:000509d0       ?SaveValue@CIniConfig@@IAEXPB_W0K@Z 004519d0 f   IniConfig.obj
 0001:000509d0       ?SaveValue@CIniConfig@@IAEXPB_W0H@Z 004519d0 f   IniConfig.obj
 0001:00050a60       ?GetRuntimeClass@CSetPageOfJXC@@UBEPAUCRuntimeClass@@XZ 00451a60 f   JXCPage.obj
 0001:00050a70       ??0CSetPageOfJXC@@QAE@XZ   00451a70 f   JXCPage.obj
 0001:00050ae0       ??_ECSetPageOfJXC@@UAEPAXI@Z 00451ae0 f i JXCPage.obj
 0001:00050ae0       ??_GCSetPageOfJXC@@UAEPAXI@Z 00451ae0 f i JXCPage.obj
 0001:00050b10       ??1CSetPageOfJXC@@UAE@XZ   00451b10 f   JXCPage.obj
 0001:00050b70       ?DoDataExchange@CSetPageOfJXC@@MAEXPAVCDataExchange@@@Z 00451b70 f   JXCPage.obj
 0001:00050bc0       ?GetMessageMap@CSetPageOfJXC@@MBEPBUAFX_MSGMAP@@XZ 00451bc0 f   JXCPage.obj
 0001:00050bd0       ?OnOK@CSetPageOfJXC@@MAEXXZ 00451bd0 f   JXCPage.obj
 0001:00050c40       ?SetStoreID@CIBAConfig@@QAEXI@Z 00451c40 f i JXCPage.obj
 0001:00050c60       ?SetJXCPayCash@CIBAConfig@@QAEXABH@Z 00451c60 f i JXCPage.obj
 0001:00050c80       ?OnInitDialog@CSetPageOfJXC@@MAEHXZ 00451c80 f   JXCPage.obj
 0001:00050cc0       ?LoadStoreInfo@CSetPageOfJXC@@AAEHXZ 00451cc0 f   JXCPage.obj
 0001:00050e70       ?CopyLogFont@@YAXAAUtagLOGFONTW@@ABU1@@Z 00451e70 f   ListCtrlCl.obj
 0001:00050f30       ?GetRuntimeClass@CListCtrlCl@@UBEPAUCRuntimeClass@@XZ 00451f30 f   ListCtrlCl.obj
 0001:00050f40       ??0CListCtrlCl@@QAE@XZ     00451f40 f   ListCtrlCl.obj
 0001:00051030       ??_ECListCtrlCl@@UAEPAXI@Z 00452030 f i ListCtrlCl.obj
 0001:00051030       ??_GCListCtrlCl@@UAEPAXI@Z 00452030 f i ListCtrlCl.obj
 0001:00051060       ??1CListCtrlCl@@UAE@XZ     00452060 f   ListCtrlCl.obj
 0001:00051170       ?GetMessageMap@CListCtrlCl@@MBEPBUAFX_MSGMAP@@XZ 00452170 f   ListCtrlCl.obj
 0001:00051180       ?PreSubclassWindow@CListCtrlCl@@MAEXXZ 00452180 f   ListCtrlCl.obj
 0001:000511d0       ?DrawItem@CListCtrlCl@@UAEXPAUtagDRAWITEMSTRUCT@@@Z 004521d0 f   ListCtrlCl.obj
 0001:000517b0       ?OnMeasureItem@CGxxListCtrl@NS_COMMON@@IAEXHPAUtagMEASUREITEMSTRUCT@@@Z 004527b0 f   GxxListCtrl.obj
 0001:000517b0       ?OnMeasureItem@CListCtrlCl@@QAEXHPAUtagMEASUREITEMSTRUCT@@@Z 004527b0 f   ListCtrlCl.obj
 0001:000517d0       ?MeasureItem@CListCtrlCl@@QAEXPAUtagMEASUREITEMSTRUCT@@@Z 004527d0 f   ListCtrlCl.obj
 0001:00051800       ?InsertColumn@CListCtrlCl@@QAEHHPB_WHHH@Z 00452800 f   ListCtrlCl.obj
 0001:00051a30       ?FindColColor@CListCtrlCl@@QAE_NHAAK@Z 00452a30 f   ListCtrlCl.obj
 0001:00051ab0       ?FindColFont@CListCtrlCl@@QAE_NHAAUtagLOGFONTW@@@Z 00452ab0 f   ListCtrlCl.obj
 0001:00051b30       ?FindItemColor@CListCtrlCl@@QAE_NHHAAK@Z 00452b30 f   ListCtrlCl.obj
 0001:00051bb0       ?SetColFont@CListCtrlCl@@QAEXHPBUtagLOGFONTW@@@Z 00452bb0 f   ListCtrlCl.obj
 0001:00051c00       ?SetRowHeigt@CListCtrlCl@@QAEXH@Z 00452c00 f   ListCtrlCl.obj
 0001:00051c70       ?SetFontHW@CListCtrlCl@@QAEXHH@Z 00452c70 f   ListCtrlCl.obj
 0001:00051ca0       ?SetColTextColor@CListCtrlCl@@QAEXHK@Z 00452ca0 f   ListCtrlCl.obj
 0001:00051cf0       ?FindColTextColor@CListCtrlCl@@QAE_NHAAK@Z 00452cf0 f   ListCtrlCl.obj
 0001:00051d70       ?FindItemTextColor@CListCtrlCl@@QAE_NHHAAK@Z 00452d70 f   ListCtrlCl.obj
 0001:00051df0       ?FreePtrList@@YAXAAVCPtrList@@@Z 00452df0 f i ListCtrlCl.obj
 0001:00051e20       ?Add@CStringArray@@QAEHPB_W@Z 00452e20 f i ListCtrlCl.obj
 0001:00051e50       ?IsEmpty@CPtrList@@QBEHXZ  00452e50 f i ListCtrlCl.obj
 0001:00051e70       ?GetLastTranType@CLastTranInfo@NS_SERVLET@@QBEIXZ 00452e70 f i DlgDutyLocal.obj
 0001:00051e70       ?GetMsgType@CClientShortMessage@NS_DAL@@QBEIXZ 00452e70 f i ComputerListView.obj
 0001:00051e70       ?GetHeadPosition@?$CList@PAVCBCGPGridItem@@PAV1@@@QBEPAU__POSITION@@XZ 00452e70 f i ComputerListView.obj
 0001:00051e70       ?GetID@CIDNameRecord@NS_DAL@@QBEIXZ 00452e70 f i DefineBundTimeDlg.obj
 0001:00051e70       ?GetNetBarId@CMemberUpgradeDB@NS_DAL@@QBEIXZ 00452e70 f i IBADAL-USER.obj
 0001:00051e70       ?GetData@?$CGxxString@D@G2XUtility@@QBEPBDXZ 00452e70 f i CashierHelper.obj
 0001:00051e70       ?GetNetBarId@CCardOpenInfo@NS_DAL@@QBEIXZ 00452e70 f i IBADAL-USER.obj
 0001:00051e70       ?GetQuantity@CStoreInRecord@NS_SERVLET@@QBEIXZ 00452e70 f i StoreInMethod.obj
 0001:00051e70       ?GetData@CByteArray@@QAEPAEXZ 00452e70 f i WDRealName.obj
 0001:00051e70       ?GetIDTypeID@CIDTypeInfo@NS_DAL@@QBEIXZ 00452e70 f i CheckMemberDlg.obj
 0001:00051e70       ?GetShutDownMinutes@CNetBarConfig2@@QBEIXZ 00452e70 f i NetBarConfigPage.obj
 0001:00051e70       ?GetLength@CRespField@NS_SERVLET_HELPPER@NS_SERVLET@@QBEIXZ 00452e70 f i RespField.obj
 0001:00051e70       ??BCSyncObject@@QBEPAXXZ   00452e70 f i IBACaptureImage.obj
 0001:00051e70       ?GetData@?$CGxxString@_W@G2XUtility@@QBEPB_WXZ 00452e70 f i IBAHelpper.obj
 0001:00051e70       ?GetHeadPosition@?$CList@PAVCBCGPGridRow@@PAV1@@@QBEPAU__POSITION@@XZ 00452e70 f i JXCVoucherNoDlg.obj
 0001:00051e70       ?GetNetBarId@CReturnedInfo@NS_DAL@@QBEIXZ 00452e70 f i IBADAL-USER.obj
 0001:00051e70       ?GetSoldAmout1@CCommoditySoldInfo@NS_DAL@@QBEHXZ 00452e70 f i OffDutyDlg.obj
 0001:00051e70       ?GetHeadPosition@CPtrList@@QBEPAU__POSITION@@XZ 00452e70 f i ListCtrlCl.obj
 0001:00051e70       ?GetOnline@CStatInfo@CComputerList@@QBEIXZ 00452e70 f i ColorGridCtrl.obj
 0001:00051e70       ?GetNetBarId@CCreditInfoDB@NS_DAL@@QBEIXZ 00452e70 f i IBADAL-USER.obj
 0001:00051e70       ?GetSex@CIBAScanReco@@QBEHXZ 00452e70 f i RealNameBase.obj
 0001:00051e70       ?GetCanEditUserInfo@CNetBarUser@@QBEHXZ 00452e70 f i RegisterDlg.obj
 0001:00051e90       ?GetNext@CPtrList@@QAEAAPAXAAPAU__POSITION@@@Z 00452e90 f i ListCtrlCl.obj
 0001:00051ed0       ?GetBkColor@CListCtrl@@QBEKXZ 00452ed0 f i ListCtrlCl.obj
 0001:00051f00       ?GetItem@CListCtrl@@QBEHPAUtagLVITEMW@@@Z 00452f00 f i ListCtrlCl.obj
 0001:00051f30       ?GetColumn@CListCtrl@@QBEHHPAUtagLVCOLUMNW@@@Z 00452f30 f i ListCtrlCl.obj
 0001:00051f60       ?GetRuntimeClass@COutputListCtrl@@UBEPAUCRuntimeClass@@XZ 00452f60 f   LogListCtrl.obj
 0001:00051f70       ??0COutputListCtrl@@QAE@XZ 00452f70 f   LogListCtrl.obj
 0001:00051f90       ??_ECOutputListCtrl@@UAEPAXI@Z 00452f90 f i LogListCtrl.obj
 0001:00051f90       ??_GCOutputListCtrl@@UAEPAXI@Z 00452f90 f i LogListCtrl.obj
 0001:00051fc0       ??1COutputListCtrl@@UAE@XZ 00452fc0 f   LogListCtrl.obj
 0001:00051fe0       ?GetMessageMap@COutputListCtrl@@MBEPBUAFX_MSGMAP@@XZ 00452fe0 f   LogListCtrl.obj
 0001:00051ff0       ?OnNMDblclk@COutputListCtrl@@IAEXPAUtagNMHDR@@PAJ@Z 00452ff0 f   LogListCtrl.obj
 0001:00052540       ?AddReceiver@CShortMsgDlg@@QAEXI@Z 00453540 f i LogListCtrl.obj
 0001:00052560       ?Add@CUIntArray@@QAEHI@Z   00453560 f i LogListCtrl.obj
 0001:00052590       ?OnCreate@COutputListCtrl@@IAEHPAUtagCREATESTRUCTW@@@Z 00453590 f   LogListCtrl.obj
 0001:000525d0       ?OnTimer@COutputListCtrl@@QAEXI@Z 004535d0 f   LogListCtrl.obj
 0001:00052720       ?FrameRect@CDC@@QAEXPBUtagRECT@@PAVCBrush@@@Z 00453720 f i LogListCtrl.obj
 0001:00052750       ?ActiveRemind@COutputListCtrl@@QAEXXZ 00453750 f   LogListCtrl.obj
 0001:00052770       ?GetExtendedStyle@CListCtrl@@QAEKXZ 00453770 f i LogListCtrl.obj
 0001:000527a0       ?CreateObject@CMainFrame@@SGPAVCObject@@XZ 004537a0 f   MainFrm.obj
 0001:00052810       ?GetThisClass@CMainFrame@@SGPAUCRuntimeClass@@XZ 00453810 f   MainFrm.obj
 0001:00052820       ?GetRuntimeClass@CMainFrame@@UBEPAUCRuntimeClass@@XZ 00453820 f   MainFrm.obj
 0001:00052830       ?GetMessageMap@CMainFrame@@MBEPBUAFX_MSGMAP@@XZ 00453830 f   MainFrm.obj
 0001:00052840       ??0CMainFrame@@QAE@XZ      00453840 f   MainFrm.obj
 0001:00052980       ??_GCMainFrame@@UAEPAXI@Z  00453980 f i MainFrm.obj
 0001:00052980       ??_ECMainFrame@@UAEPAXI@Z  00453980 f i MainFrm.obj
 0001:000529b0       ??1CMainFrame@@UAE@XZ      004539b0 f   MainFrm.obj
 0001:00052ab0       ?OnCreate@CMainFrame@@IAEHPAUtagCREATESTRUCTW@@@Z 00453ab0 f   MainFrm.obj
 0001:00052c40       ?PreCreateWindow@CMainFrame@@MAEHAAUtagCREATESTRUCTW@@@Z 00453c40 f   MainFrm.obj
 0001:00052ce0       ?OnViewCustomize@CMainFrame@@IAEXXZ 00453ce0 f   MainFrm.obj
 0001:00052d80       ??_ECBCGPToolbarCustomize@@UAEPAXI@Z 00453d80 f i MainFrm.obj
 0001:00052d80       ??_GCBCGPToolbarCustomize@@UAEPAXI@Z 00453d80 f i MainFrm.obj
 0001:00052db0       ?OnToolbarContextMenu@CMainFrame@@IAEJIJ@Z 00453db0 f   MainFrm.obj
 0001:00052dc0       ?OnToolbarReset@CMainFrame@@IAEJIJ@Z 00453dc0 f   MainFrm.obj
 0001:00052ec0       ?OnShowPopupMenu@CMainFrame@@MAEHPAVCBCGPPopupMenu@@@Z 00453ec0 f   MainFrm.obj
 0001:00052fa0       ?LoadMenuW@CMenu@@QAEHI@Z  00453fa0 f i MainFrm.obj
 0001:00052fd0       ?OnViewOutlookBar@CMainFrame@@IAEXXZ 00453fd0 f   MainFrm.obj
 0001:00053020       ?OnUpdateViewOutlookBar@CMainFrame@@IAEXPAVCCmdUI@@@Z 00454020 f   MainFrm.obj
 0001:00053060       ?OnViewCaptionBar@CMainFrame@@IAEXXZ 00454060 f   MainFrm.obj
 0001:000530b0       ?OnUpdateViewCaptionBar@CMainFrame@@IAEXPAVCCmdUI@@@Z 004540b0 f   MainFrm.obj
 0001:000530f0       ?OnViewFastLane@CMainFrame@@IAEXXZ 004540f0 f   MainFrm.obj
 0001:00053140       ?OnUpdateViewFastLane@CMainFrame@@IAEXPAVCCmdUI@@@Z 00454140 f   MainFrm.obj
 0001:00053180       ?ChangeSkin@CMainFrame@@AAEXI@Z 00454180 f   MainFrm.obj
 0001:00053350       ?OnAppLook@CMainFrame@@IAEXI@Z 00454350 f   MainFrm.obj
 0001:000533f0       ?OnUpdateAppLook@CMainFrame@@IAEXPAVCCmdUI@@@Z 004543f0 f   MainFrm.obj
 0001:00053420       ?CreateTaskPane@CMainFrame@@AAEHXZ 00454420 f   MainFrm.obj
 0001:00053540       ?CreateOutPut@CMainFrame@@AAEHXZ 00454540 f   MainFrm.obj
 0001:00053670       ?CreateCommonBar@CMainFrame@@AAEHXZ 00454670 f   MainFrm.obj
 0001:000538f0       ?OnCalc@CMainFrame@@IAEXXZ 004548f0 f   MainFrm.obj
 0001:00053920       ?OnNotepad@CMainFrame@@IAEXXZ 00454920 f   MainFrm.obj
 0001:00053950       ?OnLogPath@CMainFrame@@IAEXXZ 00454950 f   MainFrm.obj
 0001:00053a00       ?OnPrintTemplate@CMainFrame@@IAEXXZ 00454a00 f   MainFrm.obj
 0001:00053ab0       ?OnSpeechTemplate@CMainFrame@@IAEXXZ 00454ab0 f   MainFrm.obj
 0001:00053b60       ?OnMenuButtonToolHitTest@CMainFrame@@MAEHPAVCBCGPToolbarButton@@PAUtagTOOLINFOW@@@Z 00454b60 f   MainFrm.obj
 0001:00053c30       ?OnReplyMessage@CMainFrame@@IAEJIJ@Z 00454c30 f   MainFrm.obj
 0001:00053ce0       ?OnUpdateCredit@CMainFrame@@IAEXPAVCCmdUI@@@Z 00454ce0 f   MainFrm.obj
 0001:00053d20       ?SetUI_IBAP_CREDIT@CRightsManagement@NS_DAL@@QAEXPAVCCmdUI@@H@Z 00454d20 f i MainFrm.obj
 0001:00053d90       ?OnCredit@CMainFrame@@IAEXXZ 00454d90 f   MainFrm.obj
 0001:00053e40       ?Take_IBAP_CREDIT@CRightsManagement@NS_DAL@@QAEHH@Z 00454e40 f i MainFrm.obj
 0001:00053eb0       ?OnUpdateNewUser@CMainFrame@@IAEXPAVCCmdUI@@@Z 00454eb0 f   MainFrm.obj
 0001:00053f10       ?SetUI_IBAP_REGISTER@CRightsManagement@NS_DAL@@QAEXPAVCCmdUI@@H@Z 00454f10 f i MainFrm.obj
 0001:00053f80       ?OnNewUser@CMainFrame@@IAEXXZ 00454f80 f   MainFrm.obj
 0001:00054070       ?Take_IBAP_REGISTER@CRightsManagement@NS_DAL@@QAEHH@Z 00455070 f i MainFrm.obj
 0001:000540e0       ?OnAppAbout@CMainFrame@@IAEXXZ 004550e0 f   MainFrm.obj
 0001:00054150       ?OnDutyOff@CMainFrame@@IAEXXZ 00455150 f   MainFrm.obj
 0001:00054390       ?Take_IBAP_ONOFFDUTY@CRightsManagement@NS_DAL@@QAEHH@Z 00455390 f i MainFrm.obj
 0001:00054400       ?OnUpdateCreditReverse@CMainFrame@@IAEXPAVCCmdUI@@@Z 00455400 f   MainFrm.obj
 0001:00054440       ?SetUI_IBAP_CREDITREVERSE@CRightsManagement@NS_DAL@@QAEXPAVCCmdUI@@H@Z 00455440 f i MainFrm.obj
 0001:000544b0       ?OnCreditReverse@CMainFrame@@QAEXXZ 004554b0 f   MainFrm.obj
 0001:00054560       ?Take_IBAP_CREDITREVERSE@CRightsManagement@NS_DAL@@QAEHH@Z 00455560 f i MainFrm.obj
 0001:000545d0       ?OnSize@CMainFrame@@IAEXIHH@Z 004555d0 f   MainFrm.obj
 0001:00054660       ?UpdateStatusText@CMainFrame@@QAEXV?$CStringT@_WV?$StrTraitMFC_DLL@_WV?$ChTraitsCRT@_W@ATL@@@@@ATL@@@Z 00455660 f   MainFrm.obj
 0001:00054880       ?OnClose@CMainFrame@@IAEXXZ 00455880 f   MainFrm.obj
 0001:00054ae0       ?GetReturnQuantity@CRetailDetail@NS_DAL@@QBEHXZ 00455ae0 f i IBADAL-JXC.obj
 0001:00054ae0       ?GetCardSoldAmount@CShiftCash@NS_DAL@@QBEHXZ 00455ae0 f i IBADAL-USER.obj
 0001:00054ae0       ?GetCostExpense@CCardOpenInfo@NS_DAL@@QBEIXZ 00455ae0 f i IBADAL-USER.obj
 0001:00054ae0       ?GetMemberId@CCheckOutinfo@NS_DAL@@QBEIXZ 00455ae0 f i AllCheckOut.obj
 0001:00054ae0       ?GetSex@CActiveMember@@QBEIXZ 00455ae0 f i BrokenNetworkResume.obj
 0001:00054ae0       ?GetRetailType@CRetailVoucher@NS_DAL@@QBEIXZ 00455ae0 f i IBADAL-JXC.obj
 0001:00054ae0       ?GeCreditCardFun@CCreditCard@@QAEIXZ 00455ae0 f i CreditCard.obj
 0001:00054ae0       ?GetReadyState@CDevAccess@@QAEHXZ 00455ae0 f i DevAccess.obj
 0001:00054ae0       ?GetDeposit@CReturnedInfo@NS_DAL@@QBEIXZ 00455ae0 f i IBADAL-USER.obj
 0001:00054ae0       ?GetHasLoaded@CIBAConfig@@QBEHXZ 00455ae0 f i MainFrm.obj
 0001:00054ae0       ?GetBundleTimeId@CFullBundleTimeInfo@@QBEIXZ 00455ae0 f i BundleTimeListDlg.obj
 0001:00054ae0       ?GetMemberUserCount@CStatInfo@CComputerList@@QBEIXZ 00455ae0 f i ComputerListView.obj
 0001:00054b00       ?OpenIcon@CWnd@@QAEHXZ     00455b00 f i MainFrm.obj
 0001:00054b20       ?OnUpdateIbaSet@CMainFrame@@IAEXPAVCCmdUI@@@Z 00455b20 f   MainFrm.obj
 0001:00054b40       ?SetUI_IBAP_CONFIG@CRightsManagement@NS_DAL@@QAEXPAVCCmdUI@@H@Z 00455b40 f i MainFrm.obj
 0001:00054bb0       ?OnIbaSet@CMainFrame@@IAEXXZ 00455bb0 f   MainFrm.obj
 0001:00054c70       ?Take_IBAP_CONFIG@CRightsManagement@NS_DAL@@QAEHH@Z 00455c70 f i MainFrm.obj
 0001:00054ce0       ?OnUpdateNetbarSet@CMainFrame@@IAEXPAVCCmdUI@@@Z 00455ce0 f   MainFrm.obj
 0001:00054d00       ?SetUI_IBAP_NETBARSET@CRightsManagement@NS_DAL@@QAEXPAVCCmdUI@@H@Z 00455d00 f i MainFrm.obj
 0001:00054d70       ?OnNetbarSet@CMainFrame@@IAEXXZ 00455d70 f   MainFrm.obj
 0001:00054e00       ?Take_IBAP_NETBARSET@CRightsManagement@NS_DAL@@QAEHH@Z 00455e00 f i MainFrm.obj
 0001:00054e70       ?OnUpdateModifyPwd@CMainFrame@@IAEXPAVCCmdUI@@@Z 00455e70 f   MainFrm.obj
 0001:00054ed0       ?GetForbidModifyPwd@CNetBarConfig@@QAE?BHXZ 00455ed0 f i MainFrm.obj
 0001:00054ed0       ?GetCameraIndex@CIBAConfig@@QBEIXZ 00455ed0 f i DlgCapture.obj
 0001:00054ef0       ?SetUI_IBAP_MODIFYPWD@CRightsManagement@NS_DAL@@QAEXPAVCCmdUI@@H@Z 00455ef0 f i MainFrm.obj
 0001:00054f60       ?OnModifyPwd@CMainFrame@@IAEXXZ 00455f60 f   MainFrm.obj
 0001:00055030       ?Take_IBAP_MODIFYPWD@CRightsManagement@NS_DAL@@QAEHH@Z 00456030 f i MainFrm.obj
 0001:000550a0       ?OnCreditDirect@CMainFrame@@IAEXXZ 004560a0 f   MainFrm.obj
 0001:00055150       ?Take_IBAP_CREDITDIRECT@CRightsManagement@NS_DAL@@QAEHH@Z 00456150 f i MainFrm.obj
 0001:000551c0       ?OnUpdateModifyUserinfo@CMainFrame@@IAEXPAVCCmdUI@@@Z 004561c0 f   MainFrm.obj
 0001:00055220       ?GetNoModifyMember@CNetBarConfig@@QBEHXZ 00456220 f i MainFrm.obj
 0001:00055240       ?SetUI_IBAP_MODIFYUSER@CRightsManagement@NS_DAL@@QAEXPAVCCmdUI@@H@Z 00456240 f i MainFrm.obj
 0001:000552b0       ?OnModifyUserinfo@CMainFrame@@IAEXXZ 004562b0 f   MainFrm.obj
 0001:00055340       ?Take_IBAP_MODIFYUSER@CRightsManagement@NS_DAL@@QAEHH@Z 00456340 f i MainFrm.obj
 0001:000553b0       ?OnUpdateBoundTime@CMainFrame@@IAEXPAVCCmdUI@@@Z 004563b0 f   MainFrm.obj
 0001:000553f0       ?SetUI_IBAP_BUNDLETIME@CRightsManagement@NS_DAL@@QAEXPAVCCmdUI@@H@Z 004563f0 f i MainFrm.obj
 0001:00055460       ?OnBoundTime@CMainFrame@@IAEXXZ 00456460 f   MainFrm.obj
 0001:00055520       ?Take_IBAP_BUNDLETIME@CRightsManagement@NS_DAL@@QAEHH@Z 00456520 f i MainFrm.obj
 0001:00055590       ?OnUpdateChangeSN@CMainFrame@@IAEXPAVCCmdUI@@@Z 00456590 f   MainFrm.obj
 0001:000555d0       ?SetUI_IBAP_CHANGESN@CRightsManagement@NS_DAL@@QAEXPAVCCmdUI@@H@Z 004565d0 f i MainFrm.obj
 0001:00055640       ?OnChangeSN@CMainFrame@@IAEXXZ 00456640 f   MainFrm.obj
 0001:000556d0       ?Take_IBAP_CHANGESN@CRightsManagement@NS_DAL@@QAEHH@Z 004566d0 f i MainFrm.obj
 0001:00055740       ?OnUpdateConsumeList@CMainFrame@@IAEXPAVCCmdUI@@@Z 00456740 f   MainFrm.obj
 0001:00055780       ?Has_IBAP_CONSUMELIST@CRightsManagement@NS_DAL@@QAEHXZ 00456780 f i MainFrm.obj
 0001:000557f0       ?OnConsumeList@CMainFrame@@IAEXXZ 004567f0 f   MainFrm.obj
 0001:00055810       ?OnUpdateTermConsume@CMainFrame@@IAEXPAVCCmdUI@@@Z 00456810 f   MainFrm.obj
 0001:00055850       ?Has_IBAP_TERMCONSUME@CRightsManagement@NS_DAL@@QAEHXZ 00456850 f i MainFrm.obj
 0001:000558c0       ?OnTermConsume@CMainFrame@@IAEXXZ 004568c0 f   MainFrm.obj
 0001:000558e0       ?OnUpdateUpgrade@CMainFrame@@IAEXPAVCCmdUI@@@Z 004568e0 f   MainFrm.obj
 0001:00055940       ?GetCanNotUserUpgrade@CNetBarConfig@@QAE?BHXZ 00456940 f i MainFrm.obj
 0001:00055960       ?SetUI_IBAP_UPGRADE@CRightsManagement@NS_DAL@@QAEXPAVCCmdUI@@H@Z 00456960 f i MainFrm.obj
 0001:000559d0       ?OnUpgrade@CMainFrame@@IAEXXZ 004569d0 f   MainFrm.obj
 0001:00055a60       ?Take_IBAP_UPGRADE@CRightsManagement@NS_DAL@@QAEHH@Z 00456a60 f i MainFrm.obj
 0001:00055ad0       ?OnUpdateCardCredit@CMainFrame@@IAEXPAVCCmdUI@@@Z 00456ad0 f   MainFrm.obj
 0001:00055b10       ?SetUI_IBAP_CARDCREDIT@CRightsManagement@NS_DAL@@QAEXPAVCCmdUI@@H@Z 00456b10 f i MainFrm.obj
 0001:00055b80       ?OnCardCredit@CMainFrame@@IAEXXZ 00456b80 f   MainFrm.obj
 0001:00055d40       ?Take_IBAP_CARDCREDIT@CRightsManagement@NS_DAL@@QAEHH@Z 00456d40 f i MainFrm.obj
 0001:00055db0       ?OnUpdateShiftCasht@CMainFrame@@IAEXPAVCCmdUI@@@Z 00456db0 f   MainFrm.obj
 0001:00055e10       ?Has_IBAP_CASHSHIFTQUERY@CRightsManagement@NS_DAL@@QAEHXZ 00456e10 f i MainFrm.obj
 0001:00055e80       ?OnShiftCash@CMainFrame@@IAEXXZ 00456e80 f   MainFrm.obj
 0001:00055ea0       ?OnUpdateOperation@CMainFrame@@IAEXPAVCCmdUI@@@Z 00456ea0 f   MainFrm.obj
 0001:00055ee0       ?Has_IBAP_OPERATIONQUERY@CRightsManagement@NS_DAL@@QAEHXZ 00456ee0 f i MainFrm.obj
 0001:00055f50       ?OnOperation@CMainFrame@@IAEXXZ 00456f50 f   MainFrm.obj
 0001:00055f70       ?OnRealName@CMainFrame@@IAEJIJ@Z 00456f70 f   MainFrm.obj
 0001:000560d0       ?OnRnOpencard@CMainFrame@@IAEXXZ 004570d0 f   MainFrm.obj
 0001:00056100       ?OnRnLose@CMainFrame@@IAEXXZ 00457100 f   MainFrm.obj
 0001:00056130       ?OnRnModifypwd@CMainFrame@@IAEXXZ 00457130 f   MainFrm.obj
 0001:00056160       ?OnRnAddmember@CMainFrame@@IAEXXZ 00457160 f   MainFrm.obj
 0001:00056190       ?OnRealnameSet@CMainFrame@@IAEXXZ 00457190 f   MainFrm.obj
 0001:00056220       ?OnClientSet@CMainFrame@@IAEXXZ 00457220 f   MainFrm.obj
 0001:000562a0       ?OnTimeChange@CMainFrame@@IAEXXZ 004572a0 f   MainFrm.obj
 0001:000562d0       ?OnDestroy@CMainFrame@@IAEXXZ 004572d0 f   MainFrm.obj
 0001:000562f0       ?OnUpdateSell@CMainFrame@@IAEXPAVCCmdUI@@@Z 004572f0 f   MainFrm.obj
 0001:00056330       ?SetUI_IBAP_RETAIL@CRightsManagement@NS_DAL@@QAEXPAVCCmdUI@@H@Z 00457330 f i MainFrm.obj
 0001:000563a0       ?OnSell@CMainFrame@@IAEXXZ 004573a0 f   MainFrm.obj
 0001:000563d0       ?Take_IBAP_RETAIL@CRightsManagement@NS_DAL@@QAEHH@Z 004573d0 f i MainFrm.obj
 0001:00056440       ?OnChildClose@CMainFrame@@IAEJIJ@Z 00457440 f   MainFrm.obj
 0001:00056460       ?OnCopyData@CMainFrame@@IAEHPAVCWnd@@PAUtagCOPYDATASTRUCT@@@Z 00457460 f   MainFrm.obj
 0001:000566b0       ?OnCardIn@CMainFrame@@IAEJIJ@Z 004576b0 f   MainFrm.obj
 0001:000566f0       ?StartIBA@CMainFrame@@QAEXXZ 004576f0 f   MainFrm.obj
 0001:00056af0       ?GetJubaoInf@CMainFrame@@QAEPAVCJuBao@@XZ 00457af0 f i MainFrm.obj
 0001:00056b10       ?OnStartIBAEnd@CMainFrame@@IAEXXZ 00457b10 f   MainFrm.obj
 0001:00056b40       ?OnTimer@CMainFrame@@IAEXI@Z 00457b40 f   MainFrm.obj
 0001:000572e0       ?PreTranslateMessage@CMainFrame@@MAEHPAUtagMSG@@@Z 004582e0 f   MainFrm.obj
 0001:00057320       ?OnPointExchange@CMainFrame@@IAEXXZ 00458320 f   MainFrm.obj
 0001:000573b0       ?Take_IBAP_USEPOINT@CRightsManagement@NS_DAL@@QAEHH@Z 004583b0 f i MainFrm.obj
 0001:00057420       ?OnUpdatePointexchange@CMainFrame@@IAEXPAVCCmdUI@@@Z 00458420 f   MainFrm.obj
 0001:00057460       ?SetUI_IBAP_USEPOINT@CRightsManagement@NS_DAL@@QAEXPAVCCmdUI@@H@Z 00458460 f i MainFrm.obj
 0001:000574d0       ?OnAgent@CMainFrame@@IAEXXZ 004584d0 f   MainFrm.obj
 0001:00057540       ?OnSeatoperation@CMainFrame@@IAEXXZ 00458540 f   MainFrm.obj
 0001:00057560       ?OnExecuteRealName@CMainFrame@@IAEJIJ@Z 00458560 f   MainFrm.obj
 0001:00057590       ?OnServerweb@CMainFrame@@IAEXXZ 00458590 f   MainFrm.obj
 0001:000575c0       ?OnShortmsgquery@CMainFrame@@IAEXXZ 004585c0 f   MainFrm.obj
 0001:000575e0       ?OnCardderegister@CMainFrame@@IAEXXZ 004585e0 f   MainFrm.obj
 0001:00057660       ?OnCardopenconsume@CMainFrame@@IAEXXZ 00458660 f   MainFrm.obj
 0001:00057680       ?OnScan@CMainFrame@@IAEXI@Z 00458680 f   MainFrm.obj
 0001:000577e0       ?OnUpdateScan@CMainFrame@@IAEXPAVCCmdUI@@@Z 004587e0 f   MainFrm.obj
 0001:00057810       ?OnAllLog@CMainFrame@@IAEXXZ 00458810 f   MainFrm.obj
 0001:00057860       ?OnUpdateAllLog@CMainFrame@@IAEXPAVCCmdUI@@@Z 00458860 f   MainFrm.obj
 0001:00057890       ?OnUpdateCreditDirect@CMainFrame@@QAEXPAVCCmdUI@@@Z 00458890 f   MainFrm.obj
 0001:00057900       ?OnUpdateRealName@CMainFrame@@IAEXPAVCCmdUI@@@Z 00458900 f   MainFrm.obj
 0001:00057950       ?OnUpdateCardDeregister@CMainFrame@@IAEXPAVCCmdUI@@@Z 00458950 f   MainFrm.obj
 0001:000579a0       ?OnMergemember@CMainFrame@@IAEXXZ 004589a0 f   MainFrm.obj
 0001:00057a30       ?Take_IBAP_MERGEMEMBER@CRightsManagement@NS_DAL@@QAEHH@Z 00458a30 f i MainFrm.obj
 0001:00057aa0       ?OnUpdateMergemember@CMainFrame@@IAEXPAVCCmdUI@@@Z 00458aa0 f   MainFrm.obj
 0001:00057ae0       ?SetUI_IBAP_MERGEMEMBER@CRightsManagement@NS_DAL@@QAEXPAVCCmdUI@@H@Z 00458ae0 f i MainFrm.obj
 0001:00057b50       ?OnMuticheckout@CMainFrame@@IAEXXZ 00458b50 f   MainFrm.obj
 0001:00057c00       ?OnUpdateMuticheckout@CMainFrame@@IAEXPAVCCmdUI@@@Z 00458c00 f   MainFrm.obj
 0001:00057c20       ?OnBoundtime2@CMainFrame@@IAEXXZ 00458c20 f   MainFrm.obj
 0001:00057cb0       ?Take_IBAP_BUNDLETIME2@CRightsManagement@NS_DAL@@QAEHH@Z 00458cb0 f i MainFrm.obj
 0001:00057d20       ?OnUpdateBoundtime2@CMainFrame@@IAEXPAVCCmdUI@@@Z 00458d20 f   MainFrm.obj
 0001:00057d60       ?SetUI_IBAP_BUNDLETIME2@CRightsManagement@NS_DAL@@QAEXPAVCCmdUI@@H@Z 00458d60 f i MainFrm.obj
 0001:00057dd0       ?OnUpdateRealNameSet@CMainFrame@@IAEXPAVCCmdUI@@@Z 00458dd0 f   MainFrm.obj
 0001:00057e00       ?UpdateToolbarLastID@CMainFrame@@QAEXABV?$CStringT@_WV?$StrTraitMFC_DLL@_WV?$ChTraitsCRT@_W@ATL@@@@@ATL@@H@Z 00458e00 f   MainFrm.obj
 0001:00057f50       ?OnZengshoubao@CMainFrame@@IAEXXZ 00458f50 f   MainFrm.obj
 0001:00057f70       ?OnLabelClick@CMainFrame@@IAEXXZ 00458f70 f   MainFrm.obj
 0001:00058020       ?OnToolbarSetLabelText@CMainFrame@@IAEJIJ@Z 00459020 f   MainFrm.obj
 0001:00058090       ?OnUpdateOffDuty@CMainFrame@@IAEXPAVCCmdUI@@@Z 00459090 f   MainFrm.obj
 0001:00058090       ?OnUpdateCardopenconsume@CMainFrame@@IAEXPAVCCmdUI@@@Z 00459090 f   MainFrm.obj
 0001:000580c0       ?OnDianKa@CMainFrame@@IAEXXZ 004590c0 f   MainFrm.obj
 0001:000580d0       ?OnUpdateDianka@CMainFrame@@IAEXPAVCCmdUI@@@Z 004590d0 f   MainFrm.obj
 0001:00058190       ?GetSuspendColor@CIBAConfig@@QBEKXZ 00459190 f i MonitorSetPage.obj
 0001:00058190       ?GetEnableVirualRun@CNetBarConfig@@QAE?BHXZ 00459190 f i MainFrm.obj
 0001:000581b0       ?OnCmdMsg@CMainFrame@@UAEHIHPAXPAUAFX_CMDHANDLERINFO@@@Z 004591b0 f   MainFrm.obj
 0001:000581e0       ?OnUpdateIBAStatus@CMainFrame@@IAEJIJ@Z 004591e0 f   MainFrm.obj
 0001:00058220       ?OnCanClose@CMainFrame@@IAEJIJ@Z 00459220 f   MainFrm.obj
 0001:00058280       ?ShowNotice@CMainFrame@@QAEXPB_W00H@Z 00459280 f   MainFrm.obj
 0001:000583c0       ?OnRoom@CMainFrame@@IAEXXZ 004593c0 f   MainFrm.obj
 0001:00058460       ?OnLockScreen@CMainFrame@@IAEXXZ 00459460 f   MainFrm.obj
 0001:000584e0       ?OnUpdateSeatoperation@CMainFrame@@IAEXPAVCCmdUI@@@Z 004594e0 f   MainFrm.obj
 0001:000584e0       ?OnUpdateRoom@CMainFrame@@IAEXPAVCCmdUI@@@Z 004594e0 f   MainFrm.obj
 0001:00058510       ?OnClientDianka@CMainFrame@@IAEJIJ@Z 00459510 f   MainFrm.obj
 0001:00058540       ?OnHotKey@CMainFrame@@IAEJIJ@Z 00459540 f   MainFrm.obj
 0001:000586b0       ?OnReadCard@CMainFrame@@IAEXXZ 004596b0 f   MainFrm.obj
 0001:000586f0       ??0?$CArray@VCLocalConsumeInfo@NS_DAL@@AAV12@@@QAE@XZ 004596f0 f i MainFrm.obj
 0001:00058740       ??1?$CArray@VCLocalConsumeInfo@NS_DAL@@AAV12@@@UAE@XZ 00459740 f i MainFrm.obj
 0001:000587b0       ?Serialize@?$CArray@VCLocalConsumeInfo@NS_DAL@@AAV12@@@UAEXAAVCArchive@@@Z 004597b0 f i MainFrm.obj
 0001:00058820       ??_E?$CArray@VCLocalConsumeInfo@NS_DAL@@AAV12@@@UAEPAXI@Z 00459820 f i MainFrm.obj
 0001:00058820       ??_G?$CArray@VCLocalConsumeInfo@NS_DAL@@AAV12@@@UAEPAXI@Z 00459820 f i MainFrm.obj
 0001:00058850       ??_GCLocalConsumeInfo@NS_DAL@@QAEPAXI@Z 00459850 f i MainFrm.obj
 0001:00058880       ?SetSize@?$CArray@VCLocalConsumeInfo@NS_DAL@@AAV12@@@QAEXHH@Z 00459880 f i MainFrm.obj
 0001:00058cc0       ??$SerializeElements@VCLocalConsumeInfo@NS_DAL@@@@YGXAAVCArchive@@PAVCLocalConsumeInfo@NS_DAL@@H@Z 00459cc0 f i MainFrm.obj
 0001:00058d90       ?GetRuntimeClass@CDlgMemberInfo@@UBEPAUCRuntimeClass@@XZ 00459d90 f   MemberInfoDlg.obj
 0001:00058da0       ??0CDlgMemberInfo@@QAE@PAVCWnd@@@Z 00459da0 f   MemberInfoDlg.obj
 0001:00058ea0       ??_GCDlgMemberInfo@@UAEPAXI@Z 00459ea0 f i MemberInfoDlg.obj
 0001:00058ea0       ??_ECDlgMemberInfo@@UAEPAXI@Z 00459ea0 f i MemberInfoDlg.obj
 0001:00058ed0       ??1CDlgMemberInfo@@UAE@XZ  00459ed0 f   MemberInfoDlg.obj
 0001:00058fa0       ?DoDataExchange@CDlgMemberInfo@@MAEXPAVCDataExchange@@@Z 00459fa0 f   MemberInfoDlg.obj
 0001:00058fe0       ?GetMessageMap@CDlgMemberInfo@@MBEPBUAFX_MSGMAP@@XZ 00459fe0 f   MemberInfoDlg.obj
 0001:00058ff0       ?OnOK@CDlgMemberInfo@@MAEXXZ 00459ff0 f   MemberInfoDlg.obj
 0001:00059010       ?OnCancel@CRealNameDeRegDlg@@MAEXXZ 0045a010 f   CardDeRegisterDlg.obj
 0001:00059010       ?OnCancel@CDefineBundleTimeDlg@@MAEXXZ 0045a010 f   DefineBundTimeDlg.obj
 0001:00059010       ?OnCancel@CJXCCommoditySelDlg@@MAEXXZ 0045a010 f   JXCCommoditySelDlg.obj
 0001:00059010       ?OnCancel@CDlgBundTimeSelfDef@@MAEXXZ 0045a010 f   SelfDefineBundTimeDlg.obj
 0001:00059010       ?OnBnClickedCancel@CUnlockScreenDlg@@IAEXXZ 0045a010 f   UnlockScreenDlg.obj
 0001:00059010       ?OnBnClickedCancel@CDlgAddTerm@@IAEXXZ 0045a010 f   AddTerminalDlg.obj
 0001:00059010       ?OnCancel@CDlgAllCheckOut@@MAEXXZ 0045a010 f   AllCheckOut.obj
 0001:00059010       ?OnCancel@CIBADialog@@MAEXXZ 0045a010 f   IBADialog.obj
 0001:00059010       ?OnCancel@CDlgMemberInfo@@MAEXXZ 0045a010 f   MemberInfoDlg.obj
 0001:00059030       ?OnNMDblclkListMemberinfo@CDlgMemberInfo@@IAEXPAUtagNMHDR@@PAJ@Z 0045a030 f   MemberInfoDlg.obj
 0001:00059030       ?OnNMDblclkListBundletime@CDlgBundleTimeList@@IAEXPAUtagNMHDR@@PAJ@Z 0045a030 f   BundleTimeListDlg.obj
 0001:00059060       ?SetMemberInfoToList@CDlgMemberInfo@@AAEXI@Z 0045a060 f   MemberInfoDlg.obj
 0001:000590f0       ?InitList@CDlgMemberInfo@@AAEXXZ 0045a0f0 f   MemberInfoDlg.obj
 0001:00059210       ?GetMemberInfoFromList@CDlgMemberInfo@@AAEHXZ 0045a210 f   MemberInfoDlg.obj
 0001:00059470       ?OnInitDialog@CDlgMemberInfo@@MAEHXZ 0045a470 f   MemberInfoDlg.obj
 0001:00059540       ?FindInfoFromServer@CDlgMemberInfo@@AAEXI@Z 0045a540 f   MemberInfoDlg.obj
 0001:00059ae0       ?GetPersonalID@CDlgMemberInfo@@QBE?AV?$CStringT@_WV?$StrTraitMFC_DLL@_WV?$ChTraitsCRT@_W@ATL@@@@@ATL@@XZ 0045aae0 f i MemberInfoDlg.obj
 0001:00059b20       ?FindInfoFromLocal@CDlgMemberInfo@@AAEXHH@Z 0045ab20 f   MemberInfoDlg.obj
 0001:0005a030       ?FindInfoFromActiveMemberList@CDlgMemberInfo@@AAEXXZ 0045b030 f   MemberInfoDlg.obj
 0001:0005a4d0       ?SetHotItem@CListCtrl@@QAEHH@Z 0045b4d0 f i MemberInfoDlg.obj
 0001:0005a500       ?GetRuntimeClass@CMergeMemberDlg@@UBEPAUCRuntimeClass@@XZ 0045b500 f   MergeMemberDlg.obj
 0001:0005a510       ??0CMergeMemberDlg@@QAE@PAVCWnd@@@Z 0045b510 f   MergeMemberDlg.obj
 0001:0005a7c0       ??_GCMergeMemberDlg@@UAEPAXI@Z 0045b7c0 f i MergeMemberDlg.obj
 0001:0005a7c0       ??_ECMergeMemberDlg@@UAEPAXI@Z 0045b7c0 f i MergeMemberDlg.obj
 0001:0005a7f0       ??1CMergeMemberDlg@@UAE@XZ 0045b7f0 f   MergeMemberDlg.obj
 0001:0005aa50       ?DoDataExchange@CMergeMemberDlg@@MAEXPAVCDataExchange@@@Z 0045ba50 f   MergeMemberDlg.obj
 0001:0005ac90       ?GetMessageMap@CMergeMemberDlg@@MBEPBUAFX_MSGMAP@@XZ 0045bc90 f   MergeMemberDlg.obj
 0001:0005aca0       ?OnBnClickedOk@CMergeMemberDlg@@QAEXXZ 0045bca0 f   MergeMemberDlg.obj
 0001:0005b010       ?InitControls@CMergeMemberDlg@@AAEXXZ 0045c010 f   MergeMemberDlg.obj
 0001:0005b110       ?OnInitDialog@CMergeMemberDlg@@UAEHXZ 0045c110 f   MergeMemberDlg.obj
 0001:0005b130       ?PreTranslateMessage@CMergeMemberDlg@@UAEHPAUtagMSG@@@Z 0045c130 f   MergeMemberDlg.obj
 0001:0005b220       ?OnCtlColor@CMergeMemberDlg@@QAEPAUHBRUSH__@@PAVCDC@@PAVCWnd@@I@Z 0045c220 f   MergeMemberDlg.obj
 0001:0005b280       ?OnGetBalanceOK@CMergeMemberDlg@@EAEXAAVCBalanceMethod@NS_SERVLET@@@Z 0045c280 f   MergeMemberDlg.obj
 0001:0005b880       ?OnOldCard@CMergeMemberDlg@@EAEXII@Z 0045c880 f   MergeMemberDlg.obj
 0001:0005b960       ?ClearData@CMergeMemberDlg@@EAEXXZ 0045c960 f   MergeMemberDlg.obj
 0001:0005bb10       ?OnBnClickedButtonQuery@CMergeMemberDlg@@QAEXXZ 0045cb10 f   MergeMemberDlg.obj
 0001:0005bc20       ?DoQuery@CMergeMemberDlg@@QAEXV?$CStringT@_WV?$StrTraitMFC_DLL@_WV?$ChTraitsCRT@_W@ATL@@@@@ATL@@@Z 0045cc20 f   MergeMemberDlg.obj
 0001:0005bd50       ?OnEnSetfocusEditIdcardsno@CMergeMemberDlg@@QAEXXZ 0045cd50 f   MergeMemberDlg.obj
 0001:0005bd70       ?OnEnSetfocusEditIdcardsno2@CMergeMemberDlg@@QAEXXZ 0045cd70 f   MergeMemberDlg.obj
 0001:0005bd90       ?OnNewCard@CMergeMemberDlg@@EAEXI@Z 0045cd90 f   MergeMemberDlg.obj
 0001:0005be10       ?GetRuntimeClass@CModifyMemberDlg@@UBEPAUCRuntimeClass@@XZ 0045ce10 f   ModifyMemberDlg.obj
 0001:0005be20       ??0CModifyMemberDlg@@QAE@PAVCWnd@@HH@Z 0045ce20 f   ModifyMemberDlg.obj
 0001:0005c040       ??_GCModifyMemberDlg@@UAEPAXI@Z 0045d040 f i ModifyMemberDlg.obj
 0001:0005c040       ??_ECModifyMemberDlg@@UAEPAXI@Z 0045d040 f i ModifyMemberDlg.obj
 0001:0005c070       ??1CModifyMemberDlg@@UAE@XZ 0045d070 f   ModifyMemberDlg.obj
 0001:0005c1c0       ?DoDataExchange@CModifyMemberDlg@@MAEXPAVCDataExchange@@@Z 0045d1c0 f   ModifyMemberDlg.obj
 0001:0005c300       ?GetMessageMap@CModifyMemberDlg@@MBEPBUAFX_MSGMAP@@XZ 0045d300 f   ModifyMemberDlg.obj
 0001:0005c310       ?OnInitDialog@CModifyMemberDlg@@MAEHXZ 0045d310 f   ModifyMemberDlg.obj
 0001:0005c5c0       ?GetTelVerify@CNetBarConfig@@QAEIXZ 0045d5c0 f i ModifyMemberDlg.obj
 0001:0005c5e0       ?OnBnClickedButtonModify@CModifyMemberDlg@@IAEXXZ 0045d5e0 f   ModifyMemberDlg.obj
 0001:0005ccf0       ?ClearData@CModifyMemberDlg@@MAEXXZ 0045dcf0 f   ModifyMemberDlg.obj
 0001:0005cd90       ?OnOldCard@CModifyMemberDlg@@MAEXII@Z 0045dd90 f   ModifyMemberDlg.obj
 0001:0005ce70       ?OnNewCard@CModifyMemberDlg@@MAEXI@Z 0045de70 f   ModifyMemberDlg.obj
 0001:0005cf10       ?OnGetBalanceOK@CModifyMemberDlg@@MAEXAAVCBalanceMethod@NS_SERVLET@@@Z 0045df10 f   ModifyMemberDlg.obj
 0001:0005cf40       ?SetUserInfo@CModifyMemberDlg@@QAEXAAVCBalanceMethod@NS_SERVLET@@@Z 0045df40 f   ModifyMemberDlg.obj
 0001:0005d300       ?UpdateUI@CModifyMemberDlg@@IAEXXZ 0045e300 f   ModifyMemberDlg.obj
 0001:0005d3a0       ?GetRuntimeClass@CModifyPwdDlg@@UBEPAUCRuntimeClass@@XZ 0045e3a0 f   ModifyPwdDlg.obj
 0001:0005d3b0       ??0CModifyPwdDlg@@QAE@PAVCWnd@@@Z 0045e3b0 f   ModifyPwdDlg.obj
 0001:0005d4b0       ??_ECModifyPwdDlg@@UAEPAXI@Z 0045e4b0 f i ModifyPwdDlg.obj
 0001:0005d4b0       ??_GCModifyPwdDlg@@UAEPAXI@Z 0045e4b0 f i ModifyPwdDlg.obj
 0001:0005d4e0       ??1CModifyPwdDlg@@UAE@XZ   0045e4e0 f   ModifyPwdDlg.obj
 0001:0005d550       ?DoDataExchange@CModifyPwdDlg@@MAEXPAVCDataExchange@@@Z 0045e550 f   ModifyPwdDlg.obj
 0001:0005d630       ?GetMessageMap@CModifyPwdDlg@@MBEPBUAFX_MSGMAP@@XZ 0045e630 f   ModifyPwdDlg.obj
 0001:0005d640       ?OnBnClickedOk@CModifyPwdDlg@@IAEXXZ 0045e640 f   ModifyPwdDlg.obj
 0001:0005d910       ?OnInitDialog@CModifyPwdDlg@@MAEHXZ 0045e910 f   ModifyPwdDlg.obj
 0001:0005d9f0       ?ClearData@CModifyPwdDlg@@MAEXXZ 0045e9f0 f   ModifyPwdDlg.obj
 0001:0005da80       ?OnOldCard@CModifyPwdDlg@@MAEXII@Z 0045ea80 f   ModifyPwdDlg.obj
 0001:0005daf0       ?OnNewCard@CModifyPwdDlg@@MAEXI@Z 0045eaf0 f   ModifyPwdDlg.obj
 0001:0005db50       ?OnGetBalanceOK@CModifyPwdDlg@@MAEXAAVCBalanceMethod@NS_SERVLET@@@Z 0045eb50 f   ModifyPwdDlg.obj
 0001:0005dd00       ?OnTimer@CCreditReverseDlg@@QAEXI@Z 0045ed00 f   CreditReverseDlg.obj
 0001:0005dd00       ?OnTimer@CModifyPwdDlg@@QAEXI@Z 0045ed00 f   ModifyPwdDlg.obj
 0001:0005dd00       ?OnTimer@CNDCardCreditDlg@@QAEXI@Z 0045ed00 f   NDCardCreditDlg.obj
 0001:0005dd00       ?OnTimer@CNDCreditDirectDlg@@QAEXI@Z 0045ed00 f   NDCreditDirectDlg.obj
 0001:0005dd50       ?DoLocalModeQuery@CModifyPwdDlg@@MAEHXZ 0045ed50 f   ModifyPwdDlg.obj
 0001:0005de30       ?DoLocalModeOperate@CModifyPwdDlg@@MAEHXZ 0045ee30 f   ModifyPwdDlg.obj
 0001:0005df20       ?GetRuntimeClass@CSetPageOfMonitor2@@UBEPAUCRuntimeClass@@XZ 0045ef20 f   MonitorSet2Dlg.obj
 0001:0005df30       ??0CSetPageOfMonitor2@@QAE@XZ 0045ef30 f   MonitorSet2Dlg.obj
 0001:0005dfe0       ??_GCSetPageOfMonitor2@@UAEPAXI@Z 0045efe0 f i MonitorSet2Dlg.obj
 0001:0005dfe0       ??_ECSetPageOfMonitor2@@UAEPAXI@Z 0045efe0 f i MonitorSet2Dlg.obj
 0001:0005e010       ??1CSetPageOfMonitor2@@UAE@XZ 0045f010 f   MonitorSet2Dlg.obj
 0001:0005e0a0       ?DoDataExchange@CSetPageOfMonitor2@@MAEXPAVCDataExchange@@@Z 0045f0a0 f   MonitorSet2Dlg.obj
 0001:0005e130       ?GetMessageMap@CSetPageOfMonitor2@@MBEPBUAFX_MSGMAP@@XZ 0045f130 f   MonitorSet2Dlg.obj
 0001:0005e140       ?OnInitDialog@CSetPageOfMonitor2@@UAEHXZ 0045f140 f   MonitorSet2Dlg.obj
 0001:0005e470       ?GetOpenAfterEnter@CIBAConfig@@QBEHXZ 0045f470 f i MonitorSet2Dlg.obj
 0001:0005e490       ?GetMinMoney@CIBAConfig@@QBEIXZ 0045f490 f i MonitorSet2Dlg.obj
 0001:0005e4b0       ?OnOK@CSetPageOfMonitor2@@UAEXXZ 0045f4b0 f   MonitorSet2Dlg.obj
 0001:0005e570       ?SetOpenAfterEnter@CIBAConfig@@QAEXH@Z 0045f570 f i MonitorSet2Dlg.obj
 0001:0005e590       ?SetMinMoney@CIBAConfig@@QAEXI@Z 0045f590 f i MonitorSet2Dlg.obj
 0001:0005e5b0       ?OnCbnSelchangeComboUsertype@CSetPageOfMonitor2@@QAEXXZ 0045f5b0 f   MonitorSet2Dlg.obj
 0001:0005e650       ?OnBnClickedButtonClusertype@CSetPageOfMonitor2@@QAEXXZ 0045f650 f   MonitorSet2Dlg.obj
 0001:0005e6a0       ?GetCount@CListBox@@QBEHXZ 0045f6a0 f i MonitorSet2Dlg.obj
 0001:0005e6d0       ?GetItemData@CListBox@@QBEKH@Z 0045f6d0 f i MonitorSet2Dlg.obj
 0001:0005e700       ?SetItemData@CListBox@@QAEHHK@Z 0045f700 f i MonitorSet2Dlg.obj
 0001:0005e730       ?AddString@CListBox@@QAEHPB_W@Z 0045f730 f i MonitorSet2Dlg.obj
 0001:0005e760       ??0CCheckListBox@@QAE@XZ   0045f760 f i MonitorSet2Dlg.obj
 0001:0005e7d0       ?EnableActiveAccessibility@CWnd@@QAEXXZ 0045f7d0 f i MonitorSet2Dlg.obj
 0001:0005e7f0       ??0CListBox@@QAE@XZ        0045f7f0 f i MonitorSet2Dlg.obj
 0001:0005e810       ??_GCListBox@@UAEPAXI@Z    0045f810 f i MonitorSet2Dlg.obj
 0001:0005e810       ??_ECListBox@@UAEPAXI@Z    0045f810 f i MonitorSet2Dlg.obj
 0001:0005e840       ??_GCCheckListBox@@UAEPAXI@Z 0045f840 f i MonitorSet2Dlg.obj
 0001:0005e840       ??_ECCheckListBox@@UAEPAXI@Z 0045f840 f i MonitorSet2Dlg.obj
 0001:0005e870       ??1CCheckListBox@@UAE@XZ   0045f870 f i MonitorSet2Dlg.obj
 0001:0005e890       ?GetRuntimeClass@CSetPageOfMonitor@@UBEPAUCRuntimeClass@@XZ 0045f890 f   MonitorSetPage.obj
 0001:0005e8a0       ??0CSetPageOfMonitor@@QAE@XZ 0045f8a0 f   MonitorSetPage.obj
 0001:0005e9e0       ??_GCSetPageOfMonitor@@UAEPAXI@Z 0045f9e0 f i MonitorSetPage.obj
 0001:0005e9e0       ??_ECSetPageOfMonitor@@UAEPAXI@Z 0045f9e0 f i MonitorSetPage.obj
 0001:0005ea10       ??1CSetPageOfMonitor@@UAE@XZ 0045fa10 f   MonitorSetPage.obj
 0001:0005eb30       ?DoDataExchange@CSetPageOfMonitor@@MAEXPAVCDataExchange@@@Z 0045fb30 f   MonitorSetPage.obj
 0001:0005ec50       ?GetMessageMap@CSetPageOfMonitor@@MBEPBUAFX_MSGMAP@@XZ 0045fc50 f   MonitorSetPage.obj
 0001:0005ec60       ?OnOK@CSetPageOfMonitor@@MAEXXZ 0045fc60 f   MonitorSetPage.obj
 0001:0005edb0       ?SetUnLockColor@CIBAConfig@@QAEXK@Z 0045fdb0 f i MonitorSetPage.obj
 0001:0005edd0       ?SetSuspendColor@CIBAConfig@@QAEXK@Z 0045fdd0 f i MonitorSetPage.obj
 0001:0005edf0       ?SetLittleMoneyColor@CIBAConfig@@QAEXK@Z 0045fdf0 f i MonitorSetPage.obj
 0001:0005ee10       ?SetBlackColor@CIBAConfig@@QAEXK@Z 0045fe10 f i MonitorSetPage.obj
 0001:0005ee30       ?SetVIPColor@CIBAConfig@@QAEXK@Z 0045fe30 f i MonitorSetPage.obj
 0001:0005ee50       ?SetThiefColor@CIBAConfig@@QAEXK@Z 0045fe50 f i MonitorSetPage.obj
 0001:0005ee70       ?SetBirthDayColor@CIBAConfig@@QAEXK@Z 0045fe70 f i MonitorSetPage.obj
 0001:0005ee90       ?SetLockScreenColor@CIBAConfig@@QAEXK@Z 0045fe90 f i MonitorSetPage.obj
 0001:0005eeb0       ?SetOffLineColor@CIBAConfig@@QAEXK@Z 0045feb0 f i MonitorSetPage.obj
 0001:0005eed0       ?SetOnLineColor@CIBAConfig@@QAEXK@Z 0045fed0 f i MonitorSetPage.obj
 0001:0005eef0       ?SetBundTimeColor@CIBAConfig@@QAEXK@Z 0045fef0 f i MonitorSetPage.obj
 0001:0005ef10       ?OnInitDialog@CSetPageOfMonitor@@MAEHXZ 0045ff10 f   MonitorSetPage.obj
 0001:0005f2c0       ?GetBlackColor@CIBAConfig@@QBEKXZ 004602c0 f i MonitorSetPage.obj
 0001:0005f2c0       ?GetEnableJuBao@CNetBarConfig@@QAE?BHXZ 004602c0 f i MainFrm.obj
 0001:0005f2e0       ?GetLockScreenColor@CIBAConfig@@QBEKXZ 004602e0 f i MonitorSetPage.obj
 0001:0005f300       ?GetEnableID2Reader@CNetBarConfig@@QAE?BHXZ 00460300 f i MainFrm.obj
 0001:0005f300       ?GetOnLineColor@CIBAConfig@@QBEKXZ 00460300 f i MonitorSetPage.obj
 0001:0005f320       ?GetBundTimeColor@CIBAConfig@@QBEKXZ 00460320 f i MonitorSetPage.obj
 0001:0005f340       ?GetRuntimeClass@CMsgBoxDlg@@UBEPAUCRuntimeClass@@XZ 00460340 f   MsgBoxDlg.obj
 0001:0005f350       ??0CMsgBoxDlg@@QAE@PAVCWnd@@@Z 00460350 f   MsgBoxDlg.obj
 0001:0005f420       ??_GCMsgBoxDlg@@UAEPAXI@Z  00460420 f i MsgBoxDlg.obj
 0001:0005f420       ??_ECMsgBoxDlg@@UAEPAXI@Z  00460420 f i MsgBoxDlg.obj
 0001:0005f450       ??1CMsgBoxDlg@@UAE@XZ      00460450 f   MsgBoxDlg.obj
 0001:0005f4d0       ?DoDataExchange@CMsgBoxDlg@@MAEXPAVCDataExchange@@@Z 004604d0 f   MsgBoxDlg.obj
 0001:0005f510       ?GetMessageMap@CMsgBoxDlg@@MBEPBUAFX_MSGMAP@@XZ 00460510 f   MsgBoxDlg.obj
 0001:0005f520       ?OnInitDialog@CMsgBoxDlg@@MAEHXZ 00460520 f   MsgBoxDlg.obj
 0001:0005f5d0       ?OnPaint@CMsgBoxDlg@@IAEXXZ 004605d0 f   MsgBoxDlg.obj
 0001:0005f670       ?OnBnClickedCancel@CMsgBoxDlg@@IAEXXZ 00460670 f   MsgBoxDlg.obj
 0001:0005f690       ?OnBnClickedNo@CMsgBoxDlg@@IAEXXZ 00460690 f   MsgBoxDlg.obj
 0001:0005f6b0       ?OnBnClickedYes@CMsgBoxDlg@@IAEXXZ 004606b0 f   MsgBoxDlg.obj
 0001:0005f6d0       ?OnBnClickedRetryConnection@CMsgBoxDlg@@IAEXXZ 004606d0 f   MsgBoxDlg.obj
 0001:0005f6f0       ?OnBnClickedEnterLocal@CMsgBoxDlg@@IAEXXZ 004606f0 f   MsgBoxDlg.obj
 0001:0005f710       ?InitIcon@CMsgBoxDlg@@IAEXXZ 00460710 f   MsgBoxDlg.obj
 0001:0005f810       ?InitButton@CMsgBoxDlg@@IAEXXZ 00460810 f   MsgBoxDlg.obj
 0001:0005fc60       ?InitWindow@CMsgBoxDlg@@IAEXXZ 00460c60 f   MsgBoxDlg.obj
 0001:0005fe10       ?Size@CRect@@QBE?AVCSize@@XZ 00460e10 f i MsgBoxDlg.obj
 0001:0005fe50       ?PreTranslateMessage@CMsgBoxDlg@@MAEHPAUtagMSG@@@Z 00460e50 f   MsgBoxDlg.obj
 0001:0005ff40       ?FormatText@CMsgBoxDlg@@IAEXXZ 00460f40 f   MsgBoxDlg.obj
 0001:00060090       ?SetText@CMsgBoxDlg@@QAEXV?$CStringT@_WV?$StrTraitMFC_DLL@_WV?$ChTraitsCRT@_W@ATL@@@@@ATL@@H@Z 00461090 f   MsgBoxDlg.obj
 0001:00060100       ?OnTimer@CMsgBoxDlg@@IAEXI@Z 00461100 f   MsgBoxDlg.obj
 0001:00060150       ?Add@CImageList@@QAEHPAUHICON__@@@Z 00461150 f i MsgBoxDlg.obj
 0001:00060170       ?Draw@CImageList@@QAEHPAVCDC@@HUtagPOINT@@I@Z 00461170 f i MsgBoxDlg.obj
 0001:000601b0       ?GetRuntimeClass@CMsgPopupWindow@@UBEPAUCRuntimeClass@@XZ 004611b0 f   MsgPopupWindow.obj
 0001:000601c0       ??0CMsgPopupWindow@@QAE@XZ 004611c0 f   MsgPopupWindow.obj
 0001:00060270       ??_GCMsgPopupWindow@@UAEPAXI@Z 00461270 f i MsgPopupWindow.obj
 0001:00060270       ??_ECMsgPopupWindow@@UAEPAXI@Z 00461270 f i MsgPopupWindow.obj
 0001:000602a0       ??1CMsgPopupWindow@@UAE@XZ 004612a0 f   MsgPopupWindow.obj
 0001:00060310       ?GetMessageMap@CMsgPopupWindow@@MBEPBUAFX_MSGMAP@@XZ 00461310 f   MsgPopupWindow.obj
 0001:00060320       ?OnClickLinkButton@CMsgPopupWindow@@MAEHI@Z 00461320 f   MsgPopupWindow.obj
 0001:00060350       ?OnCopyText@CMsgPopupWindow@@IAEXXZ 00461350 f   MsgPopupWindow.obj
 0001:00060380       ?Create@CMsgPopupWindow@@UAEHPAVCWnd@@AAVCBCGPPopupWndParams@@PAUHMENU__@@VCPoint@@@Z 00461380 f   MsgPopupWindow.obj
 0001:00060450       ?GetRuntimeClass@CNDBundleTime2Dlg@@UBEPAUCRuntimeClass@@XZ 00461450 f   NDBundleTime2Dlg.obj
 0001:00060460       ??0CNDBundleTime2Dlg@@QAE@PAVCWnd@@@Z 00461460 f   NDBundleTime2Dlg.obj
 0001:00060600       ??_GCNDBundleTime2Dlg@@UAEPAXI@Z 00461600 f i NDBundleTime2Dlg.obj
 0001:00060600       ??_ECNDBundleTime2Dlg@@UAEPAXI@Z 00461600 f i NDBundleTime2Dlg.obj
 0001:00060630       ??1CNDBundleTime2Dlg@@UAE@XZ 00461630 f   NDBundleTime2Dlg.obj
 0001:000607a0       ?DoDataExchange@CNDBundleTime2Dlg@@MAEXPAVCDataExchange@@@Z 004617a0 f   NDBundleTime2Dlg.obj
 0001:00060940       ?GetMessageMap@CNDBundleTime2Dlg@@MBEPBUAFX_MSGMAP@@XZ 00461940 f   NDBundleTime2Dlg.obj
 0001:00060950       ?OnInitDialog@CNDBundleTime2Dlg@@MAEHXZ 00461950 f   NDBundleTime2Dlg.obj
 0001:000609e0       ?OnOldCard@CNDBundleTime2Dlg@@EAEXII@Z 004619e0 f   NDBundleTime2Dlg.obj
 0001:00060a70       ?OnGetBalanceOK@CNDBundleTime2Dlg@@EAEXAAVCBalanceMethod@NS_SERVLET@@@Z 00461a70 f   NDBundleTime2Dlg.obj
 0001:00060cb0       ?GetBundleTimeList@CNDBundleTime2Dlg@@AAEXXZ 00461cb0 f   NDBundleTime2Dlg.obj
 0001:00060fe0       ?GetBundleTimeAction@CNDBundleTime2Dlg@@AAEXXZ 00461fe0 f   NDBundleTime2Dlg.obj
 0001:00061330       ?BundleTimePayType@CNDBundleTime2Dlg@@AAE?AV?$CStringT@_WV?$StrTraitMFC_DLL@_WV?$ChTraitsCRT@_W@ATL@@@@@ATL@@I@Z 00462330 f   NDBundleTime2Dlg.obj
 0001:000613e0       ?InitListView@CNDBundleTime2Dlg@@AAEXXZ 004623e0 f   NDBundleTime2Dlg.obj
 0001:00061500       ?OnNMClickListBundletime@CNDBundleTime2Dlg@@IAEXPAUtagNMHDR@@PAJ@Z 00462500 f   NDBundleTime2Dlg.obj
 0001:00061590       ?OnBnClickedButtonCancelbt@CNDBundleTime2Dlg@@IAEXXZ 00462590 f   NDBundleTime2Dlg.obj
 0001:000617b0       ?ClearData@CNDBundleTime2Dlg@@EAEXXZ 004627b0 f   NDBundleTime2Dlg.obj
 0001:000618c0       ?OnBnClickedOk@CNDBundleTime2Dlg@@IAEXXZ 004628c0 f   NDBundleTime2Dlg.obj
 0001:000618e0       ?DoBundleTime@CNDBundleTime2Dlg@@AAEXI@Z 004628e0 f   NDBundleTime2Dlg.obj
 0001:00061bb0       ?GetRuntimeClass@CNDCardCreditDlg@@UBEPAUCRuntimeClass@@XZ 00462bb0 f   NDCardCreditDlg.obj
 0001:00061bc0       ??0CNDCardCreditDlg@@QAE@PAVCWnd@@@Z 00462bc0 f   NDCardCreditDlg.obj
 0001:00061d00       ??_ECNDCardCreditDlg@@UAEPAXI@Z 00462d00 f i NDCardCreditDlg.obj
 0001:00061d00       ??_GCNDCardCreditDlg@@UAEPAXI@Z 00462d00 f i NDCardCreditDlg.obj
 0001:00061d30       ??1CNDCardCreditDlg@@UAE@XZ 00462d30 f   NDCardCreditDlg.obj
 0001:00061e60       ?DoDataExchange@CNDCardCreditDlg@@MAEXPAVCDataExchange@@@Z 00462e60 f   NDCardCreditDlg.obj
 0001:00061fd0       ?GetMessageMap@CNDCardCreditDlg@@MBEPBUAFX_MSGMAP@@XZ 00462fd0 f   NDCardCreditDlg.obj
 0001:00061fe0       ?OnInitDialog@CNDCardCreditDlg@@MAEHXZ 00462fe0 f   NDCardCreditDlg.obj
 0001:000621b0       ?OnBnClickedButtonCredit@CNDCardCreditDlg@@IAEXXZ 004631b0 f   NDCardCreditDlg.obj
 0001:00062690       ?SetCategory@CCreditInfoDB@NS_DAL@@QAEXV?$CStringT@_WV?$StrTraitMFC_DLL@_WV?$ChTraitsCRT@_W@ATL@@@@@ATL@@@Z 00463690 f i NDCardCreditDlg.obj
 0001:000626f0       ?OnBnClickedButtonReadcard@CNDCardCreditDlg@@IAEXXZ 004636f0 f   NDCardCreditDlg.obj
 0001:00062880       ?OnOldCard@CNDCardCreditDlg@@MAEXII@Z 00463880 f   NDCardCreditDlg.obj
 0001:000628e0       ?ClearData@CNDCardCreditDlg@@MAEXXZ 004638e0 f   NDCardCreditDlg.obj
 0001:000629e0       ?OnGetBalanceOK@CNDCardCreditDlg@@MAEXAAVCBalanceMethod@NS_SERVLET@@@Z 004639e0 f   NDCardCreditDlg.obj
 0001:00062cf0       ?GetRuntimeClass@CNDCheckInDlg@@UBEPAUCRuntimeClass@@XZ 00463cf0 f   NDCheckInDlg.obj
 0001:00062d00       ??0CNDCheckInDlg@@QAE@PAVCWnd@@@Z 00463d00 f   NDCheckInDlg.obj
 0001:00062da0       ??_ECNDCheckInDlg@@UAEPAXI@Z 00463da0 f i NDCheckInDlg.obj
 0001:00062da0       ??_GCNDCheckInDlg@@UAEPAXI@Z 00463da0 f i NDCheckInDlg.obj
 0001:00062dd0       ??1CNDCheckInDlg@@UAE@XZ   00463dd0 f   NDCheckInDlg.obj
 0001:00062e40       ?DoDataExchange@CNDCheckInDlg@@MAEXPAVCDataExchange@@@Z 00463e40 f   NDCheckInDlg.obj
 0001:00062e80       ?GetMessageMap@CNDCheckInDlg@@MBEPBUAFX_MSGMAP@@XZ 00463e80 f   NDCheckInDlg.obj
 0001:00062e90       ?InitGridTree@CNDCheckInDlg@@IAEXXZ 00463e90 f   NDCheckInDlg.obj
 0001:00063020       ?OnInitDialog@CNDCheckInDlg@@MAEHXZ 00464020 f   NDCheckInDlg.obj
 0001:00063080       ?FillGridTree@CNDCheckInDlg@@IAEXXZ 00464080 f   NDCheckInDlg.obj
 0001:00063570       ?OnLButtonDblClk@CNDCheckInDlg@@IAEXIVCPoint@@@Z 00464570 f   NDCheckInDlg.obj
 0001:000635b0       ?OnSetCursor@CWnd@@IAEHPAV1@II@Z 004645b0 f i DlgIBAFastlane.obj
 0001:000635b0       ?OnLButtonDblClk@CWnd@@IAEXIVCPoint@@@Z 004645b0 f i NDCheckInDlg.obj
 0001:000635b0       ?OnLButtonDown@CWnd@@IAEXIVCPoint@@@Z 004645b0 f i DlgIBAFastlane.obj
 0001:000635b0       ?OnMouseActivate@CWnd@@IAEHPAV1@II@Z 004645b0 f i BCGPLabalButton.obj
 0001:000635b0       ?OnSize@CWnd@@IAEXIHH@Z    004645b0 f i DlgIBAFastlane.obj
 0001:000635b0       ?OnKeyDown@CWnd@@IAEXIII@Z 004645b0 f i OutputBar.obj
 0001:000635b0       ?OnLButtonUp@CWnd@@IAEXIVCPoint@@@Z 004645b0 f i SeatLayoutView.obj
 0001:000635b0       ?OnMouseMove@CWnd@@IAEXIVCPoint@@@Z 004645b0 f i BCGPLinkStatic.obj
 0001:000635d0       ?OnBnClickedOk@CNDCheckInDlg@@IAEXXZ 004645d0 f   NDCheckInDlg.obj
 0001:000640c0       ?SetDeposit@CShiftCash@NS_DAL@@QAEXABH@Z 004650c0 f i OffDutyDlg.obj
 0001:000640c0       ?SetMemberId@CLastUserInfo@NS_DAL@@QAEXABI@Z 004650c0 f i NDCheckInDlg.obj
 0001:000640c0       ?SetStoreId@CRetailVoucher@NS_DAL@@QAEXABI@Z 004650c0 f i IBADAL-JXC.obj
 0001:000640c0       ?SetPrice@CRetailDetail@NS_DAL@@QAEXABI@Z 004650c0 f i IBADAL-JXC.obj
 0001:000640c0       ?SetIdType@CActiveMember@@QAEXABI@Z 004650c0 f i AllCheckOut.obj
 0001:000640c0       ?SetReturnAmout1@CCommoditySoldInfo@NS_DAL@@QAEXABH@Z 004650c0 f i IBADAL-JXC.obj
 0001:000640e0       ?SetReturnCount2@CCommoditySoldInfo@NS_DAL@@QAEXABH@Z 004650e0 f i IBADAL-JXC.obj
 0001:000640e0       ?SetPoint@CRetailDetail@NS_DAL@@QAEXABI@Z 004650e0 f i IBADAL-JXC.obj
 0001:000640e0       ?SetReturnAmount@CShiftCash@NS_DAL@@QAEXABH@Z 004650e0 f i OffDutyDlg.obj
 0001:000640e0       ?SetRefNo@CActiveMember@@QAEXABI@Z 004650e0 f i AllCheckOut.obj
 0001:000640e0       ?SetClassState@CCheckOutinfo@NS_DAL@@QAEXABI@Z 004650e0 f i CashierHelper.obj
 0001:000640e0       ?SetPayType@CRetailVoucher@NS_DAL@@QAEXABI@Z 004650e0 f i IBADAL-JXC.obj
 0001:000640e0       ?SetLoginStyle@CLastUserInfo@NS_DAL@@QAEXABI@Z 004650e0 f i NDCheckInDlg.obj
 0001:00064100       ??0CLastUserInfo@NS_DAL@@QAE@XZ 00465100 f i NDCheckInDlg.obj
 0001:00064160       ?SetRoomMemberId@CActiveMember@@QAEXABI@Z 00465160 f i NDCheckInDlg.obj
 0001:00064180       ?GetCheckIn@CNDCheckInDlg@@QBEHXZ 00465180 f i NDCheckInDlg.obj
 0001:000641a0       ??1CLastUserInfo@NS_DAL@@QAE@XZ 004651a0 f i NDCheckInDlg.obj
 0001:000641e0       ?SetNetId@CNDCheckInDlg@@QAEXV?$CStringT@_WV?$StrTraitMFC_DLL@_WV?$ChTraitsCRT@_W@ATL@@@@@ATL@@@Z 004651e0 f   NDCheckInDlg.obj
 0001:00064240       ?OnPaint@CNDCheckInDlg@@IAEXXZ 00465240 f   NDCheckInDlg.obj
 0001:000642f0       ?OnGetBalanceOK@CNDCheckInDlg@@MAEXAAVCBalanceMethod@NS_SERVLET@@@Z 004652f0 f   NDCheckInDlg.obj
 0001:000643f0       ?OnBnClickedButtonRefresh@CNDCheckInDlg@@IAEXXZ 004653f0 f   NDCheckInDlg.obj
 0001:00064410       ?CheckoutOldComputer@CNDCheckInDlg@@IAEXXZ 00465410 f   NDCheckInDlg.obj
 0001:000644c0       ?CheckTakeUp@CNDCheckInDlg@@IAEHV?$CStringT@_WV?$StrTraitMFC_DLL@_WV?$ChTraitsCRT@_W@ATL@@@@@ATL@@@Z 004654c0 f   NDCheckInDlg.obj
 0001:00064680       ?DoLocalModeQuery@CNDCheckInDlg@@MAEHXZ 00465680 f   NDCheckInDlg.obj
 0001:000647e0       ?GetRuntimeClass@CNDCreditDirectDlg@@UBEPAUCRuntimeClass@@XZ 004657e0 f   NDCreditDirectDlg.obj
 0001:000647f0       ??0CNDCreditDirectDlg@@QAE@PAVCWnd@@@Z 004657f0 f   NDCreditDirectDlg.obj
 0001:000648c0       ??_GCNDCreditDirectDlg@@UAEPAXI@Z 004658c0 f i NDCreditDirectDlg.obj
 0001:000648c0       ??_ECNDCreditDirectDlg@@UAEPAXI@Z 004658c0 f i NDCreditDirectDlg.obj
 0001:000648f0       ??1CNDCreditDirectDlg@@UAE@XZ 004658f0 f   NDCreditDirectDlg.obj
 0001:000649b0       ?DoDataExchange@CNDCreditDirectDlg@@MAEXPAVCDataExchange@@@Z 004659b0 f   NDCreditDirectDlg.obj
 0001:00064ad0       ?GetMessageMap@CNDCreditDirectDlg@@MBEPBUAFX_MSGMAP@@XZ 00465ad0 f   NDCreditDirectDlg.obj
 0001:00064ae0       ?OnBnClickedOk@CNDCreditDirectDlg@@IAEXXZ 00465ae0 f   NDCreditDirectDlg.obj
 0001:00064d70       ?OnInitDialog@CNDCreditDirectDlg@@MAEHXZ 00465d70 f   NDCreditDirectDlg.obj
 0001:00064ea0       ?ClearData@CNDCreditDirectDlg@@MAEXXZ 00465ea0 f   NDCreditDirectDlg.obj
 0001:00064f10       ?OnGetBalanceOK@CNDCreditDirectDlg@@MAEXAAVCBalanceMethod@NS_SERVLET@@@Z 00465f10 f   NDCreditDirectDlg.obj
 0001:00065120       ?OnCtlColor@CNDCreditDirectDlg@@IAEPAUHBRUSH__@@PAVCDC@@PAVCWnd@@I@Z 00466120 f   NDCreditDirectDlg.obj
 0001:000651a0       ?DoLocalModeQuery@CNDCreditDirectDlg@@MAEHXZ 004661a0 f   NDCreditDirectDlg.obj
 0001:000651d0       ?GetRuntimeClass@CNDCreditDlg@@UBEPAUCRuntimeClass@@XZ 004661d0 f   NDCreditDlg.obj
 0001:000651e0       ??0CNDCreditDlg@@QAE@PAVCWnd@@@Z 004661e0 f   NDCreditDlg.obj
 0001:000653f0       ??_GCNDCreditDlg@@UAEPAXI@Z 004663f0 f i NDCreditDlg.obj
 0001:000653f0       ??_ECNDCreditDlg@@UAEPAXI@Z 004663f0 f i NDCreditDlg.obj
 0001:00065420       ??1CNDCreditDlg@@UAE@XZ    00466420 f   NDCreditDlg.obj
 0001:000655b0       ?DoDataExchange@CNDCreditDlg@@MAEXPAVCDataExchange@@@Z 004665b0 f   NDCreditDlg.obj
 0001:00065760       ?GetMessageMap@CNDCreditDlg@@MBEPBUAFX_MSGMAP@@XZ 00466760 f   NDCreditDlg.obj
 0001:00065770       ?OnInitDialog@CNDCreditDlg@@MAEHXZ 00466770 f   NDCreditDlg.obj
 0001:00065aa0       ?OnBnClickedOk@CNDCreditDlg@@IAEXXZ 00466aa0 f   NDCreditDlg.obj
 0001:00066640       ?SetAvailavleBalance@CActiveMember@@QAEAAHXZ 00467640 f i NDCreditDlg.obj
 0001:00066660       ?OnGetBalanceOK@CNDCreditDlg@@MAEXAAVCBalanceMethod@NS_SERVLET@@@Z 00467660 f   NDCreditDlg.obj
 0001:00066820       ?OnBnClickedButtonCancelactive@CNDCreditDlg@@IAEXXZ 00467820 f   NDCreditDlg.obj
 0001:00066c60       ?OnCtlColor@CNDCreditDlg@@IAEPAUHBRUSH__@@PAVCDC@@PAVCWnd@@I@Z 00467c60 f   NDCreditDlg.obj
 0001:00066d00       ?SetNetId@CNDCreditDlg@@QAEXV?$CStringT@_WV?$StrTraitMFC_DLL@_WV?$ChTraitsCRT@_W@ATL@@@@@ATL@@@Z 00467d00 f   NDCreditDlg.obj
 0001:00066d70       ?OnTimer@CNDCreditDlg@@IAEXI@Z 00467d70 f   NDCreditDlg.obj
 0001:00066e40       ?OnBnClickedButtonReturn@CNDCreditDlg@@IAEXXZ 00467e40 f   NDCreditDlg.obj
 0001:00066ef0       ?OnBnClickedButtonBundletime@CNDCreditDlg@@IAEXXZ 00467ef0 f   NDCreditDlg.obj
 0001:00066fb0       ?OnBnClickedButtonConsumelist@CNDCreditDlg@@IAEXXZ 00467fb0 f   NDCreditDlg.obj
 0001:00067120       ?OnBnClickedButtonConsumelist2@CNDCreditDlg@@IAEXXZ 00468120 f   NDCreditDlg.obj
 0001:00067290       ?PreTranslateMessage@CNDCreditDlg@@MAEHPAUtagMSG@@@Z 00468290 f   NDCreditDlg.obj
 0001:000672e0       ?OnPaint@CNDCreditDlg@@IAEXXZ 004682e0 f   NDCreditDlg.obj
 0001:00067400       ?OnStnClickedStaticAll@CNDCreditDlg@@IAEXXZ 00468400 f   NDCreditDlg.obj
 0001:00067530       ?OnBnClickedButtonDetail@CNDCreditDlg@@IAEXXZ 00468530 f   NDCreditDlg.obj
 0001:00067680       ?DrawUserInfo@CNDCreditDlg@@IAEXXZ 00468680 f   NDCreditDlg.obj
 0001:000678d0       ?DoLocalModeQuery@CNDCreditDlg@@MAEHXZ 004688d0 f   NDCreditDlg.obj
 0001:00067be0       ?DoLocalModeOperate@CNDCreditDlg@@MAEHXZ 00468be0 f   NDCreditDlg.obj
 0001:00067de0       ?OnBnClickedBtnRnReg@CNDCreditDlg@@QAEXXZ 00468de0 f   NDCreditDlg.obj
 0001:00067e10       ?SendRegDataToProxy@CNDCreditDlg@@QAEXXZ 00468e10 f   NDCreditDlg.obj
 0001:000685c0       ?GetProxyIP@CNetBarConfig@@QBE?AV?$CStringT@_WV?$StrTraitMFC_DLL@_WV?$ChTraitsCRT@_W@ATL@@@@@ATL@@XZ 004695c0 f i NDCreditDlg.obj
 0001:00068600       ?OnCanClose@CNDCreditDlg@@QAEJIJ@Z 00469600 f   NDCreditDlg.obj
 0001:00068630       ?OnBnClickedBtnPhoto@CNDCreditDlg@@QAEXXZ 00469630 f   NDCreditDlg.obj
 0001:00068790       ?OnBnClickedWxcredit@CNDCreditDlg@@QAEXXZ 00469790 f   NDCreditDlg.obj
 0001:00068cb0       ??0CNDDialog@@IAE@IPAVCWnd@@@Z 00469cb0 f   NDDialog.obj
 0001:00068f00       ??_ECNDDialog@@MAEPAXI@Z   00469f00 f i NDDialog.obj
 0001:00068f00       ??_GCNDDialog@@MAEPAXI@Z   00469f00 f i NDDialog.obj
 0001:00068f30       ??1CNDDialog@@MAE@XZ       00469f30 f   NDDialog.obj
 0001:00069040       ?DoDataExchange@CNDDialog@@MAEXPAVCDataExchange@@@Z 0046a040 f   NDDialog.obj
 0001:00069080       ?GetThisMessageMap@CNDDialog@@KGPBUAFX_MSGMAP@@XZ 0046a080 f   NDDialog.obj
 0001:00069090       ?GetMessageMap@CNDDialog@@MBEPBUAFX_MSGMAP@@XZ 0046a090 f   NDDialog.obj
 0001:000690a0       ?OnCancel@CNDDialog@@MAEXXZ 0046a0a0 f   NDDialog.obj
 0001:000690c0       ?SetNetId@CNDDialog@@QAEXV?$CStringT@_WV?$StrTraitMFC_DLL@_WV?$ChTraitsCRT@_W@ATL@@@@@ATL@@H@Z 0046a0c0 f   NDDialog.obj
 0001:00069180       ?OnInitDialog@CNDDialog@@MAEHXZ 0046a180 f   NDDialog.obj
 0001:00069270       ?PreTranslateMessage@CNDDialog@@MAEHPAUtagMSG@@@Z 0046a270 f   NDDialog.obj
 0001:00069370       ?CheckCard@CNDDialog@@IAEXPB_W@Z 0046a370 f   NDDialog.obj
 0001:00069510       ?OnNewCard@CNDDialog@@MAEXI@Z 0046a510 f   NDDialog.obj
 0001:00069550       ?OnOldCard@CNDDialog@@MAEXII@Z 0046a550 f   NDDialog.obj
 0001:00069570       ?QueryBalance@CNDDialog@@IAEHII@Z 0046a570 f   NDDialog.obj
 0001:00069610       ?ReQuery@CNDDialog@@IAEHXZ 0046a610 f   NDDialog.obj
 0001:00069640       ?OnGetBalanceOK@CNDDialog@@MAEXAAVCBalanceMethod@NS_SERVLET@@@Z 0046a640 f   NDDialog.obj
 0001:00069990       ?OnBnClickedButtonQuery@CNDDialog@@IAEXXZ 0046a990 f   NDDialog.obj
 0001:00069a90       ?AddFocusEnter@CNDDialog@@IAEXII@Z 0046aa90 f   NDDialog.obj
 0001:00069ad0       ?OnBnClickedButtonScanreco@CNDDialog@@IAEXXZ 0046aad0 f   NDDialog.obj
 0001:00069bc0       ?CenterPoint@CRect@@QBE?AVCPoint@@XZ 0046abc0 f i NDDialog.obj
 0001:00069c00       ?OnScan1@CNDDialog@@IAEXXZ 0046ac00 f   NDDialog.obj
 0001:00069c20       ?OnScan2@CNDDialog@@IAEXXZ 0046ac20 f   NDDialog.obj
 0001:00069c40       ?OnRead2@CNDDialog@@IAEXXZ 0046ac40 f   NDDialog.obj
 0001:00069c60       ?ScanReco@CNDDialog@@IAEXI@Z 0046ac60 f   NDDialog.obj
 0001:00069d60       ?OnTimer@CNDDialog@@IAEXI@Z 0046ad60 f   NDDialog.obj
 0001:00069d90       ?SimulateClickMe@CNDDialog@@IAEXXZ 0046ad90 f   NDDialog.obj
 0001:00069e30       ?GetUserState@CNDDialog@@IAEHXZ 0046ae30 f   NDDialog.obj
 0001:00069ea0       ?DoLocalModeQuery@CNDDialog@@MAEHXZ 0046aea0 f   NDDialog.obj
 0001:0006a260       ?Add@CImageList@@QAEHPAVCBitmap@@K@Z 0046b260 f i NDDialog.obj
 0001:0006a290       ??0?$CArray@UTFocusEnter@CNDDialog@@U12@@@QAE@XZ 0046b290 f i NDDialog.obj
 0001:0006a2e0       ?GetAt@?$CArray@UTFocusEnter@CNDDialog@@U12@@@QAEAAUTFocusEnter@CNDDialog@@H@Z 0046b2e0 f i NDDialog.obj
 0001:0006a2e0       ?GetAt@?$CArray@VCIDNameRecord@NS_DAL@@AAV12@@@QAEAAVCIDNameRecord@NS_DAL@@H@Z 0046b2e0 f i DefineBundTimeDlg.obj
 0001:0006a2e0       ?GetAt@?$CArray@VCIDTypeInfo@NS_DAL@@AAV12@@@QAEAAVCIDTypeInfo@NS_DAL@@H@Z 0046b2e0 f i CheckMemberDlg.obj
 0001:0006a320       ?Add@?$CArray@UTFocusEnter@CNDDialog@@U12@@@QAEHUTFocusEnter@CNDDialog@@@Z 0046b320 f i NDDialog.obj
 0001:0006a350       ??1?$CArray@UTFocusEnter@CNDDialog@@U12@@@UAE@XZ 0046b350 f i NDDialog.obj
 0001:0006a3b0       ??_G?$CArray@UTFocusEnter@CNDDialog@@U12@@@UAEPAXI@Z 0046b3b0 f i NDDialog.obj
 0001:0006a3b0       ??_E?$CArray@UTFocusEnter@CNDDialog@@U12@@@UAEPAXI@Z 0046b3b0 f i NDDialog.obj
 0001:0006a3e0       ?SetSize@?$CArray@UTFocusEnter@CNDDialog@@U12@@@QAEXHH@Z 0046b3e0 f i NDDialog.obj
 0001:0006a3e0       ?SetSize@?$CArray@UTDialogData@CDialogManager@@U12@@@QAEXHH@Z 0046b3e0 f i DialogManager.obj
 0001:0006a740       ?SetAtGrow@?$CArray@UTFocusEnter@CNDDialog@@U12@@@QAEXHUTFocusEnter@CNDDialog@@@Z 0046b740 f i NDDialog.obj
 0001:0006a790       ??$SerializeElements@UTDialogData@CDialogManager@@@@YGXAAVCArchive@@PAUTDialogData@CDialogManager@@H@Z 0046b790 f i DialogManager.obj
 0001:0006a790       ??$SerializeElements@UTFocusEnter@CNDDialog@@@@YGXAAVCArchive@@PAUTFocusEnter@CNDDialog@@H@Z 0046b790 f i NDDialog.obj
 0001:0006a790       ??$SerializeElements@VCIDTypeInfo@NS_DAL@@@@YGXAAVCArchive@@PAVCIDTypeInfo@NS_DAL@@H@Z 0046b790 f i NetBarConfig.obj
 0001:0006a790       ??$SerializeElements@VCIDNameRecord@NS_DAL@@@@YGXAAVCArchive@@PAVCIDNameRecord@NS_DAL@@H@Z 0046b790 f i DlgChoseForwardBundle.obj
 0001:0006a860       ?GetRuntimeClass@CNDReturnDlg@@UBEPAUCRuntimeClass@@XZ 0046b860 f   NDReturnDlg.obj
 0001:0006a870       ??0CNDReturnDlg@@QAE@PAVCWnd@@@Z 0046b870 f   NDReturnDlg.obj
 0001:0006a9e0       ??_ECNDReturnDlg@@UAEPAXI@Z 0046b9e0 f i NDReturnDlg.obj
 0001:0006a9e0       ??_GCNDReturnDlg@@UAEPAXI@Z 0046b9e0 f i NDReturnDlg.obj
 0001:0006aa10       ??1CNDReturnDlg@@UAE@XZ    0046ba10 f   NDReturnDlg.obj
 0001:0006ab40       ?DoDataExchange@CNDReturnDlg@@MAEXPAVCDataExchange@@@Z 0046bb40 f   NDReturnDlg.obj
 0001:0006ac80       ?GetMessageMap@CNDReturnDlg@@MBEPBUAFX_MSGMAP@@XZ 0046bc80 f   NDReturnDlg.obj
 0001:0006ac90       ?OnInitDialog@CNDReturnDlg@@MAEHXZ 0046bc90 f   NDReturnDlg.obj
 0001:0006ad50       ?OnBnClickedButtonCredit@CNDReturnDlg@@IAEXXZ 0046bd50 f   NDReturnDlg.obj
 0001:0006ae00       ?OnBnClickedCancel@CNDReturnDlg@@IAEXXZ 0046be00 f   NDReturnDlg.obj
 0001:0006ae00       ?OnBnClickedCancel@CNDCreditDlg@@IAEXXZ 0046be00 f   NDCreditDlg.obj
 0001:0006ae20       ?OnBnClickedOk@CNDReturnDlg@@IAEXXZ 0046be20 f   NDReturnDlg.obj
 0001:0006af10       ?OnBnClickedButtonConsumelist@CNDReturnDlg@@IAEXXZ 0046bf10 f   NDReturnDlg.obj
 0001:0006b040       ?OnBnClickedButtonConsumelist2@CNDReturnDlg@@IAEXXZ 0046c040 f   NDReturnDlg.obj
 0001:0006b170       ?PayoutMember@CNDReturnDlg@@IAEHAAV?$CStringT@_WV?$StrTraitMFC_DLL@_WV?$ChTraitsCRT@_W@ATL@@@@@ATL@@@Z 0046c170 f   NDReturnDlg.obj
 0001:0006bc20       ?InitControls@CNDReturnDlg@@IAEXXZ 0046cc20 f   NDReturnDlg.obj
 0001:0006bcd0       ?OnGetBalanceOK@CNDReturnDlg@@MAEXAAVCBalanceMethod@NS_SERVLET@@@Z 0046ccd0 f   NDReturnDlg.obj
 0001:0006c250       ?OnCtlColor@CNDReturnDlg@@IAEPAUHBRUSH__@@PAVCDC@@PAVCWnd@@I@Z 0046d250 f   NDReturnDlg.obj
 0001:0006c2c0       ?DeregisterUser@CNDReturnDlg@@IAEHAAV?$CStringT@_WV?$StrTraitMFC_DLL@_WV?$ChTraitsCRT@_W@ATL@@@@@ATL@@I@Z 0046d2c0 f   NDReturnDlg.obj
 0001:0006cc60       ?SetNetId@CNDReturnDlg@@QAEXV?$CStringT@_WV?$StrTraitMFC_DLL@_WV?$ChTraitsCRT@_W@ATL@@@@@ATL@@@Z 0046dc60 f   NDReturnDlg.obj
 0001:0006ccd0       ?OnTimer@CNDReturnDlg@@IAEXI@Z 0046dcd0 f   NDReturnDlg.obj
 0001:0006cd40       ?PreTranslateMessage@CNDReturnDlg@@MAEHPAUtagMSG@@@Z 0046dd40 f   NDReturnDlg.obj
 0001:0006cd80       ?OnPaint@CNDReturnDlg@@IAEXXZ 0046dd80 f   NDReturnDlg.obj
 0001:0006cea0       ?ShowBundleTimeInfo@CNDReturnDlg@@IAEXAAVCBalanceMethod@NS_SERVLET@@@Z 0046dea0 f   NDReturnDlg.obj
 0001:0006d0a0       ?OnBnClickedButtonReturn2@CNDReturnDlg@@IAEXXZ 0046e0a0 f   NDReturnDlg.obj
 0001:0006d1b0       ?OnBnClickedButtonBundletime@CNDReturnDlg@@IAEXXZ 0046e1b0 f   NDReturnDlg.obj
 0001:0006d270       ?DoLocalModeQuery@CNDReturnDlg@@MAEHXZ 0046e270 f   NDReturnDlg.obj
 0001:0006d8d0       ?OnBnClickedButtonCancelactive@CNDReturnDlg@@IAEXXZ 0046e8d0 f   NDReturnDlg.obj
 0001:0006dd20       ??0?$CArray@IABI@@QAE@XZ   0046ed20 f i NDReturnDlg.obj
 0001:0006dd70       ??1?$CArray@IABI@@UAE@XZ   0046ed70 f i NDReturnDlg.obj
 0001:0006ddd0       ??_E?$CArray@IABI@@UAEPAXI@Z 0046edd0 f i NDReturnDlg.obj
 0001:0006ddd0       ??_G?$CArray@IABI@@UAEPAXI@Z 0046edd0 f i NDReturnDlg.obj
 0001:0006de00       ?CreateObject@CNDTermConsumeView@@SGPAVCObject@@XZ 0046ee00 f   NDTermConsumeView.obj
 0001:0006de70       ?GetThisClass@CNDTermConsumeView@@SGPAUCRuntimeClass@@XZ 0046ee70 f   NDTermConsumeView.obj
 0001:0006de80       ?GetRuntimeClass@CNDTermConsumeView@@UBEPAUCRuntimeClass@@XZ 0046ee80 f   NDTermConsumeView.obj
 0001:0006de90       ??0CNDTermConsumeView@@IAE@XZ 0046ee90 f   NDTermConsumeView.obj
 0001:0006df40       ??_ECNDTermConsumeView@@MAEPAXI@Z 0046ef40 f i NDTermConsumeView.obj
 0001:0006df40       ??_GCNDTermConsumeView@@MAEPAXI@Z 0046ef40 f i NDTermConsumeView.obj
 0001:0006df70       ??1CNDTermConsumeView@@MAE@XZ 0046ef70 f   NDTermConsumeView.obj
 0001:0006e010       ?DoDataExchange@CNDTermConsumeView@@MAEXPAVCDataExchange@@@Z 0046f010 f   NDTermConsumeView.obj
 0001:0006e0a0       ?GetMessageMap@CNDTermConsumeView@@MBEPBUAFX_MSGMAP@@XZ 0046f0a0 f   NDTermConsumeView.obj
 0001:0006e0b0       ?OnInitialUpdate@CNDTermConsumeView@@UAEXXZ 0046f0b0 f   NDTermConsumeView.obj
 0001:0006e120       ?InitListView@CNDTermConsumeView@@AAEXXZ 0046f120 f   NDTermConsumeView.obj
 0001:0006e260       ?OnBnClickedButtonQuery@CNDTermConsumeView@@IAEXXZ 0046f260 f   NDTermConsumeView.obj
 0001:0006ea40       ?GetDisplayType@CIBAConfig@@QBEIXZ 0046fa40 f i IBAView.obj
 0001:0006ea40       ?GetCanNotQueryConsume@CNetBarConfig@@QAE?BHXZ 0046fa40 f i NDTermConsumeView.obj
 0001:0006ea60       ?GetCanNotTermConsumeQuery@CIBAConfig@@QBEHXZ 0046fa60 f i NDTermConsumeView.obj
 0001:0006ea60       ?GetDianka@CShiftCash@NS_DAL@@QBEHXZ 0046fa60 f i OffDutyDlg.obj
 0001:0006ea60       ?GetRemainQuantity@CCommodity@NS_DAL@@QBEHXZ 0046fa60 f i OffDutyDlg.obj
 0001:0006ea60       ?GetActiveMemberGrid@CActiveMemberView@@QAEPAVCActiveMemberGrid@@XZ 0046fa60 f i ActiveMemberView.obj
 0001:0006ea80       ?OnSize@CNDTermConsumeView@@IAEXIHH@Z 0046fa80 f   NDTermConsumeView.obj
 0001:0006eae0       ?InitData@CNDTermConsumeView@@AAEXXZ 0046fae0 f   NDTermConsumeView.obj
 0001:0006ecd0       ?QueryTermId@CNDTermConsumeView@@QAEXPB_W@Z 0046fcd0 f   NDTermConsumeView.obj
 0001:0006ed00       ?OnTimer@CNDTermConsumeView@@IAEXI@Z 0046fd00 f   NDTermConsumeView.obj
 0001:0006ed90       ?GetRuntimeClass@CNDUpgradeDlg@@UBEPAUCRuntimeClass@@XZ 0046fd90 f   NDUpgradeDlg.obj
 0001:0006eda0       ??0CNDUpgradeDlg@@QAE@PAVCWnd@@@Z 0046fda0 f   NDUpgradeDlg.obj
 0001:0006eea0       ??_ECNDUpgradeDlg@@UAEPAXI@Z 0046fea0 f i NDUpgradeDlg.obj
 0001:0006eea0       ??_GCNDUpgradeDlg@@UAEPAXI@Z 0046fea0 f i NDUpgradeDlg.obj
 0001:0006eed0       ??1CNDUpgradeDlg@@UAE@XZ   0046fed0 f   NDUpgradeDlg.obj
 0001:0006efc0       ?DoDataExchange@CNDUpgradeDlg@@MAEXPAVCDataExchange@@@Z 0046ffc0 f   NDUpgradeDlg.obj
 0001:0006f100       ?GetMessageMap@CNDUpgradeDlg@@MBEPBUAFX_MSGMAP@@XZ 00470100 f   NDUpgradeDlg.obj
 0001:0006f110       ?OnInitDialog@CNDUpgradeDlg@@MAEHXZ 00470110 f   NDUpgradeDlg.obj
 0001:0006f2b0       ?OnOldCard@CNDUpgradeDlg@@MAEXII@Z 004702b0 f   NDUpgradeDlg.obj
 0001:0006f2b0       ?OnOldCard@CDlgChangeNetId@@MAEXII@Z 004702b0 f   ChangeUserSNDlg.obj
 0001:0006f300       ?OnGetBalanceOK@CNDUpgradeDlg@@MAEXAAVCBalanceMethod@NS_SERVLET@@@Z 00470300 f   NDUpgradeDlg.obj
 0001:0006f640       ?OnBnClickedButtonUpgrade@CNDUpgradeDlg@@IAEXXZ 00470640 f   NDUpgradeDlg.obj
 0001:0006fa20       ??0CMemberUpgradeDB@NS_DAL@@QAE@XZ 00470a20 f i NDUpgradeDlg.obj
 0001:0006fa90       ?SetUpgradeTime@CMemberUpgradeDB@NS_DAL@@QAEXV?$CStringT@_WV?$StrTraitMFC_DLL@_WV?$ChTraitsCRT@_W@ATL@@@@@ATL@@@Z 00470a90 f i NDUpgradeDlg.obj
 0001:0006fae0       ?SetOperator@CMemberUpgradeDB@NS_DAL@@QAEXV?$CStringT@_WV?$StrTraitMFC_DLL@_WV?$ChTraitsCRT@_W@ATL@@@@@ATL@@@Z 00470ae0 f i NDUpgradeDlg.obj
 0001:0006fb40       ?SetReason@CMemberUpgradeDB@NS_DAL@@QAEXV?$CStringT@_WV?$StrTraitMFC_DLL@_WV?$ChTraitsCRT@_W@ATL@@@@@ATL@@@Z 00470b40 f i NDUpgradeDlg.obj
 0001:0006fba0       ??1CMemberUpgradeDB@NS_DAL@@QAE@XZ 00470ba0 f i NDUpgradeDlg.obj
 0001:0006fbd0       ?GetRuntimeClass@CNetbarRoomDlg@@UBEPAUCRuntimeClass@@XZ 00470bd0 f   NetbarRoom.obj
 0001:0006fbe0       ??0CNetbarRoomDlg@@QAE@PAVCWnd@@@Z 00470be0 f   NetbarRoom.obj
 0001:0006fd30       ??_ECNetbarRoomDlg@@UAEPAXI@Z 00470d30 f i NetbarRoom.obj
 0001:0006fd30       ??_GCNetbarRoomDlg@@UAEPAXI@Z 00470d30 f i NetbarRoom.obj
 0001:0006fd60       ??1CNetbarRoomDlg@@UAE@XZ  00470d60 f   NetbarRoom.obj
 0001:0006fe50       ?DoDataExchange@CNetbarRoomDlg@@MAEXPAVCDataExchange@@@Z 00470e50 f   NetbarRoom.obj
 0001:0006ff30       ?GetMessageMap@CNetbarRoomDlg@@MBEPBUAFX_MSGMAP@@XZ 00470f30 f   NetbarRoom.obj
 0001:0006ff40       ?ShowListCheckOutBtn@CNetbarRoomDlg@@QAEXHH@Z 00470f40 f   NetbarRoom.obj
 0001:000700c0       ??_ECBCGPButton@@UAEPAXI@Z 004710c0 f i NetbarRoom.obj
 0001:000700c0       ??_GCBCGPButton@@UAEPAXI@Z 004710c0 f i NetbarRoom.obj
 0001:000700f0       ?ShowListOpenBtn@CNetbarRoomDlg@@QAEXHHHH@Z 004710f0 f   NetbarRoom.obj
 0001:000702e0       ?OnBnClickedOk@CNetbarRoomDlg@@IAEXXZ 004712e0 f   NetbarRoom.obj
 0001:00070320       ?OnInitDialog@CNetbarRoomDlg@@MAEHXZ 00471320 f   NetbarRoom.obj
 0001:00070610       ?ClearData@CNetbarRoomDlg@@MAEXXZ 00471610 f   NetbarRoom.obj
 0001:00070690       ?OnOldCard@CNetbarRoomDlg@@MAEXII@Z 00471690 f   NetbarRoom.obj
 0001:000706e0       ?OnNewCard@CNetbarRoomDlg@@MAEXI@Z 004716e0 f   NetbarRoom.obj
 0001:00070700       ?OnGetBalanceOK@CNetbarRoomDlg@@MAEXAAVCBalanceMethod@NS_SERVLET@@@Z 00471700 f   NetbarRoom.obj
 0001:00070980       ?OnTimer@CNetbarRoomDlg@@QAEXI@Z 00471980 f   NetbarRoom.obj
 0001:000709f0       ?DoLocalModeQuery@CNetbarRoomDlg@@MAEHXZ 004719f0 f   NetbarRoom.obj
 0001:00070a10       ?NeedToCheckRegisterData@CGLWRealName@NS_REALNAME@@UAEHXZ 00471a10 f   GLWRealName.obj
 0001:00070a10       ?IsCheckInEnabled@CWDRealName@NS_REALNAME@@UAEHXZ 00471a10 f   WDRealName.obj
 0001:00070a10       ?IsMenuEnabled@CGLWRealName@NS_REALNAME@@UAEHXZ 00471a10 f   GLWRealName.obj
 0001:00070a10       ?CheckRealName@CNoneRealName@NS_REALNAME@@UAEHXZ 00471a10 f   RealNameBase.obj
 0001:00070a10       ?OnBegin@CServletMethod@NS_SERVLET@@MAEHXZ 00471a10 f   ServletMethod.obj
 0001:00070a10       ?DoLocalModeOperate@CNDDialog@@MAEHXZ 00471a10 f   NDDialog.obj
 0001:00070a10       ?IsRegisterEnabled@CZDRealName@NS_REALNAME@@UAEHXZ 00471a10 f   ZDRealName.obj
 0001:00070a10       ?DoLocalModeOperate@CNetbarRoomDlg@@MAEHXZ 00471a10 f   NetbarRoom.obj
 0001:00070a10       ?IsMenuEnabled@CRZXRealName@NS_REALNAME@@UAEHXZ 00471a10 f   RZXRealName.obj
 0001:00070a10       ?IsRegisterEnabled@CWDRealName@NS_REALNAME@@UAEHXZ 00471a10 f   WDRealName.obj
 0001:00070a10       ?RobFocusAfterSwipingCard@CRZXRealName@NS_REALNAME@@UAEHXZ 00471a10 f   RZXRealName.obj
 0001:00070a10       ?NeedToCheckRegisterData@CWDRealName@NS_REALNAME@@UAEHXZ 00471a10 f   WDRealName.obj
 0001:00070a10       ?IsRegisterEnabled@CRealNameBase@NS_REALNAME@@UAEHXZ 00471a10 f   RealNameBase.obj
 0001:00070a10       ?IsRealNameExtendMenuEnabled@CRZXRealName@NS_REALNAME@@UAEHXZ 00471a10 f   RZXRealName.obj
 0001:00070a10       ?IsCheckInEnabled@CRealNameBase@NS_REALNAME@@UAEHXZ 00471a10 f   RealNameBase.obj
 0001:00070a20       ?OnBnClickedBtnQuery@CNetbarRoomDlg@@QAEXXZ 00471a20 f   NetbarRoom.obj
 0001:00070a40       ?OnCtlColor@CNetbarRoomDlg@@QAEPAUHBRUSH__@@PAVCDC@@PAVCWnd@@I@Z 00471a40 f   NetbarRoom.obj
 0001:00070a90       ?OnBnClickedBtnCredit@CNetbarRoomDlg@@QAEXXZ 00471a90 f   NetbarRoom.obj
 0001:00070b50       ?OnLvnItemchangedList1@CNetbarRoomDlg@@QAEXPAUtagNMHDR@@PAJ@Z 00471b50 f   NetbarRoom.obj
 0001:00070c00       ?FillRoomList@CNetbarRoomDlg@@IAEXXZ 00471c00 f   NetbarRoom.obj
 0001:000710a0       ??0CRoomInfo@NS_DAL@@QAE@XZ 004720a0 f i NetbarRoom.obj
 0001:00071110       ??1CRoomInfo@NS_DAL@@QAE@XZ 00472110 f i NetbarRoom.obj
 0001:00071140       ?DoRoomCheckOut@CNetbarRoomDlg@@QAEHAAVCRoomInfo@NS_DAL@@@Z 00472140 f   NetbarRoom.obj
 0001:000715c0       ?GetOpenTime@CRoomInfo@NS_DAL@@QBE?AVCOleDateTime@ATL@@XZ 004725c0 f i NetbarRoom.obj
 0001:000715f0       ?AutoQueryRoom@CNetbarRoomDlg@@QAEXXZ 004725f0 f   NetbarRoom.obj
 0001:00071610       ?OnGlcNotify@CNetbarRoomDlg@@QAEXPAUtagNMHDR@@PAJ@Z 00472610 f   NetbarRoom.obj
 0001:00071760       ?ClearActiveMember@CNetbarRoomDlg@@QAEHI@Z 00472760 f   NetbarRoom.obj
 0001:00071bf0       ??0?$CArray@VCRoomInfo@NS_DAL@@AAV12@@@QAE@XZ 00472bf0 f i NetbarRoom.obj
 0001:00071c40       ?RemoveAll@?$CArray@VCRoomInfo@NS_DAL@@AAV12@@@QAEXXZ 00472c40 f i NetbarRoom.obj
 0001:00071c60       ?Add@?$CArray@VCRoomInfo@NS_DAL@@AAV12@@@QAEHAAVCRoomInfo@NS_DAL@@@Z 00472c60 f i NetbarRoom.obj
 0001:00071c90       ??A?$CArray@VCRoomInfo@NS_DAL@@AAV12@@@QAEAAVCRoomInfo@NS_DAL@@H@Z 00472c90 f i NetbarRoom.obj
 0001:00071cb0       ??1?$CArray@VCRoomInfo@NS_DAL@@AAV12@@@UAE@XZ 00472cb0 f i NetbarRoom.obj
 0001:00071d20       ?Serialize@?$CArray@VCRoomInfo@NS_DAL@@AAV12@@@UAEXAAVCArchive@@@Z 00472d20 f i NetbarRoom.obj
 0001:00071d90       ??_G?$CArray@VCRoomInfo@NS_DAL@@AAV12@@@UAEPAXI@Z 00472d90 f i NetbarRoom.obj
 0001:00071d90       ??_E?$CArray@VCRoomInfo@NS_DAL@@AAV12@@@UAEPAXI@Z 00472d90 f i NetbarRoom.obj
 0001:00071dc0       ??_GCRoomInfo@NS_DAL@@QAEPAXI@Z 00472dc0 f i NetbarRoom.obj
 0001:00071df0       ?SetSize@?$CArray@VCRoomInfo@NS_DAL@@AAV12@@@QAEXHH@Z 00472df0 f i NetbarRoom.obj
 0001:00072230       ?SetAtGrow@?$CArray@VCRoomInfo@NS_DAL@@AAV12@@@QAEXHAAVCRoomInfo@NS_DAL@@@Z 00473230 f i NetbarRoom.obj
 0001:00072280       ??4CRoomInfo@NS_DAL@@QAEAAV01@ABV01@@Z 00473280 f i NetbarRoom.obj
 0001:00072320       ??0CNetBarUser@@QAE@XZ     00473320 f   NetBarUser.obj
 0001:00072400       ??1CNetBarUser@@QAE@XZ     00473400 f   NetBarUser.obj
 0001:00072490       ?GetRuntimeClass@CDlgIBADuty@@UBEPAUCRuntimeClass@@XZ 00473490 f   OffDutyDlg.obj
 0001:000724a0       ??0CDlgIBADuty@@QAE@PAVCWnd@@@Z 004734a0 f   OffDutyDlg.obj
 0001:00072600       ??_ECDlgIBADuty@@UAEPAXI@Z 00473600 f i OffDutyDlg.obj
 0001:00072600       ??_GCDlgIBADuty@@UAEPAXI@Z 00473600 f i OffDutyDlg.obj
 0001:00072630       ??1CDlgIBADuty@@UAE@XZ     00473630 f   OffDutyDlg.obj
 0001:00072750       ?DoDataExchange@CDlgIBADuty@@MAEXPAVCDataExchange@@@Z 00473750 f   OffDutyDlg.obj
 0001:00072800       ?GetMessageMap@CDlgIBADuty@@MBEPBUAFX_MSGMAP@@XZ 00473800 f   OffDutyDlg.obj
 0001:00072810       ?OnBnClickedOk@CDlgIBADuty@@IAEXXZ 00473810 f   OffDutyDlg.obj
 0001:00072910       ?OnBnClickedButtonStat@CDlgIBADuty@@IAEXXZ 00473910 f   OffDutyDlg.obj
 0001:00072ca0       ?OnInitDialog@CDlgIBADuty@@MAEHXZ 00473ca0 f   OffDutyDlg.obj
 0001:00072cd0       ?InitContrls@CDlgIBADuty@@AAEXXZ 00473cd0 f   OffDutyDlg.obj
 0001:000734a0       ?GetShiftName3@CIBAConfig@@QBE?AV?$CStringT@_WV?$StrTraitMFC_DLL@_WV?$ChTraitsCRT@_W@ATL@@@@@ATL@@XZ 004744a0 f i OffDutyDlg.obj
 0001:000734a0       ?GetAccountYear@CRetailVoucher@NS_DAL@@QBE?AV?$CStringT@_WV?$StrTraitMFC_DLL@_WV?$ChTraitsCRT@_W@ATL@@@@@ATL@@XZ 004744a0 f i IBADAL-JXC.obj
 0001:000734e0       ?GetDescription@CShiftCash@NS_DAL@@QBE?AV?$CStringT@_WV?$StrTraitMFC_DLL@_WV?$ChTraitsCRT@_W@ATL@@@@@ATL@@XZ 004744e0 f i OffDutyDlg.obj
 0001:000734e0       ?GetSerialNum@CCardOpenInfo@NS_DAL@@QBE?AV?$CStringT@_WV?$StrTraitMFC_DLL@_WV?$ChTraitsCRT@_W@ATL@@@@@ATL@@XZ 004744e0 f i CardopenConsumeDlg.obj
 0001:000734e0       ?GetShiftName1@CIBAConfig@@QBE?AV?$CStringT@_WV?$StrTraitMFC_DLL@_WV?$ChTraitsCRT@_W@ATL@@@@@ATL@@XZ 004744e0 f i OffDutyDlg.obj
 0001:00073520       ?GetFixReserve@CIBAConfig@@QBE?AV?$CStringT@_WV?$StrTraitMFC_DLL@_WV?$ChTraitsCRT@_W@ATL@@@@@ATL@@XZ 00474520 f i OffDutyDlg.obj
 0001:00073560       ?SetStaticFont@CDlgIBADuty@@AAEXXZ 00474560 f   OffDutyDlg.obj
 0001:000737a0       ?OnEnChangeEditPayout@CDlgIBADuty@@IAEXXZ 004747a0 f   OffDutyDlg.obj
 0001:000738d0       ?GetEachMoney@CDlgIBADuty@@AAEXAAH00@Z 004748d0 f   OffDutyDlg.obj
 0001:00073a60       ?PrintTicket@CDlgIBADuty@@AAEXAAVCShiftCash@NS_DAL@@@Z 00474a60 f   OffDutyDlg.obj
 0001:00074130       ?GetWxPayAmount@CShiftCash@NS_DAL@@QBEHXZ 00475130 f i OffDutyDlg.obj
 0001:00074150       ?OnCtlColor@CDlgIBADuty@@IAEPAUHBRUSH__@@PAVCDC@@PAVCWnd@@I@Z 00475150 f   OffDutyDlg.obj
 0001:00074450       ?OnBnClickedButtonPrint@CDlgIBADuty@@IAEXXZ 00475450 f   OffDutyDlg.obj
 0001:000753a0       ??0CShiftCash@NS_DAL@@QAE@XZ 004763a0 f i OffDutyDlg.obj
 0001:000754c0       ?SetCommoditycode@CCommoditySoldInfo@NS_DAL@@QAEXABV?$CStringT@_WV?$StrTraitMFC_DLL@_WV?$ChTraitsCRT@_W@ATL@@@@@ATL@@@Z 004764c0 f i IBADAL-JXC.obj
 0001:000754c0       ?SetRetailUnit@CCommodity@NS_DAL@@QAEXABV?$CStringT@_WV?$StrTraitMFC_DLL@_WV?$ChTraitsCRT@_W@ATL@@@@@ATL@@@Z 004764c0 f i IBADAL-JXC.obj
 0001:000754c0       ?SetOperator@CShiftCash@NS_DAL@@QAEXABV?$CStringT@_WV?$StrTraitMFC_DLL@_WV?$ChTraitsCRT@_W@ATL@@@@@ATL@@@Z 004764c0 f i OffDutyDlg.obj
 0001:000754c0       ?SetVoucherTime@CRetailVoucher@NS_DAL@@QAEXABV?$CStringT@_WV?$StrTraitMFC_DLL@_WV?$ChTraitsCRT@_W@ATL@@@@@ATL@@@Z 004764c0 f i IBADAL-JXC.obj
 0001:000754e0       ?SetDescription@CShiftCash@NS_DAL@@QAEXABV?$CStringT@_WV?$StrTraitMFC_DLL@_WV?$ChTraitsCRT@_W@ATL@@@@@ATL@@@Z 004764e0 f i OffDutyDlg.obj
 0001:000754e0       ?SetProductCode@CCommodity@NS_DAL@@QAEXABV?$CStringT@_WV?$StrTraitMFC_DLL@_WV?$ChTraitsCRT@_W@ATL@@@@@ATL@@@Z 004764e0 f i IBADAL-JXC.obj
 0001:00075500       ?SetEndDate@CShiftCash@NS_DAL@@QAEXABV?$CStringT@_WV?$StrTraitMFC_DLL@_WV?$ChTraitsCRT@_W@ATL@@@@@ATL@@@Z 00476500 f i OffDutyDlg.obj
 0001:00075500       ?SetDescription@CCommodity@NS_DAL@@QAEXABV?$CStringT@_WV?$StrTraitMFC_DLL@_WV?$ChTraitsCRT@_W@ATL@@@@@ATL@@@Z 00476500 f i IBADAL-JXC.obj
 0001:00075520       ?SetDataStatus@CLocalConsumeInfo@NS_DAL@@QAEXABH@Z 00476520 f i IBADAL.obj
 0001:00075520       ?SetCashRegisterID@CShiftCash@NS_DAL@@QAEXABH@Z 00476520 f i OffDutyDlg.obj
 0001:00075540       ?SetAccountPay@CShiftCash@NS_DAL@@QAEXABH@Z 00476540 f i OffDutyDlg.obj
 0001:00075540       ?SetConsumeMoney@COperationInfo@@QAEXABH@Z 00476540 f i AllCheckOut.obj
 0001:00075560       ?SetZSBConsume@CShiftCash@NS_DAL@@QAEXABH@Z 00476560 f i OffDutyDlg.obj
 0001:00075580       ?SetDutyIncome@CShiftCash@NS_DAL@@QAEXABH@Z 00476580 f i OffDutyDlg.obj
 0001:00075580       ?SetIsLocalUser@CActiveMember@@QAEXABH@Z 00476580 f i AllCheckOut.obj
 0001:000755a0       ?SetWxPayAmount@CShiftCash@NS_DAL@@QAEXABH@Z 004765a0 f i OffDutyDlg.obj
 0001:000755c0       ??0CIBAShiftReport@@QAE@H@Z 004765c0 f i OffDutyDlg.obj
 0001:00075620       ?Create@CIBAShiftReport@@QAEHXZ 00476620 f i OffDutyDlg.obj
 0001:00075640       ?ShowReport@CIBAShiftReport@@QAEXJPB_W@Z 00476640 f i OffDutyDlg.obj
 0001:00075680       ??1CShiftCash@NS_DAL@@QAE@XZ 00476680 f i OffDutyDlg.obj
 0001:000756d0       ?ShowShiftTotalInfo@CDlgIBADuty@@AAEXXZ 004766d0 f   OffDutyDlg.obj
 0001:00075e60       ?GetShiftType@CDlgIBADuty@@AAEIXZ 00476e60 f   OffDutyDlg.obj
 0001:000760d0       ?DoOnDuty@CDlgIBADuty@@AAEXXZ 004770d0 f   OffDutyDlg.obj
 0001:000763d0       ?DoOffDuty@CDlgIBADuty@@AAEXXZ 004773d0 f   OffDutyDlg.obj
 0001:00076aa0       ?InitGridTree@CDlgIBADuty@@AAEXXZ 00477aa0 f   OffDutyDlg.obj
 0001:00076d30       ?FillGird@CDlgIBADuty@@AAEXXZ 00477d30 f   OffDutyDlg.obj
 0001:000775f0       ?GetUpdateTime@CLastUserInfo@NS_DAL@@QBE?AV?$CStringT@_WV?$StrTraitMFC_DLL@_WV?$ChTraitsCRT@_W@ATL@@@@@ATL@@XZ 004785f0 f i NDCheckInDlg.obj
 0001:000775f0       ?GetTermID@CClientShortMessage@NS_DAL@@QBE?AV?$CStringT@_WV?$StrTraitMFC_DLL@_WV?$ChTraitsCRT@_W@ATL@@@@@ATL@@XZ 004785f0 f i OutputBar.obj
 0001:000775f0       ?GetGroupName@CCommodity@NS_DAL@@QBE?AV?$CStringT@_WV?$StrTraitMFC_DLL@_WV?$ChTraitsCRT@_W@ATL@@@@@ATL@@XZ 004785f0 f i OffDutyDlg.obj
 0001:000775f0       ?GetPassWord@COperationInfo@@QBE?AV?$CStringT@_WV?$StrTraitMFC_DLL@_WV?$ChTraitsCRT@_W@ATL@@@@@ATL@@XZ 004785f0 f i OutputBar.obj
 0001:000775f0       ?GetSerialNum@CLocalConsumeInfo@NS_DAL@@QBE?AV?$CStringT@_WV?$StrTraitMFC_DLL@_WV?$ChTraitsCRT@_W@ATL@@@@@ATL@@XZ 004785f0 f i AllCheckOut.obj
 0001:000775f0       ?GetTerminalID@CSeat@@QBE?AV?$CStringT@_WV?$StrTraitMFC_DLL@_WV?$ChTraitsCRT@_W@ATL@@@@@ATL@@XZ 004785f0 f i AddTerminalDlg.obj
 0001:000775f0       ?GetUserNameW@CNetBarUser@@QBE?AV?$CStringT@_WV?$StrTraitMFC_DLL@_WV?$ChTraitsCRT@_W@ATL@@@@@ATL@@XZ 004785f0 f i CheckMemberDlg.obj
 0001:000775f0       ?GetNation@CIBAScanReco@@QBE?AV?$CStringT@_WV?$StrTraitMFC_DLL@_WV?$ChTraitsCRT@_W@ATL@@@@@ATL@@XZ 004785f0 f i RealNameBase.obj
 0001:000775f0       ?GetUserNameW@CCheckOutinfo@NS_DAL@@QBE?AV?$CStringT@_WV?$StrTraitMFC_DLL@_WV?$ChTraitsCRT@_W@ATL@@@@@ATL@@XZ 004785f0 f i AllCheckOut.obj
 0001:00077630       ?GetBarCode@CCommodity@NS_DAL@@QBE?AV?$CStringT@_WV?$StrTraitMFC_DLL@_WV?$ChTraitsCRT@_W@ATL@@@@@ATL@@XZ 00478630 f i OffDutyDlg.obj
 0001:00077630       ?GetMsgBody@CClientShortMessage@NS_DAL@@QBE?AV?$CStringT@_WV?$StrTraitMFC_DLL@_WV?$ChTraitsCRT@_W@ATL@@@@@ATL@@XZ 00478630 f i OutputBar.obj
 0001:00077630       ?GetTerminalIP@CSeat@@QBE?AV?$CStringT@_WV?$StrTraitMFC_DLL@_WV?$ChTraitsCRT@_W@ATL@@@@@ATL@@XZ 00478630 f i SeatLayoutView.obj
 0001:00077630       ?GetUserNameW@COperationInfo@@QBE?AV?$CStringT@_WV?$StrTraitMFC_DLL@_WV?$ChTraitsCRT@_W@ATL@@@@@ATL@@XZ 00478630 f i OutputBar.obj
 0001:00077630       ?GetAddr@CNetBarUser@@QBE?AV?$CStringT@_WV?$StrTraitMFC_DLL@_WV?$ChTraitsCRT@_W@ATL@@@@@ATL@@XZ 00478630 f i RegisterDlg.obj
 0001:00077630       ?GetName@CLocalConsumeInfo@NS_DAL@@QBE?AV?$CStringT@_WV?$StrTraitMFC_DLL@_WV?$ChTraitsCRT@_W@ATL@@@@@ATL@@XZ 00478630 f i AllCheckOut.obj
 0001:00077630       ?GetPersonalId@CCheckOutinfo@NS_DAL@@QBE?AV?$CStringT@_WV?$StrTraitMFC_DLL@_WV?$ChTraitsCRT@_W@ATL@@@@@ATL@@XZ 00478630 f i AllCheckOut.obj
 0001:00077670       ?GetShift2@CIBAConfig@@QBE?AV?$CStringT@_WV?$StrTraitMFC_DLL@_WV?$ChTraitsCRT@_W@ATL@@@@@ATL@@XZ 00478670 f i OffDutyDlg.obj
 0001:00077670       ?GetCheckoutTime@CLocalConsumeInfo@NS_DAL@@QBE?AV?$CStringT@_WV?$StrTraitMFC_DLL@_WV?$ChTraitsCRT@_W@ATL@@@@@ATL@@XZ 00478670 f i IBADAL.obj
 0001:00077670       ?GetRetailUnit@CCommodity@NS_DAL@@QBE?AV?$CStringT@_WV?$StrTraitMFC_DLL@_WV?$ChTraitsCRT@_W@ATL@@@@@ATL@@XZ 00478670 f i JXCCommoditySelDlg.obj
 0001:00077670       ?GetCommoditycode@CCommoditySoldInfo@NS_DAL@@QBE?AV?$CStringT@_WV?$StrTraitMFC_DLL@_WV?$ChTraitsCRT@_W@ATL@@@@@ATL@@XZ 00478670 f i OffDutyDlg.obj
 0001:00077670       ?GetVoucherTime@CRetailVoucher@NS_DAL@@QBE?AV?$CStringT@_WV?$StrTraitMFC_DLL@_WV?$ChTraitsCRT@_W@ATL@@@@@ATL@@XZ 00478670 f i IBADAL-JXC.obj
 0001:00077670       ?GetOperator@CShiftCash@NS_DAL@@QBE?AV?$CStringT@_WV?$StrTraitMFC_DLL@_WV?$ChTraitsCRT@_W@ATL@@@@@ATL@@XZ 00478670 f i IBADAL-USER.obj
 0001:00077670       ?GetDepartment@CNetBarUser@@QBE?AV?$CStringT@_WV?$StrTraitMFC_DLL@_WV?$ChTraitsCRT@_W@ATL@@@@@ATL@@XZ 00478670 f i RegisterDlg.obj
 0001:000776b0       ??1CIDTypeInfo@NS_DAL@@QAE@XZ 004786b0 f i IBADAL.obj
 0001:000776b0       ??1?$pair@$$CBV?$CStringT@_WV?$StrTraitMFC_DLL@_WV?$ChTraitsCRT@_W@ATL@@@@@ATL@@H@std@@QAE@XZ 004786b0 f i ComputerList.obj
 0001:000776b0       ??1CCommodityQueryCondition@NS_DAL@@QAE@XZ 004786b0 f i OffDutyDlg.obj
 0001:000776b0       ??1CLastTranInfo@NS_SERVLET@@QAE@XZ 004786b0 f i LastTranInfo.obj
 0001:000776b0       ??1PCClassInformation@@QAE@XZ 004786b0 f i ColorGridCtrl.obj
 0001:000776b0       ??1CCreditHelpper@@QAE@XZ  004786b0 f i ServletHellper.obj
 0001:000776b0       ??1?$pair@V?$CStringT@_WV?$StrTraitMFC_DLL@_WV?$ChTraitsCRT@_W@ATL@@@@@ATL@@H@std@@QAE@XZ 004786b0 f i ComputerList.obj
 0001:000776b0       ??1CStoreInRecord@NS_SERVLET@@QAE@XZ 004786b0 f i JXCStoreDlg.obj
 0001:000776b0       ??1CIDNameRecord@NS_DAL@@QAE@XZ 004786b0 f i DlgChoseForwardBundle.obj
 0001:000776b0       ??1CRightsManagement@NS_DAL@@QAE@XZ 004786b0 f i Cashier.obj
 0001:000776b0       ??1?$pair@$$CBV?$CStringT@_WV?$StrTraitMFC_DLL@_WV?$ChTraitsCRT@_W@ATL@@@@@ATL@@I@std@@QAE@XZ 004786b0 f i ComputerList.obj
 0001:000776b0       ??1CInputParam@NS_SERVLET_HELPPER@NS_SERVLET@@QAE@XZ 004786b0 f i InputParam.obj
 0001:000776b0       ??1?$pair@V?$CStringT@_WV?$StrTraitMFC_DLL@_WV?$ChTraitsCRT@_W@ATL@@@@@ATL@@I@std@@QAE@XZ 004786b0 f i CommandProcessor.obj
 0001:000776b0       ??1CRespField@NS_SERVLET_HELPPER@NS_SERVLET@@QAE@XZ 004786b0 f i RespField.obj
 0001:000776d0       ??0CCommoditySoldInfo@NS_DAL@@QAE@ABV01@@Z 004786d0 f i OffDutyDlg.obj
 0001:00077790       ??1CCommoditySoldInfo@NS_DAL@@QAE@XZ 00478790 f i OffDutyDlg.obj
 0001:000777b0       ?OnBnClickedButtonJxcprint@CDlgIBADuty@@IAEXXZ 004787b0 f   OffDutyDlg.obj
 0001:000777e0       ?OnEnChangeEditNextreverse@CDlgIBADuty@@IAEXXZ 004787e0 f   OffDutyDlg.obj
 0001:00077800       ?Round@CDlgIBADuty@@AAEHN@Z 00478800 f   OffDutyDlg.obj
 0001:00077840       ?OnBnClickedButtonStorecheck@CDlgIBADuty@@IAEXXZ 00478840 f   OffDutyDlg.obj
 0001:000778c0       ?HideShiftTotalInfo@CDlgIBADuty@@AAEXXZ 004788c0 f   OffDutyDlg.obj
 0001:00077a60       ?GetShiftName@CDlgIBADuty@@AAE?AV?$CStringT@_WV?$StrTraitMFC_DLL@_WV?$ChTraitsCRT@_W@ATL@@@@@ATL@@I@Z 00478a60 f   OffDutyDlg.obj
 0001:00077b00       ?DeleteOffDutyOperationFile@CDlgIBADuty@@AAEXXZ 00478b00 f   OffDutyDlg.obj
 0001:00077bd0       ??1COleDispatchDriver@@QAE@XZ 00478bd0 f i OffDutyDlg.obj
 0001:00077bf0       ??0?$CArray@VCCommodity@NS_DAL@@AAV12@@@QAE@XZ 00478bf0 f i OffDutyDlg.obj
 0001:00077c40       ?GetAt@?$CArray@VCCommodity@NS_DAL@@AAV12@@@QAEAAVCCommodity@NS_DAL@@H@Z 00478c40 f i OffDutyDlg.obj
 0001:00077c80       ??1?$CArray@VCCommodity@NS_DAL@@AAV12@@@UAE@XZ 00478c80 f i OffDutyDlg.obj
 0001:00077cf0       ?Serialize@?$CArray@VCCommodity@NS_DAL@@AAV12@@@UAEXAAVCArchive@@@Z 00478cf0 f i OffDutyDlg.obj
 0001:00077d60       ??0?$CArray@VCCommoditySoldInfo@NS_DAL@@AAV12@@@QAE@XZ 00478d60 f i OffDutyDlg.obj
 0001:00077db0       ?GetAt@?$CArray@VCCommoditySoldInfo@NS_DAL@@AAV12@@@QAEAAVCCommoditySoldInfo@NS_DAL@@H@Z 00478db0 f i OffDutyDlg.obj
 0001:00077df0       ??1?$CArray@VCCommoditySoldInfo@NS_DAL@@AAV12@@@UAE@XZ 00478df0 f i OffDutyDlg.obj
 0001:00077e60       ?Serialize@?$CArray@VCCommoditySoldInfo@NS_DAL@@AAV12@@@UAEXAAVCArchive@@@Z 00478e60 f i OffDutyDlg.obj
 0001:00077ed0       ??_E?$CArray@VCCommodity@NS_DAL@@AAV12@@@UAEPAXI@Z 00478ed0 f i OffDutyDlg.obj
 0001:00077ed0       ??_G?$CArray@VCCommodity@NS_DAL@@AAV12@@@UAEPAXI@Z 00478ed0 f i OffDutyDlg.obj
 0001:00077f00       ??_GCCommodity@NS_DAL@@QAEPAXI@Z 00478f00 f i OffDutyDlg.obj
 0001:00077f30       ??_G?$CArray@VCCommoditySoldInfo@NS_DAL@@AAV12@@@UAEPAXI@Z 00478f30 f i OffDutyDlg.obj
 0001:00077f30       ??_E?$CArray@VCCommoditySoldInfo@NS_DAL@@AAV12@@@UAEPAXI@Z 00478f30 f i OffDutyDlg.obj
 0001:00077f60       ??_GCCommoditySoldInfo@NS_DAL@@QAEPAXI@Z 00478f60 f i OffDutyDlg.obj
 0001:00077f90       ??1CCommodity@NS_DAL@@QAE@XZ 00478f90 f i OffDutyDlg.obj
 0001:00078070       ??0_variant_t@@QAE@H@Z     00479070 f i OffDutyDlg.obj
 0001:000780a0       ??0_variant_t@@QAE@I@Z     004790a0 f i OffDutyDlg.obj
 0001:000780d0       ?SetSize@?$CArray@VCCommodity@NS_DAL@@AAV12@@@QAEXHH@Z 004790d0 f i OffDutyDlg.obj
 0001:00078510       ??$SerializeElements@VCCommodity@NS_DAL@@@@YGXAAVCArchive@@PAVCCommodity@NS_DAL@@H@Z 00479510 f i OffDutyDlg.obj
 0001:000785e0       ?SetSize@?$CArray@VCCommoditySoldInfo@NS_DAL@@AAV12@@@QAEXHH@Z 004795e0 f i OffDutyDlg.obj
 0001:00078a20       ??0CCommoditySoldInfo@NS_DAL@@QAE@XZ 00479a20 f i OffDutyDlg.obj
 0001:00078ac0       ??$SerializeElements@VCCommoditySoldInfo@NS_DAL@@@@YGXAAVCArchive@@PAVCCommoditySoldInfo@NS_DAL@@H@Z 00479ac0 f i OffDutyDlg.obj
 0001:00078b90       ?GetRuntimeClass@CSetPageOfDuty@@UBEPAUCRuntimeClass@@XZ 00479b90 f   OnOffDutySetPage.obj
 0001:00078ba0       ??0CSetPageOfDuty@@QAE@XZ  00479ba0 f   OnOffDutySetPage.obj
 0001:00078c90       ??_GCSetPageOfDuty@@UAEPAXI@Z 00479c90 f i OnOffDutySetPage.obj
 0001:00078c90       ??_ECSetPageOfDuty@@UAEPAXI@Z 00479c90 f i OnOffDutySetPage.obj
 0001:00078cc0       ??1CSetPageOfDuty@@UAE@XZ  00479cc0 f   OnOffDutySetPage.obj
 0001:00078d30       ?DoDataExchange@CSetPageOfDuty@@MAEXPAVCDataExchange@@@Z 00479d30 f   OnOffDutySetPage.obj
 0001:00078e10       ?GetMessageMap@CSetPageOfDuty@@MBEPBUAFX_MSGMAP@@XZ 00479e10 f   OnOffDutySetPage.obj
 0001:00078e20       ?OnOK@CSetPageOfDuty@@MAEXXZ 00479e20 f   OnOffDutySetPage.obj
 0001:00079100       ?SetInit@CIZd@@QAEXH@Z     0047a100 f i ZDRealName.obj
 0001:00079100       ?SetShiftCount@CIBAConfig@@QAEXH@Z 0047a100 f i OnOffDutySetPage.obj
 0001:00079120       ?SetNeedReportPCInfo@CLocalServer@NS_ISERVER@@QAEXH@Z 0047a120 f i MainFrm.obj
 0001:00079120       ?SetEditPayOut@CIBAConfig@@QAEXH@Z 0047a120 f i OnOffDutySetPage.obj
 0001:00079140       ?SetSeatLayoutView@CLocalServer@NS_ISERVER@@QAEXPAVCSeatLayoutView@@@Z 0047a140 f i LocalServer.obj
 0001:00079140       ?SetShowShiftTotalInfo@CIBAConfig@@QAEXH@Z 0047a140 f i OnOffDutySetPage.obj
 0001:00079140       ?SetUserSex@CCardOpenInfo@NS_DAL@@QAEXI@Z 0047a140 f i RegisterDlg.obj
 0001:00079160       ?SetPrintShiftReport@CIBAConfig@@QAEXH@Z 0047a160 f i OnOffDutySetPage.obj
 0001:00079160       ?SetModifiedFlag@CDocument@@UAEXH@Z 0047a160 f i IBADoc.obj
 0001:00079160       ?SetActiveMemberView@CLocalServer@NS_ISERVER@@QAEXPAVCActiveMemberView@@@Z 0047a160 f i LocalServer.obj
 0001:00079180       ?SetShift1@CIBAConfig@@QAEXV?$CStringT@_WV?$StrTraitMFC_DLL@_WV?$ChTraitsCRT@_W@ATL@@@@@ATL@@@Z 0047a180 f i OnOffDutySetPage.obj
 0001:000791e0       ?SetShift2@CIBAConfig@@QAEXV?$CStringT@_WV?$StrTraitMFC_DLL@_WV?$ChTraitsCRT@_W@ATL@@@@@ATL@@@Z 0047a1e0 f i OnOffDutySetPage.obj
 0001:00079240       ?SetShift3@CIBAConfig@@QAEXV?$CStringT@_WV?$StrTraitMFC_DLL@_WV?$ChTraitsCRT@_W@ATL@@@@@ATL@@@Z 0047a240 f i OnOffDutySetPage.obj
 0001:000792a0       ?SetNetBarID@CNetBarInfo@NS_DAL@@QAEXI@Z 0047a2a0 f i IBADAL.obj
 0001:000792a0       ?SetDynamicReserve@CIBAConfig@@QAEXH@Z 0047a2a0 f i OnOffDutySetPage.obj
 0001:000792a0       ?SetOperationType@COperationInfo@@QAEXI@Z 0047a2a0 f i AllCheckOut.obj
 0001:000792a0       ?SetBundleTimeType@CFullBundleTimeInfo@@QAEXI@Z 0047a2a0 f i NetbarBundleTime.obj
 0001:000792c0       ?SetNetBarType@CNetBarInfo@NS_DAL@@QAEXI@Z 0047a2c0 f i IBADAL.obj
 0001:000792c0       ?SetCreditPresent@CCreditInfoDB@NS_DAL@@QAEXI@Z 0047a2c0 f i BundleTimeDlg.obj
 0001:000792c0       ?SetCashRegisterID@CCardOpenInfo@NS_DAL@@QAEXI@Z 0047a2c0 f i RegisterDlg.obj
 0001:000792c0       ?SetOperationAmount@COperationInfo@@QAEXI@Z 0047a2c0 f i AllCheckOut.obj
 0001:000792c0       ?SetNotShowChgDutyBtn@CIBAConfig@@QAEXH@Z 0047a2c0 f i OnOffDutySetPage.obj
 0001:000792e0       ?SetComputerListView@CLocalServer@NS_ISERVER@@QAEXPAVCComputerListView@@@Z 0047a2e0 f i LocalServer.obj
 0001:000792e0       ?SetShiftReportType@CIBAConfig@@QAEXI@Z 0047a2e0 f i OnOffDutySetPage.obj
 0001:00079300       ?SetFixReserve@CIBAConfig@@QAEXV?$CStringT@_WV?$StrTraitMFC_DLL@_WV?$ChTraitsCRT@_W@ATL@@@@@ATL@@@Z 0047a300 f i OnOffDutySetPage.obj
 0001:00079360       ?SetAllowNextDutyMoney@CIBAConfig@@QAEXABH@Z 0047a360 f i OnOffDutySetPage.obj
 0001:00079380       ?OnInitDialog@CSetPageOfDuty@@MAEHXZ 0047a380 f   OnOffDutySetPage.obj
 0001:00079740       ?GetShift3@CIBAConfig@@QBE?AV?$CStringT@_WV?$StrTraitMFC_DLL@_WV?$ChTraitsCRT@_W@ATL@@@@@ATL@@XZ 0047a740 f i OnOffDutySetPage.obj
 0001:00079740       ?GetTermId@CLocalConsumeInfo@NS_DAL@@QBE?AV?$CStringT@_WV?$StrTraitMFC_DLL@_WV?$ChTraitsCRT@_W@ATL@@@@@ATL@@XZ 0047a740 f i AllCheckOut.obj
 0001:00079740       ?GetDescription@CRetailVoucher@NS_DAL@@QBE?AV?$CStringT@_WV?$StrTraitMFC_DLL@_WV?$ChTraitsCRT@_W@ATL@@@@@ATL@@XZ 0047a740 f i IBADAL-JXC.obj
 0001:00079740       ?GetNextOperator@CShiftCash@NS_DAL@@QBE?AV?$CStringT@_WV?$StrTraitMFC_DLL@_WV?$ChTraitsCRT@_W@ATL@@@@@ATL@@XZ 0047a740 f i IBADAL-USER.obj
 0001:00079780       ?OnCbnSelchangeComboShiftcount@CSetPageOfDuty@@IAEXXZ 0047a780 f   OnOffDutySetPage.obj
 0001:000798c0       ?OnBnClickedCheckDynamicreverse@CSetPageOfDuty@@IAEXXZ 0047a8c0 f   OnOffDutySetPage.obj
 0001:00079910       ??0COperationInfo@@QAE@XZ  0047a910 f   OperationInfo.obj
 0001:00079a00       ??_GCOperationInfo@@UAEPAXI@Z 0047aa00 f i OperationInfo.obj
 0001:00079a00       ??_ECOperationInfo@@UAEPAXI@Z 0047aa00 f i OperationInfo.obj
 0001:00079a30       ??1COperationInfo@@UAE@XZ  0047aa30 f   OperationInfo.obj
 0001:00079a90       ?CreateObject@COperationView@@SGPAVCObject@@XZ 0047aa90 f   OperationView.obj
 0001:00079b00       ?GetThisClass@COperationView@@SGPAUCRuntimeClass@@XZ 0047ab00 f   OperationView.obj
 0001:00079b10       ?GetRuntimeClass@COperationView@@UBEPAUCRuntimeClass@@XZ 0047ab10 f   OperationView.obj
 0001:00079b20       ??0COperationView@@IAE@XZ  0047ab20 f   OperationView.obj
 0001:00079c80       ??_ECOperationView@@MAEPAXI@Z 0047ac80 f i OperationView.obj
 0001:00079c80       ??_GCOperationView@@MAEPAXI@Z 0047ac80 f i OperationView.obj
 0001:00079cb0       ??1COperationView@@MAE@XZ  0047acb0 f   OperationView.obj
 0001:00079dd0       ?DoDataExchange@COperationView@@MAEXPAVCDataExchange@@@Z 0047add0 f   OperationView.obj
 0001:00079eb0       ?GetMessageMap@COperationView@@MBEPBUAFX_MSGMAP@@XZ 0047aeb0 f   OperationView.obj
 0001:00079ec0       ?InitListView@COperationView@@IAEXXZ 0047aec0 f   OperationView.obj
 0001:0007a140       ?InitTimeControl@CNDTermConsumeView@@AAEXXZ 0047b140 f   NDTermConsumeView.obj
 0001:0007a140       ?InitTimeControl@COperationView@@IAEXXZ 0047b140 f   OperationView.obj
 0001:0007a250       ?OnBnClickedButtonQuery@COperationView@@QAEXXZ 0047b250 f   OperationView.obj
 0001:0007a280       ?OnInitialUpdate@COperationView@@UAEXXZ 0047b280 f   OperationView.obj
 0001:0007a3d0       ?OnSize@COperationView@@QAEXIHH@Z 0047b3d0 f   OperationView.obj
 0001:0007a440       ?OnTimer@COperationView@@QAEXI@Z 0047b440 f   OperationView.obj
 0001:0007a4c0       ?InitData@COperationView@@IAEXXZ 0047b4c0 f   OperationView.obj
 0001:0007a690       ?OnCbnSelchangeComboOperation@COperationView@@QAEXXZ 0047b690 f   OperationView.obj
 0001:0007a6d0       ?OnCtlColor@CComsumeListView@@IAEPAUHBRUSH__@@PAVCDC@@PAVCWnd@@I@Z 0047b6d0 f   ComsumeListView.obj
 0001:0007a6d0       ?OnCtlColor@CShiftCashView@@IAEPAUHBRUSH__@@PAVCDC@@PAVCWnd@@I@Z 0047b6d0 f   ShiftCashView.obj
 0001:0007a6d0       ?OnCtlColor@CNDTermConsumeView@@IAEPAUHBRUSH__@@PAVCDC@@PAVCWnd@@I@Z 0047b6d0 f   NDTermConsumeView.obj
 0001:0007a6d0       ?OnCtlColor@COperationView@@QAEPAUHBRUSH__@@PAVCDC@@PAVCWnd@@I@Z 0047b6d0 f   OperationView.obj
 0001:0007a6d0       ?OnCtlColor@CShortMsgView@@IAEPAUHBRUSH__@@PAVCDC@@PAVCWnd@@I@Z 0047b6d0 f   ShortMsgView.obj
 0001:0007a720       ?StatUserCount@COperationView@@IAEXIAAV?$CStringT@_WV?$StrTraitMFC_DLL@_WV?$ChTraitsCRT@_W@ATL@@@@@ATL@@@Z 0047b720 f   OperationView.obj
 0001:0007a870       ?GetAt@CObArray@@QBEPAVCObject@@H@Z 0047b870 f i SeatList.obj
 0001:0007a870       ?GetAt@CUIntArray@@QBEIH@Z 0047b870 f i OperationView.obj
 0001:0007a8a0       ?SetAt@CUIntArray@@QAEXHI@Z 0047b8a0 f i OperationView.obj
 0001:0007a8e0       ?ClearData@COperationView@@IAEXXZ 0047b8e0 f   OperationView.obj
 0001:0007a990       ?RemoveAll@CUIntArray@@QAEXXZ 0047b990 f i OperationView.obj
 0001:0007a9b0       ?OnNMClickListCommon@COperationView@@QAEXPAUtagNMHDR@@PAJ@Z 0047b9b0 f   OperationView.obj
 0001:0007aa60       ?InitUserClassComboBox@COperationView@@IAEXXZ 0047ba60 f   OperationView.obj
 0001:0007abb0       ?ResetContent@CComboBox@@QAEXXZ 0047bbb0 f i OperationView.obj
 0001:0007abe0       ?InitDetailData@COperationView@@IAEXAAVCDetailDataMethod@NS_SERVLET@@@Z 0047bbe0 f   OperationView.obj
 0001:0007ad90       ?QueryCreditCenter@COperationView@@IAEXH@Z 0047bd90 f   OperationView.obj
 0001:0007b4f0       ?QueryRegisterCenter@COperationView@@IAEXXZ 0047c4f0 f   OperationView.obj
 0001:0007bcc0       ?QueryReturnedCenter@COperationView@@IAEXXZ 0047ccc0 f   OperationView.obj
 0001:0007c3a0       ?QueryCreditRevserCenter@COperationView@@IAEXXZ 0047d3a0 f   OperationView.obj
 0001:0007c3c0       ?QueryCardCreditCenter@COperationView@@IAEXXZ 0047d3c0 f   OperationView.obj
 0001:0007cb50       ?QueryUpgradeCenter@COperationView@@IAEXXZ 0047db50 f   OperationView.obj
 0001:0007d1a0       ?OnBnClickedButtonNext@COperationView@@QAEXXZ 0047e1a0 f   OperationView.obj
 0001:0007d1e0       ?OnBnClickedButtonPrev@COperationView@@QAEXXZ 0047e1e0 f   OperationView.obj
 0001:0007d220       ?CheckMoreRecord@COperationView@@IAEXAAVCDetailDataMethod@NS_SERVLET@@@Z 0047e220 f   OperationView.obj
 0001:0007d2b0       ?DoQuery@COperationView@@IAEXXZ 0047e2b0 f   OperationView.obj
 0001:0007d450       ?GetMessageMap@CIBAOutputBar@@MBEPBUAFX_MSGMAP@@XZ 0047e450 f   OutputBar.obj
 0001:0007d460       ??0CIBAOutputBar@@QAE@XZ   0047e460 f   OutputBar.obj
 0001:0007d540       ??_ECIBAOutputBar@@UAEPAXI@Z 0047e540 f i OutputBar.obj
 0001:0007d540       ??_GCIBAOutputBar@@UAEPAXI@Z 0047e540 f i OutputBar.obj
 0001:0007d570       ??1CIBAOutputBar@@UAE@XZ   0047e570 f   OutputBar.obj
 0001:0007d650       ?OnCreate@CIBAOutputBar@@IAEHPAUtagCREATESTRUCTW@@@Z 0047e650 f   OutputBar.obj
 0001:0007d9c0       ?OnSize@CIBAOutputBar@@IAEXIHH@Z 0047e9c0 f   OutputBar.obj
 0001:0007da20       ?SetCreditInfo@CIBAOutputBar@@IAEXAAVCOperationInfo@@@Z 0047ea20 f   OutputBar.obj
 0001:0007dea0       ?AddCheckOutLog@CIBAOutputBar@@QAEHAAVCOperationInfo@@@Z 0047eea0 f   OutputBar.obj
 0001:0007efc0       ?GetTermId@COperationInfo@@QBE?AV?$CStringT@_WV?$StrTraitMFC_DLL@_WV?$ChTraitsCRT@_W@ATL@@@@@ATL@@XZ 0047ffc0 f i OutputBar.obj
 0001:0007f000       ?GetCheckInTime@COperationInfo@@QBE?AVCOleDateTime@ATL@@XZ 00480000 f i OutputBar.obj
 0001:0007f030       ?AddOperationLog@CIBAOutputBar@@QAEXAAVCOperationInfo@@@Z 00480030 f   OutputBar.obj
 0001:00080260       ?AddActiveLog@CIBAOutputBar@@IAEXXZ 00481260 f   OutputBar.obj
 0001:00080620       ?AddLocalActiveLog@CIBAOutputBar@@IAEXPAVCActiveMember@@@Z 00481620 f   OutputBar.obj
 0001:000808d0       ?AddUpLoadingLocalRecordLog@CIBAOutputBar@@IAEXV?$CStringT@_WV?$StrTraitMFC_DLL@_WV?$ChTraitsCRT@_W@ATL@@@@@ATL@@@Z 004818d0 f   OutputBar.obj
 0001:00080930       ?CreateOperationList@CIBAOutputBar@@IAEHXZ 00481930 f   OutputBar.obj
 0001:00080ae0       ?CreateActiveList@CIBAOutputBar@@IAEHXZ 00481ae0 f   OutputBar.obj
 0001:00080c80       ?CreateMsgList@CIBAOutputBar@@IAEHXZ 00481c80 f   OutputBar.obj
 0001:00080e00       ?CreateConsumeList@CIBAOutputBar@@IAEHXZ 00481e00 f   OutputBar.obj
 0001:00080f90       ?CreateCheckOutList@CIBAOutputBar@@IAEHXZ 00481f90 f   OutputBar.obj
 0001:00081140       ?AddMsgLog@CIBAOutputBar@@QAEXAAVCClientShortMessage@NS_DAL@@@Z 00482140 f   OutputBar.obj
 0001:00081290       ?FormatNetId@CIBAOutputBar@@IAE?AV?$CStringT@_WV?$StrTraitMFC_DLL@_WV?$ChTraitsCRT@_W@ATL@@@@@ATL@@V23@@Z 00482290 f   OutputBar.obj
 0001:000813a0       ?QueryConsume@CIBAOutputBar@@IAEXAAVCOperationInfo@@HI@Z 004823a0 f   OutputBar.obj
 0001:000820c0       ?GetOperationTime@COperationInfo@@QBE?AVCOleDateTime@ATL@@XZ 004830c0 f i OutputBar.obj
 0001:000820f0       ?OnOperationLog@CIBAOutputBar@@IAEJIJ@Z 004830f0 f   OutputBar.obj
 0001:000821e0       ?RefreshAllInfoList@CIBAOutputBar@@QAEXXZ 004831e0 f   OutputBar.obj
 0001:00082240       ?RefreshInfoList@CIBAOutputBar@@QAEXV?$CStringT@_WV?$StrTraitMFC_DLL@_WV?$ChTraitsCRT@_W@ATL@@@@@ATL@@AAVCOutputListCtrl@@@Z 00483240 f   OutputBar.obj
 0001:00082460       ?DeleteDutyFile@CIBAOutputBar@@QAEXXZ 00483460 f   OutputBar.obj
 0001:000824b0       ?SaveToFile@CIBAOutputBar@@QAEXV?$CStringT@_WV?$StrTraitMFC_DLL@_WV?$ChTraitsCRT@_W@ATL@@@@@ATL@@AAVCOutputListCtrl@@@Z 004834b0 f   OutputBar.obj
 0001:00082670       ?DeleteListFile@CIBAOutputBar@@QAEXV?$CStringT@_WV?$StrTraitMFC_DLL@_WV?$ChTraitsCRT@_W@ATL@@@@@ATL@@@Z 00483670 f   OutputBar.obj
 0001:00082770       ?OnContextMenu@CIBAOutputBar@@QAEXPAVCWnd@@VCPoint@@@Z 00483770 f   OutputBar.obj
 0001:00082860       ?OnExportExcel@CIBAOutputBar@@QAEXXZ 00483860 f   OutputBar.obj
 0001:00082b50       ??GCOleDateTime@ATL@@QBE?AV01@VCOleDateTimeSpan@1@@Z 00483b50 f i OutputBar.obj
 0001:00082ba0       ?DeleteItem@CListCtrl@@QAEHH@Z 00483ba0 f i OutputBar.obj
 0001:00082bd0       ??0?$CArray@VCClientShortMessage@NS_DAL@@AAV12@@@QAE@XZ 00483bd0 f i OutputBar.obj
 0001:00082c20       ?GetAt@?$CArray@VCClientShortMessage@NS_DAL@@AAV12@@@QAEAAVCClientShortMessage@NS_DAL@@H@Z 00483c20 f i OutputBar.obj
 0001:00082c20       ?GetAt@?$CArray@VCSellRecord@NS_SERVLET@@AAV12@@@QAEAAVCSellRecord@NS_SERVLET@@H@Z 00483c20 f i RetailMethod.obj
 0001:00082c60       ??1?$CArray@VCClientShortMessage@NS_DAL@@AAV12@@@UAE@XZ 00483c60 f i OutputBar.obj
 0001:00082cd0       ?Serialize@?$CArray@VCClientShortMessage@NS_DAL@@AAV12@@@UAEXAAVCArchive@@@Z 00483cd0 f i OutputBar.obj
 0001:00082d40       ??_E?$CArray@VCClientShortMessage@NS_DAL@@AAV12@@@UAEPAXI@Z 00483d40 f i OutputBar.obj
 0001:00082d40       ??_G?$CArray@VCClientShortMessage@NS_DAL@@AAV12@@@UAEPAXI@Z 00483d40 f i OutputBar.obj
 0001:00082d70       ??_GCClientShortMessage@NS_DAL@@QAEPAXI@Z 00483d70 f i OutputBar.obj
 0001:00082da0       ??1CClientShortMessage@NS_DAL@@QAE@XZ 00483da0 f i OutputBar.obj
 0001:00082de0       ?SetSize@?$CArray@VCClientShortMessage@NS_DAL@@AAV12@@@QAEXHH@Z 00483de0 f i OutputBar.obj
 0001:00083220       ??0CClientShortMessage@NS_DAL@@QAE@XZ 00484220 f i OutputBar.obj
 0001:00083280       ??$SerializeElements@VCClientShortMessage@NS_DAL@@@@YGXAAVCArchive@@PAVCClientShortMessage@NS_DAL@@H@Z 00484280 f i OutputBar.obj
 0001:00083280       ??$SerializeElements@VCSellRecord@NS_SERVLET@@@@YGXAAVCArchive@@PAVCSellRecord@NS_SERVLET@@H@Z 00484280 f i JXCExchangeDlg.obj
 0001:00083350       ?GetRuntimeClass@CNDPointExchangeDlg@@UBEPAUCRuntimeClass@@XZ 00484350 f   PointExchangeDlg.obj
 0001:00083360       ??0CNDPointExchangeDlg@@QAE@PAVCWnd@@@Z 00484360 f   PointExchangeDlg.obj
 0001:00083430       ??_ECNDPointExchangeDlg@@UAEPAXI@Z 00484430 f i PointExchangeDlg.obj
 0001:00083430       ??_GCNDPointExchangeDlg@@UAEPAXI@Z 00484430 f i PointExchangeDlg.obj
 0001:00083460       ??1CNDPointExchangeDlg@@UAE@XZ 00484460 f   PointExchangeDlg.obj
 0001:00083500       ?DoDataExchange@CNDPointExchangeDlg@@MAEXPAVCDataExchange@@@Z 00484500 f   PointExchangeDlg.obj
 0001:000835f0       ?GetMessageMap@CNDPointExchangeDlg@@MBEPBUAFX_MSGMAP@@XZ 004845f0 f   PointExchangeDlg.obj
 0001:00083600       ?OnInitDialog@CNDPointExchangeDlg@@MAEHXZ 00484600 f   PointExchangeDlg.obj
 0001:000836e0       ?OnBnClickedOk@CNDPointExchangeDlg@@IAEXXZ 004846e0 f   PointExchangeDlg.obj
 0001:00083910       ?OnOldCard@CNDPointExchangeDlg@@MAEXII@Z 00484910 f   PointExchangeDlg.obj
 0001:000839a0       ?OnGetBalanceOK@CNDPointExchangeDlg@@MAEXAAVCBalanceMethod@NS_SERVLET@@@Z 004849a0 f   PointExchangeDlg.obj
 0001:00083ba0       ?ClearData@CNDPointExchangeDlg@@MAEXXZ 00484ba0 f   PointExchangeDlg.obj
 0001:00083c30       ?OnCtlColor@CNDPointExchangeDlg@@IAEPAUHBRUSH__@@PAVCDC@@PAVCWnd@@I@Z 00484c30 f   PointExchangeDlg.obj
 0001:00083c80       ?GetRuntimeClass@CPrintSetPage@@UBEPAUCRuntimeClass@@XZ 00484c80 f   PrintSetPage.obj
 0001:00083c90       ??0CPrintSetPage@@QAE@XZ   00484c90 f   PrintSetPage.obj
 0001:00083d30       ??_ECPrintSetPage@@UAEPAXI@Z 00484d30 f i PrintSetPage.obj
 0001:00083d30       ??_GCPrintSetPage@@UAEPAXI@Z 00484d30 f i PrintSetPage.obj
 0001:00083d60       ??1CPrintSetPage@@UAE@XZ   00484d60 f   PrintSetPage.obj
 0001:00083d80       ?DoDataExchange@CPrintSetPage@@MAEXPAVCDataExchange@@@Z 00484d80 f   PrintSetPage.obj
 0001:00083e70       ?GetMessageMap@CPrintSetPage@@MBEPBUAFX_MSGMAP@@XZ 00484e70 f   PrintSetPage.obj
 0001:00083e80       ?OnOK@CPrintSetPage@@MAEXXZ 00484e80 f   PrintSetPage.obj
 0001:00083f60       ?SetPrintFontSize@CIBAConfig@@QAEXH@Z 00484f60 f i PrintSetPage.obj
 0001:00083f80       ?SetPrintTicketCreditMember@CIBAConfig@@QAEXABH@Z 00484f80 f i PrintSetPage.obj
 0001:00083fa0       ?SetPrintTicketCreditTemp@CIBAConfig@@QAEXABH@Z 00484fa0 f i PrintSetPage.obj
 0001:00083fc0       ?SetPrintTicketOpenMember@CIBAConfig@@QAEXABH@Z 00484fc0 f i PrintSetPage.obj
 0001:00083fe0       ?SetPrintTicketOpenTemp@CIBAConfig@@QAEXABH@Z 00484fe0 f i PrintSetPage.obj
 0001:00084000       ?SetPrintTicketBTMember@CIBAConfig@@QAEXABH@Z 00485000 f i PrintSetPage.obj
 0001:00084020       ?SetPrintTicketBTTemp@CIBAConfig@@QAEXABH@Z 00485020 f i PrintSetPage.obj
 0001:00084040       ?SetPrintTicketReturnMember@CIBAConfig@@QAEXABH@Z 00485040 f i PrintSetPage.obj
 0001:00084060       ?SetPrintTicketReturnTemp@CIBAConfig@@QAEXABH@Z 00485060 f i PrintSetPage.obj
 0001:00084080       ?OnInitDialog@CPrintSetPage@@MAEHXZ 00485080 f   PrintSetPage.obj
 0001:00084160       ??0CProcessEnumerator@@IAE@XZ 00485160 f   Process.obj
 0001:00084180       ??_ECProcessEnumerator@@MAEPAXI@Z 00485180 f i Process.obj
 0001:00084180       ??_GCProcessEnumerator@@MAEPAXI@Z 00485180 f i Process.obj
 0001:000841b0       ??1CProcessEnumerator@@MAE@XZ 004851b0 f   Process.obj
 0001:000841d0       ?StartEnum@CProcessEnumerator@@QAEHXZ 004851d0 f   Process.obj
 0001:00084290       ?ProcessEachName@CProcessEnumerator@@MAEHV?$CStringT@_WV?$StrTraitMFC_DLL@_WV?$ChTraitsCRT@_W@ATL@@@@@ATL@@@Z 00485290 f   Process.obj
 0001:000842c0       ??0CProcess@@QAE@XZ        004852c0 f   Process.obj
 0001:00084330       ??_ECProcess@@UAEPAXI@Z    00485330 f i Process.obj
 0001:00084330       ??_GCProcess@@UAEPAXI@Z    00485330 f i Process.obj
 0001:00084360       ??0CProcess@@QAE@K@Z       00485360 f   Process.obj
 0001:000843e0       ??1CProcess@@UAE@XZ        004853e0 f   Process.obj
 0001:00084450       ?CommnoConstruct@CProcess@@AAEXXZ 00485450 f   Process.obj
 0001:000844a0       ?Attach@CProcess@@QAEXPB_W@Z 004854a0 f   Process.obj
 0001:000844f0       ?Attach@CProcess@@QAEXPAX@Z 004854f0 f   Process.obj
 0001:000845e0       ?Attach@CProcess@@QAEXK@Z  004855e0 f   Process.obj
 0001:00084610       ?Terminate@CProcess@@QAEHK@Z 00485610 f   Process.obj
 0001:00084680       ?Wait@CProcess@@QAEXK@Z    00485680 f   Process.obj
 0001:000846b0       ?IsRunning@CProcess@@QAEHXZ 004856b0 f   Process.obj
 0001:00084710       ?OnEnuming@CProcess@@EAEHK@Z 00485710 f   Process.obj
 0001:000847b0       ?CheckImageName@CProcess@@QAEHPB_W@Z 004857b0 f   Process.obj
 0001:000848a0       ?Add@?$CArray@V?$CStringT@_WV?$StrTraitMFC_DLL@_WV?$ChTraitsCRT@_W@ATL@@@@@ATL@@V12@@@QAEHV?$CStringT@_WV?$StrTraitMFC_DLL@_WV?$ChTraitsCRT@_W@ATL@@@@@ATL@@@Z 004858a0 f i Process.obj
 0001:00084920       ?SetAtGrow@?$CArray@V?$CStringT@_WV?$StrTraitMFC_DLL@_WV?$ChTraitsCRT@_W@ATL@@@@@ATL@@V12@@@QAEXHV?$CStringT@_WV?$StrTraitMFC_DLL@_WV?$ChTraitsCRT@_W@ATL@@@@@ATL@@@Z 00485920 f i Process.obj
 0001:000849a0       ?GetRuntimeClass@CDlgPwd@@UBEPAUCRuntimeClass@@XZ 004859a0 f   PwdDlg.obj
 0001:000849b0       ??0CDlgPwd@@QAE@PAVCWnd@@@Z 004859b0 f   PwdDlg.obj
 0001:00084a30       ??_GCDlgPwd@@UAEPAXI@Z     00485a30 f i PwdDlg.obj
 0001:00084a30       ??_ECDlgPwd@@UAEPAXI@Z     00485a30 f i PwdDlg.obj
 0001:00084a60       ??1CDlgPwd@@UAE@XZ         00485a60 f   PwdDlg.obj
 0001:00084ad0       ?DoDataExchange@CDlgPwd@@MAEXPAVCDataExchange@@@Z 00485ad0 f   PwdDlg.obj
 0001:00084b10       ?GetMessageMap@CDlgPwd@@MBEPBUAFX_MSGMAP@@XZ 00485b10 f   PwdDlg.obj
 0001:00084b20       ?OnEnChangeEditPwd@CDlgPwd@@IAEXXZ 00485b20 f   PwdDlg.obj
 0001:00084b80       ?OnInitDialog@CDlgPwd@@MAEHXZ 00485b80 f   PwdDlg.obj
 0001:00084bd0       ?OnBnClickedOk@CDlgPwd@@IAEXXZ 00485bd0 f   PwdDlg.obj
 0001:00084c10       ?GetRuntimeClass@CRegisterDlg@@UBEPAUCRuntimeClass@@XZ 00485c10 f   RegisterDlg.obj
 0001:00084c20       ??0CRegisterDlg@@QAE@PAVCWnd@@@Z 00485c20 f   RegisterDlg.obj
 0001:00084f20       ??_GCRegisterDlg@@UAEPAXI@Z 00485f20 f i RegisterDlg.obj
 0001:00084f20       ??_ECRegisterDlg@@UAEPAXI@Z 00485f20 f i RegisterDlg.obj
 0001:00084f50       ??1CRegisterDlg@@UAE@XZ    00485f50 f   RegisterDlg.obj
 0001:00085220       ?DoDataExchange@CRegisterDlg@@MAEXPAVCDataExchange@@@Z 00486220 f   RegisterDlg.obj
 0001:00085410       ?GetMessageMap@CRegisterDlg@@MBEPBUAFX_MSGMAP@@XZ 00486410 f   RegisterDlg.obj
 0001:00085420       ?OnBnClickedOk@CRegisterDlg@@IAEXXZ 00486420 f   RegisterDlg.obj
 0001:00085860       ?CheckInput@CRegisterDlg@@AAEHXZ 00486860 f   RegisterDlg.obj
 0001:00085e10       ?GetLimitAge@CNetBarConfig@@QAE?BHXZ 00486e10 f i RegisterDlg.obj
 0001:00085e10       ?GetOffLineColor@CIBAConfig@@QBEKXZ 00486e10 f i MonitorSetPage.obj
 0001:00085e30       ?GetThiefColor@CIBAConfig@@QBEKXZ 00486e30 f i MonitorSetPage.obj
 0001:00085e30       ?GetMobileOpen@CNetBarConfig@@QAE?BHXZ 00486e30 f i RegisterDlg.obj
 0001:00085e50       ?OnInitDialog@CRegisterDlg@@MAEHXZ 00486e50 f   RegisterDlg.obj
 0001:00085fb0       ?OnCtlColor@CRegisterDlg@@IAEPAUHBRUSH__@@PAVCDC@@PAVCWnd@@I@Z 00486fb0 f   RegisterDlg.obj
 0001:00086050       ?InitContrls@CRegisterDlg@@AAEXXZ 00487050 f   RegisterDlg.obj
 0001:00086600       ?GetTempMember@CNetBarConfig@@QBEHXZ 00487600 f i RegisterDlg.obj
 0001:00086620       ?GetHideTelInput@CNetBarConfig@@QBEHXZ 00487620 f i RegisterDlg.obj
 0001:00086640       ?SetReadOnly@CEdit@@QAEHH@Z 00487640 f i RegisterDlg.obj
 0001:00086670       ?MakeUserPwd@CRegisterDlg@@AAEXXZ 00487670 f   RegisterDlg.obj
 0001:00086a10       ?GetPwd@CDlgPwd@@QBE?AV?$CStringT@_WV?$StrTraitMFC_DLL@_WV?$ChTraitsCRT@_W@ATL@@@@@ATL@@XZ 00487a10 f i RegisterDlg.obj
 0001:00086a50       ?PrintTicket@CRegisterDlg@@AAEXXZ 00487a50 f   RegisterDlg.obj
 0001:00086a80       ?GetNoRecordColor@CIBAConfig@@QBEKXZ 00487a80 f i ColorGridCtrl.obj
 0001:00086a80       ?GetIsPrintA4@CNetBarConfig@@QAE?BHXZ 00487a80 f i RegisterDlg.obj
 0001:00086aa0       ?PrintTicket2@CRegisterDlg@@AAEXXZ 00487aa0 f   RegisterDlg.obj
 0001:00086dc0       ?PrintTicketPos@CRegisterDlg@@AAEXXZ 00487dc0 f   RegisterDlg.obj
 0001:00086fd0       ?PrintTicketA4@CRegisterDlg@@AAEXXZ 00487fd0 f   RegisterDlg.obj
 0001:000871c0       ?GetInstance@CIBAPrintA4@@SAPAV1@XZ 004881c0 f i RegisterDlg.obj
 0001:00087230       ??0CIBAPrintA4@@QAE@XZ     00488230 f i RegisterDlg.obj
 0001:000872e0       ??0CG2XPrintHelper@@QAE@PAVCWnd@@@Z 004882e0 f i RegisterDlg.obj
 0001:00087320       ??1CG2XPrintHelper@@UAE@XZ 00488320 f i RegisterDlg.obj
 0001:00087350       ?OnEndPrinting@CG2XPrintHelper@@MAEXPAVCDC@@PAUCPrintInfo@@@Z 00488350 f i RegisterDlg.obj
 0001:00087350       ?didDumpText@CG2XServerSocketDelegate@@MAEXPBD_N@Z 00488350 f i LocalCenter.obj
 0001:00087350       ?OnSendShortMsgResp@CCommandProcessor@NS_ISERVER@@AAEXPAEI@Z 00488350 f i CommandProcessor.obj
 0001:00087350       ?OnGetComputerCount@CCommandProcessor@NS_ISERVER@@AAEXPAEI@Z 00488350 f i CommandProcessor.obj
 0001:00087350       ?OnPrepareDC@CG2XPrintHelper@@MAEXPAVCDC@@PAUCPrintInfo@@@Z 00488350 f i RegisterDlg.obj
 0001:00087350       ?didErrorReport@CG2XThreadDelegate@@MAEXPAVCG2XThread@@PBD@Z 00488350 f i G2XThreadTemplate.obj
 0001:00087350       ?didClientDisconnected@CG2XServerSocketDelegate@@MAEXPAVCG2XSocketServer@@PAVCG2XSocketContext@@@Z 00488350 f i LocalCenter.obj
 0001:00087350       ?OnBeginPrinting@CG2XPrintHelper@@MAEXPAVCDC@@PAUCPrintInfo@@@Z 00488350 f i RegisterDlg.obj
 0001:00087350       ?OnDrawFocusRect@CBCGPLabelButton@@MAEXPAVCDC@@ABVCRect@@@Z 00488350 f i BCGPLabalButton.obj
 0001:00087350       ?DefaultProcess@CCommandProcessor@NS_ISERVER@@AAEXPAEI@Z 00488350 f i CommandProcessor.obj
 0001:00087350       ?didClientExceptExit@CG2XServerSocketDelegate@@MAEXPAVCG2XSocketServer@@PAVCG2XSocketContext@@@Z 00488350 f i LocalCenter.obj
 0001:00087350       ?OnPrint@CG2XPrintHelper@@MAEXPAVCDC@@PAUCPrintInfo@@@Z 00488350 f i RegisterDlg.obj
 0001:00087360       ??_GCG2XPrintHelper@@UAEPAXI@Z 00488360 f i RegisterDlg.obj
 0001:00087360       ??_ECG2XPrintHelper@@UAEPAXI@Z 00488360 f i RegisterDlg.obj
 0001:00087390       ??0CPrintInterfaceBase@@QAE@XZ 00488390 f i RegisterDlg.obj
 0001:000873b0       ?DoPrint@CIBAPrintA4@@QAEXXZ 004883b0 f i RegisterDlg.obj
 0001:000873d0       ??_GCIBAPrintA4@@UAEPAXI@Z 004883d0 f i RegisterDlg.obj
 0001:000873d0       ??_ECIBAPrintA4@@UAEPAXI@Z 004883d0 f i RegisterDlg.obj
 0001:00087400       ??1CIBAPrintA4@@UAE@XZ     00488400 f i RegisterDlg.obj
 0001:000874a0       ?DoModal@CRegisterDlg@@UAEHXZ 004884a0 f   RegisterDlg.obj
 0001:000874f0       ?ClearData@CRegisterDlg@@EAEXXZ 004884f0 f   RegisterDlg.obj
 0001:00087550       ?GetCardIdFromCenter@CRegisterDlg@@AAEHXZ 00488550 f   RegisterDlg.obj
 0001:000877a0       ?SetCardId@CRegisterDlg@@QAEXV?$CStringT@_WV?$StrTraitMFC_DLL@_WV?$ChTraitsCRT@_W@ATL@@@@@ATL@@@Z 004887a0 f i RegisterDlg.obj
 0001:00087800       ?OnBnClickedButtonBundletime@CRegisterDlg@@IAEXXZ 00488800 f   RegisterDlg.obj
 0001:00087930       ?IsBundleTime@CRegisterDlg@@AAEHXZ 00488930 f   RegisterDlg.obj
 0001:00087cb0       ?OnBnClickedButtonReadid2@CRegisterDlg@@IAEXXZ 00488cb0 f   RegisterDlg.obj
 0001:00087db0       ?OnScan1@CRegisterDlg@@IAEXXZ 00488db0 f   RegisterDlg.obj
 0001:00087dd0       ?OnScan2@CRegisterDlg@@IAEXXZ 00488dd0 f   RegisterDlg.obj
 0001:00087df0       ?OnScanPassport@CRegisterDlg@@IAEXXZ 00488df0 f   RegisterDlg.obj
 0001:00087e10       ?OnScan2Back@CRegisterDlg@@IAEXXZ 00488e10 f   RegisterDlg.obj
 0001:00088000       ?OnRead2@CRegisterDlg@@IAEXXZ 00489000 f   RegisterDlg.obj
 0001:00088020       ?OnScanOther@CRegisterDlg@@IAEXXZ 00489020 f   RegisterDlg.obj
 0001:00088040       ?ScanReco@CRegisterDlg@@AAEXI@Z 00489040 f   RegisterDlg.obj
 0001:00088430       ?GetEnableAccount12@CNetBarConfig@@QAE?BHXZ 00489430 f i RegisterDlg.obj
 0001:00088450       ?SetNetId@CNetBarUser@@QAEXV?$CStringT@_WV?$StrTraitMFC_DLL@_WV?$ChTraitsCRT@_W@ATL@@@@@ATL@@@Z 00489450 f i RegisterDlg.obj
 0001:000884b0       ?SetUserInfo@CRegisterDlg@@QAEXAAVCNetBarUser@@@Z 004894b0 f   RegisterDlg.obj
 0001:00088780       ??4CNetBarUser@@QAEAAV0@ABV0@@Z 00489780 f i RegisterDlg.obj
 0001:000888d0       ?OnRealName@CRegisterDlg@@IAEJIJ@Z 004898d0 f   RegisterDlg.obj
 0001:00088920       ?SelectIDType@CRegisterDlg@@AAEXXZ 00489920 f   RegisterDlg.obj
 0001:000889a0       ?OnEnSetfocusEditIdcardsno@CRegisterDlg@@IAEXXZ 004899a0 f   RegisterDlg.obj
 0001:00088a80       ?SaveRegisterInfo@CRegisterDlg@@AAEXXZ 00489a80 f   RegisterDlg.obj
 0001:00088f40       ?GetRegisterInfo@CRegisterDlg@@AAEXXZ 00489f40 f   RegisterDlg.obj
 0001:000890b0       ?CheckMoney@CRegisterDlg@@AAEHXZ 0048a0b0 f   RegisterDlg.obj
 0001:00089330       ?SetRegisterInfo@CRegisterDlg@@AAEXXZ 0048a330 f   RegisterDlg.obj
 0001:000896f0       ?SetBeginTime@CRegisterMethod@NS_SERVLET@@QAEXV?$CStringT@_WV?$StrTraitMFC_DLL@_WV?$ChTraitsCRT@_W@ATL@@@@@ATL@@@Z 0048a6f0 f i RegisterDlg.obj
 0001:00089780       ?SetTimePass@CRegisterMethod@NS_SERVLET@@QAEXI@Z 0048a780 f i RegisterDlg.obj
 0001:00089780       ?SetTimePass@CBundleTimeMethod@NS_SERVLET@@QAEXI@Z 0048a780 f i BundleTimeMethod.obj
 0001:000897c0       ?ShowRegisterResult@CRegisterDlg@@AAEXH@Z 0048a7c0 f   RegisterDlg.obj
 0001:000899c0       ?ShowRegisterBundleTimeResult@CRegisterDlg@@AAEXXZ 0048a9c0 f   RegisterDlg.obj
 0001:00089ba0       ?InitData@CRegisterDlg@@AAEXXZ 0048aba0 f   RegisterDlg.obj
 0001:00089ce0       ?AutoUploadImage@CRegisterDlg@@AAEXXZ 0048ace0 f   RegisterDlg.obj
 0001:00089dd0       ?SetUserName@CNetBarUser@@QAEXV?$CStringT@_WV?$StrTraitMFC_DLL@_WV?$ChTraitsCRT@_W@ATL@@@@@ATL@@@Z 0048add0 f i RegisterDlg.obj
 0001:00089e30       ?SetCertificateID@CNetBarUser@@QAEXV?$CStringT@_WV?$StrTraitMFC_DLL@_WV?$ChTraitsCRT@_W@ATL@@@@@ATL@@@Z 0048ae30 f i RegisterDlg.obj
 0001:00089e90       ?SetUpdateState@CComputerInfo@@QAEXW4EUPDATESTATE@1@@Z 0048ae90 f i ColorGridCtrl.obj
 0001:00089e90       ?SetMemberId@COperationInfo@@QAEXI@Z 0048ae90 f i AllCheckOut.obj
 0001:00089e90       ?SetPoint@CCreditInfoDB@NS_DAL@@QAEXI@Z 0048ae90 f i IBADAL-USER.obj
 0001:00089e90       ?SetCertificateType@CNetBarUser@@QAEXI@Z 0048ae90 f i RegisterDlg.obj
 0001:00089eb0       ?OnBnClickedCheckTempmember@CRegisterDlg@@IAEXXZ 0048aeb0 f   RegisterDlg.obj
 0001:00089f60       ?OnBnClickedButtonReprint@CRegisterDlg@@IAEXXZ 0048af60 f   RegisterDlg.obj
 0001:00089f90       ?OnBnClickedCheckPrint@CRegisterDlg@@IAEXXZ 0048af90 f   RegisterDlg.obj
 0001:00089ff0       ?OnBnClickedButtonQuery@CRegisterDlg@@IAEXXZ 0048aff0 f   RegisterDlg.obj
 0001:0008a290       ?SetUserName@CDlgMemberInfo@@QAEXABV?$CStringT@_WV?$StrTraitMFC_DLL@_WV?$ChTraitsCRT@_W@ATL@@@@@ATL@@@Z 0048b290 f i RegisterDlg.obj
 0001:0008a2b0       ?SetPersonalID@CDlgMemberInfo@@QAEXABV?$CStringT@_WV?$StrTraitMFC_DLL@_WV?$ChTraitsCRT@_W@ATL@@@@@ATL@@@Z 0048b2b0 f i RegisterDlg.obj
 0001:0008a2d0       ?GetSex@CDlgMemberInfo@@QBE?AV?$CStringT@_WV?$StrTraitMFC_DLL@_WV?$ChTraitsCRT@_W@ATL@@@@@ATL@@XZ 0048b2d0 f i RegisterDlg.obj
 0001:0008a310       ?GetUserClass@CDlgMemberInfo@@QBE?AV?$CStringT@_WV?$StrTraitMFC_DLL@_WV?$ChTraitsCRT@_W@ATL@@@@@ATL@@XZ 0048b310 f i RegisterDlg.obj
 0001:0008a350       ?GetIDType@CDlgMemberInfo@@QBE?AV?$CStringT@_WV?$StrTraitMFC_DLL@_WV?$ChTraitsCRT@_W@ATL@@@@@ATL@@XZ 0048b350 f i RegisterDlg.obj
 0001:0008a390       ?OnCbnSelchangeComboBtsel@CRegisterDlg@@IAEXXZ 0048b390 f   RegisterDlg.obj
 0001:0008a6b0       ?EnableUserInfoControls@CRegisterDlg@@AAEXH@Z 0048b6b0 f   RegisterDlg.obj
 0001:0008a750       ?OnTimer@CRegisterDlg@@IAEXI@Z 0048b750 f   RegisterDlg.obj
 0001:0008a900       ?CheckRealNameData@CRegisterDlg@@AAEHXZ 0048b900 f   RegisterDlg.obj
 0001:0008ab80       ?OnEnChangeEditPersonalid@CRegisterDlg@@IAEXXZ 0048bb80 f   RegisterDlg.obj
 0001:0008abd0       ?MakeTmpMemberInfo@CRegisterDlg@@AAEXXZ 0048bbd0 f   RegisterDlg.obj
 0001:0008ad70       ?OnCbnSelchangeComboUserclass@CRegisterDlg@@IAEXXZ 0048bd70 f   RegisterDlg.obj
 0001:0008ad90       ?OnCbnSelchangeComboTempuserclass@CRegisterDlg@@IAEXXZ 0048bd90 f   RegisterDlg.obj
 0001:0008ae80       ?OnBnClickedRadioTempuser@CRegisterDlg@@IAEXXZ 0048be80 f   RegisterDlg.obj
 0001:0008aee0       ?OnBnClickedRadioMember@CRegisterDlg@@IAEXXZ 0048bee0 f   RegisterDlg.obj
 0001:0008af40       ?InitBundleTimeComboBox@CRegisterDlg@@AAEXXZ 0048bf40 f   RegisterDlg.obj
 0001:0008b2c0       ?InitUserClassComboBox@CRegisterDlg@@AAEXXZ 0048c2c0 f   RegisterDlg.obj
 0001:0008b700       ?InitIdTypeComboBox@CRegisterDlg@@AAEXXZ 0048c700 f   RegisterDlg.obj
 0001:0008b7f0       ?InitComputerComboBox@CRegisterDlg@@AAEXXZ 0048c7f0 f   RegisterDlg.obj
 0001:0008bc00       ?DeleteString@CComboBox@@QAEHI@Z 0048cc00 f i RegisterDlg.obj
 0001:0008bc30       ?AutoCheckIn@CRegisterDlg@@AAEXXZ 0048cc30 f   RegisterDlg.obj
 0001:0008c090       ?OnBnClickedBtnCustomBoundletime@CRegisterDlg@@QAEXXZ 0048d090 f   RegisterDlg.obj
 0001:0008c1a0       ??0tagUserInfo@@QAE@XZ     0048d1a0 f i RegisterDlg.obj
 0001:0008c230       ?RegisterCenterUser@CRegisterDlg@@IAEXXZ 0048d230 f   RegisterDlg.obj
 0001:0008c970       ?ResetNetworkBrokenControl@CRegisterDlg@@AAEXXZ 0048d970 f   RegisterDlg.obj
 0001:0008caf0       ?OnBnClickedBtnInputNumber@CRegisterDlg@@QAEXXZ 0048daf0 f   RegisterDlg.obj
 0001:0008cc00       ?SetPhoneNumberOpen@CRegisterDlg@@QAEXXZ 0048dc00 f   RegisterDlg.obj
 0001:0008cc20       ?OnBnClickedBtnCapphtoto@CRegisterDlg@@QAEXXZ 0048dc20 f   RegisterDlg.obj
 0001:0008cd90       ?OnBnClickedBtnRnReg@CRegisterDlg@@QAEXXZ 0048dd90 f   RegisterDlg.obj
 0001:0008cdd0       ?OnCanClose@CRegisterDlg@@QAEJIJ@Z 0048ddd0 f   RegisterDlg.obj
 0001:0008d000       ?SendRegDataToProxy@CRegisterDlg@@AAEXXZ 0048e000 f   RegisterDlg.obj
 0001:0008d830       ?OnBnClickedButtonQueryTel@CRegisterDlg@@QAEXXZ 0048e830 f   RegisterDlg.obj
 0001:0008dab0       ?OnBnClickedBtnPhoto@CRegisterDlg@@QAEXXZ 0048eab0 f   RegisterDlg.obj
 0001:0008db50       ?OnCancel@CRegisterDlg@@MAEXXZ 0048eb50 f   RegisterDlg.obj
 0001:0008dcc0       ??0CIBAScanReco@@QAE@XZ    0048ecc0 f   ScanReco.obj
 0001:0008dd50       ??1CIBAScanReco@@QAE@XZ    0048ed50 f   ScanReco.obj
 0001:0008de10       ?Open@CIBAScanReco@@QAEHXZ 0048ee10 f   ScanReco.obj
 0001:0008de30       ?Close@CIBAScanReco@@QAEHXZ 0048ee30 f   ScanReco.obj
 0001:0008de70       ?ScanImage@CIBAScanReco@@QAEHHPB_W@Z 0048ee70 f   ScanReco.obj
 0001:0008df70       ?Recognise@CIBAScanReco@@QAEHHPB_W@Z 0048ef70 f   ScanReco.obj
 0001:0008e3b0       ?ReadCard@CIBAScanReco@@QAEHPB_W@Z 0048f3b0 f   ScanReco.obj
 0001:0008e800       ?ClearData@CIBAScanReco@@AAEXXZ 0048f800 f   ScanReco.obj
 0001:0008e880       ??0CSeat@@QAE@PB_W@Z       0048f880 f   Seat.obj
 0001:0008e980       ??_ECSeat@@UAEPAXI@Z       0048f980 f i Seat.obj
 0001:0008e980       ??_GCSeat@@UAEPAXI@Z       0048f980 f i Seat.obj
 0001:0008e9b0       ??1CSeat@@UAE@XZ           0048f9b0 f   Seat.obj
 0001:0008e9f0       ?GetComputerInfo@CSeat@@QAEAAVCComputerInfo@@XZ 0048f9f0 f   Seat.obj
 0001:0008eaa0       ?GetRect@CSeat@@QAEXAAVCRect@@@Z 0048faa0 f   Seat.obj
 0001:0008eb90       ?NormalizeRect@CRect@@QAEXXZ 0048fb90 f i Seat.obj
 0001:0008ec00       ?GetPosition@CSeat@@QBE?AVCPoint@@XZ 0048fc00 f i Seat.obj
 0001:0008ec00       ?GetCenterPos@CSeat2@@QBE?AVCPoint@@XZ 0048fc00 f i Seat2.obj
 0001:0008ec30       ?DrawRect@CSeat@@QAEXPAVCDC@@NNH@Z 0048fc30 f   Seat.obj
 0001:0008edc0       ??0CPen@@QAE@XZ            0048fdc0 f i Seat.obj
 0001:0008ede0       ??_ECPen@@UAEPAXI@Z        0048fde0 f i Seat.obj
 0001:0008ede0       ??_GCPen@@UAEPAXI@Z        0048fde0 f i Seat.obj
 0001:0008ee10       ??1CPen@@UAE@XZ            0048fe10 f i Seat.obj
 0001:0008ee30       ?CreatePen@CPen@@QAEHHHK@Z 0048fe30 f i Seat.obj
 0001:0008ee60       ?Rectangle@CDC@@QAEHPBUtagRECT@@@Z 0048fe60 f i Seat.obj
 0001:0008eea0       ?DrawRect@CSeat@@QAEXPAVCDC@@VCPoint@@NNH@Z 0048fea0 f   Seat.obj
 0001:0008f070       ?InitImage@CSeat@@AAEHPB_W@Z 00490070 f   Seat.obj
 0001:0008f200       ?DrawBmp@CSeat@@QAEXPAVCDC@@NN@Z 00490200 f   Seat.obj
 0001:0008f4a0       ?CreateBitmap@CBitmap@@QAEHHHIIPBX@Z 004904a0 f i Seat.obj
 0001:0008f4d0       ?Draw@CSeat@@QAEXPAVCDC@@NN@Z 004904d0 f   Seat.obj
 0001:0008f530       ?UpdateComputerStatus@CSeat@@AAEHXZ 00490530 f   Seat.obj
 0001:0008f770       ?UpdateComputerStatus2@CSeat@@AAEHXZ 00490770 f   Seat.obj
 0001:0008f9a0       ?DrawTermID@CSeat@@AAEXPAVCDC@@HH@Z 004909a0 f   Seat.obj
 0001:0008fad0       ??BCMenu@@QBEPAUHMENU__@@XZ 00490ad0 f i MainFrm.obj
 0001:0008fad0       ??BCDC@@QBEPAUHDC__@@XZ    00490ad0 f i SShowPic2.obj
 0001:0008fad0       ??BCGdiObject@@QBEPAXXZ    00490ad0 f i Seat.obj
 0001:0008fad0       ?GetSafeHdc@CDC@@QBEPAUHDC__@@XZ 00490ad0 f i BCGPToolbarCtrlCommon.obj
 0001:0008fad0       ??BCRgn@@QBEPAUHRGN__@@XZ  00490ad0 f i IBALoginDlg.obj
 0001:0008fad0       ?GetSafeHandle@CGdiObject@@QBEPAXXZ 00490ad0 f i AllCheckOut.obj
 0001:0008fb00       ?InvalidateIfStatusChange@CSeat@@QAEHPAUHWND__@@@Z 00490b00 f   Seat.obj
 0001:0008fb60       ??0CSeat2@@QAE@W4Seat2Type@NS_IBACommDef@@@Z 00490b60 f   Seat2.obj
 0001:0008fc70       ??_GCSeat2@@UAEPAXI@Z      00490c70 f i Seat2.obj
 0001:0008fc70       ??_ECSeat2@@UAEPAXI@Z      00490c70 f i Seat2.obj
 0001:0008fca0       ??1CSeat2@@UAE@XZ          00490ca0 f   Seat2.obj
 0001:0008fd40       ?GetRect@CSeat2@@QAEXAAVCRect@@@Z 00490d40 f   Seat2.obj
 0001:0008fe10       ?DrawRect@CSeat2@@QAEXPAVCDC@@NN@Z 00490e10 f   Seat2.obj
 0001:0008ff90       ?DrawRect@CSeat2@@QAEXPAVCDC@@VCPoint@@NN@Z 00490f90 f   Seat2.obj
 0001:00090150       ?InitImage@CSeat2@@AAEHXZ  00491150 f   Seat2.obj
 0001:00090460       ?DrawBmp@CSeat2@@QAEXPAVCDC@@NN@Z 00491460 f   Seat2.obj
 0001:000906e0       ?Draw@CSeat2@@QAEXPAVCDC@@NN@Z 004916e0 f   Seat2.obj
 0001:00090740       ?OnContextMenu@CSeatStatusBar@@IAEXPAVCWnd@@VCPoint@@@Z 00491740 f   SeatStatusBar.obj
 0001:00090740       ?OnLButtonDown@CBCGPLinkStatic@@QAEXIVCPoint@@@Z 00491740 f   BCGPLinkStatic.obj
 0001:00090740       ?DrawSeatName@CSeat2@@AAEXPAVCDC@@HH@Z 00491740 f   Seat2.obj
 0001:00090750       ?GetPosition@CSeat2@@QBE?AVCPoint@@XZ 00491750 f   Seat2.obj
 0001:00090780       ?SetCenterPos@CSeat2@@QAEXVCPoint@@@Z 00491780 f   Seat2.obj
 0001:000907d0       ?SetPosition@CSeat2@@QAEXVCPoint@@@Z 004917d0 f   Seat2.obj
 0001:00090820       ?CreateObject@CSeatLayoutView@@SGPAVCObject@@XZ 00491820 f   SeatLayoutView.obj
 0001:00090890       ?GetThisClass@CSeatLayoutView@@SGPAUCRuntimeClass@@XZ 00491890 f   SeatLayoutView.obj
 0001:000908a0       ?GetRuntimeClass@CSeatLayoutView@@UBEPAUCRuntimeClass@@XZ 004918a0 f   SeatLayoutView.obj
 0001:000908b0       ??0CSeatLayoutView@@IAE@XZ 004918b0 f   SeatLayoutView.obj
 0001:00090ac0       ??0CGdiPlusBitmap@@QAE@XZ  00491ac0 f i SeatLayoutView.obj
 0001:00090af0       ??_ECGdiPlusBitmap@@UAEPAXI@Z 00491af0 f i SeatLayoutView.obj
 0001:00090af0       ??_GCGdiPlusBitmap@@UAEPAXI@Z 00491af0 f i SeatLayoutView.obj
 0001:00090b20       ??1CGdiPlusBitmap@@UAE@XZ  00491b20 f i SeatLayoutView.obj
 0001:00090b40       ?Empty@CGdiPlusBitmap@@QAEXXZ 00491b40 f i SeatLayoutView.obj
 0001:00090b90       ??_GCSeatLayoutView@@MAEPAXI@Z 00491b90 f i SeatLayoutView.obj
 0001:00090b90       ??_ECSeatLayoutView@@MAEPAXI@Z 00491b90 f i SeatLayoutView.obj
 0001:00090bc0       ??1CSeatLayoutView@@MAE@XZ 00491bc0 f   SeatLayoutView.obj
 0001:00090cc0       ?GetMessageMap@CSeatLayoutView@@MBEPBUAFX_MSGMAP@@XZ 00491cc0 f   SeatLayoutView.obj
 0001:00090cd0       ?OnInitialUpdate@CSeatLayoutView@@UAEXXZ 00491cd0 f   SeatLayoutView.obj
 0001:00090d70       ?GetWidth@CGdiPlusBitmap@@QAEIXZ 00491d70 f i SeatLayoutView.obj
 0001:00090d90       ?GetHeight@CGdiPlusBitmap@@QAEIXZ 00491d90 f i SeatLayoutView.obj
 0001:00090db0       ?ToScrollPoint@CSeatLayoutView@@AAEHAAVCPoint@@@Z 00491db0 f   SeatLayoutView.obj
 0001:00090e90       ?OnDraw@CSeatLayoutView@@MAEXPAVCDC@@@Z 00491e90 f   SeatLayoutView.obj
 0001:00091250       ?StretchBlt@CDC@@QAEHHHHHPAV1@HHHHK@Z 00492250 f i SeatLayoutView.obj
 0001:000912a0       ?IsLoadSuccess@CGdiPlusBitmap@@QAE_NXZ 004922a0 f i SeatLayoutView.obj
 0001:000912c0       ?GetMaxRight@CSeatLayoutView@@SAHXZ 004922c0 f i SeatLayoutView.obj
 0001:000912d0       ?GetMaxBottom@CSeatLayoutView@@SAHXZ 004922d0 f i SeatLayoutView.obj
 0001:000912e0       ?LoadSeatBitmap@CSeatLayoutView@@AAEXPAVCGdiPlusBitmap@@@Z 004922e0 f   SeatLayoutView.obj
 0001:00091430       ?GetSeatBmpPath@CIBAConfig@@QBE?AV?$CStringT@_WV?$StrTraitMFC_DLL@_WV?$ChTraitsCRT@_W@ATL@@@@@ATL@@XZ 00492430 f i SeatLayoutView.obj
 0001:00091470       ?Load@CGdiPlusBitmap@@QAE_NPB_W@Z 00492470 f i SeatLayoutView.obj
 0001:000914c0       ?OnContextMenu@CSeatLayoutView@@IAEXPAVCWnd@@VCPoint@@@Z 004924c0 f   SeatLayoutView.obj
 0001:00091960       ??HCPoint@@QBE?AV0@UtagPOINT@@@Z 00492960 f i SeatLayoutView.obj
 0001:00091990       ?ScreenToClient@CWnd@@QBEXPAUtagPOINT@@@Z 00492990 f i SeatLayoutView.obj
 0001:000919b0       ?SetViewSize@CSeatLayoutView@@AAEXHH@Z 004929b0 f   SeatLayoutView.obj
 0001:00091ab0       ?DrawSeat@CSeatLayoutView@@AAEXPAVCDC@@NN@Z 00492ab0 f   SeatLayoutView.obj
 0001:00091b50       ?OnLButtonDown@CSeatLayoutView@@IAEXIVCPoint@@@Z 00492b50 f   SeatLayoutView.obj
 0001:00091cf0       ?OnLButtonUp@CSeatLayoutView@@IAEXIVCPoint@@@Z 00492cf0 f   SeatLayoutView.obj
 0001:00092c60       ??GCTime@ATL@@QBE?AVCTimeSpan@1@V01@@Z 00493c60 f i SeatLayoutView.obj
 0001:00092c90       ?GetTempPasswordType@CIBAConfig@@QBEIXZ 00493c90 f i IBABusinessSet.obj
 0001:00092c90       ?GetAvailavleBalance@CComputerInfo@@QBEJXZ 00493c90 f i SeatLayoutView.obj
 0001:00092cb0       ?SetExistSeatList@CDlgAddTerm@@QAEXPAVCSeatList@@@Z 00493cb0 f i SeatLayoutView.obj
 0001:00092cd0       ?GetTerminalID@CDlgAddTerm@@QBE?AV?$CStringT@_WV?$StrTraitMFC_DLL@_WV?$ChTraitsCRT@_W@ATL@@@@@ATL@@XZ 00493cd0 f i SeatLayoutView.obj
 0001:00092d10       ?GetTerminalIP@CDlgAddTerm@@QBE?AV?$CStringT@_WV?$StrTraitMFC_DLL@_WV?$ChTraitsCRT@_W@ATL@@@@@ATL@@XZ 00493d10 f i SeatLayoutView.obj
 0001:00092d50       ?ClientToScreen@CWnd@@QBEXPAUtagPOINT@@@Z 00493d50 f i SeatLayoutView.obj
 0001:00092d70       ?OnMouseMove@CSeatLayoutView@@IAEXIVCPoint@@@Z 00493d70 f   SeatLayoutView.obj
 0001:00093690       ??8CPoint@@QBEHUtagPOINT@@@Z 00494690 f i SeatLayoutView.obj
 0001:000936d0       ??GCPoint@@QBE?AVCSize@@UtagPOINT@@@Z 004946d0 f i SeatLayoutView.obj
 0001:00093700       ?OnSeatAddseat@CSeatLayoutView@@IAEXXZ 00494700 f   SeatLayoutView.obj
 0001:00093790       ?OnUpdateSeatAddseat@CSeatLayoutView@@IAEXPAVCCmdUI@@@Z 00494790 f   SeatLayoutView.obj
 0001:000937e0       ?OnSeatLoadseat@CSeatLayoutView@@IAEXXZ 004947e0 f   SeatLayoutView.obj
 0001:00093810       ?Loadseat@CSeatLayoutView@@QAEXXZ 00494810 f   SeatLayoutView.obj
 0001:00093940       ?SaveSeat@CSeatLayoutView@@QAEXXZ 00494940 f   SeatLayoutView.obj
 0001:00093980       ?OnUpdateSeatLoadseat@CSeatLayoutView@@IAEXPAVCCmdUI@@@Z 00494980 f   SeatLayoutView.obj
 0001:000939d0       ?OnMenuScrollzoom@CSeatLayoutView@@IAEXXZ 004949d0 f   SeatLayoutView.obj
 0001:00093a10       ?OnUpdateMenuScrollzoom@CSeatLayoutView@@IAEXPAVCCmdUI@@@Z 00494a10 f   SeatLayoutView.obj
 0001:00093a40       ?OnMenuFullzoom@CSeatLayoutView@@IAEXXZ 00494a40 f   SeatLayoutView.obj
 0001:00093a80       ?OnUpdateMenuFullzoom@CSeatLayoutView@@IAEXPAVCCmdUI@@@Z 00494a80 f   SeatLayoutView.obj
 0001:00093ab0       ?AddSeat@CSeatLayoutView@@AAEXVCPoint@@V?$CStringT@_WV?$StrTraitMFC_DLL@_WV?$ChTraitsCRT@_W@ATL@@@@@ATL@@1HH_N@Z 00494ab0 f   SeatLayoutView.obj
 0001:00093c50       ?SetPosition@CSeat@@QAEXVCPoint@@@Z 00494c50 f i SeatLayoutView.obj
 0001:00093c70       ?SetTerminalID@CSeat@@QAEXV?$CStringT@_WV?$StrTraitMFC_DLL@_WV?$ChTraitsCRT@_W@ATL@@@@@ATL@@@Z 00494c70 f i SeatLayoutView.obj
 0001:00093cd0       ?SetTerminalIP@CSeat@@QAEXV?$CStringT@_WV?$StrTraitMFC_DLL@_WV?$ChTraitsCRT@_W@ATL@@@@@ATL@@@Z 00494cd0 f i SeatLayoutView.obj
 0001:00093d30       ?AddSeat2@CSeatLayoutView@@QAEXW4Seat2Type@NS_IBACommDef@@@Z 00494d30 f   SeatLayoutView.obj
 0001:00093ea0       ?PreTranslateMessage@CSeatLayoutView@@MAEHPAUtagMSG@@@Z 00494ea0 f   SeatLayoutView.obj
 0001:00093ed0       ?OnSeatDel@CSeatLayoutView@@IAEXXZ 00494ed0 f   SeatLayoutView.obj
 0001:00094020       ?OnUpdateSeatDel@CSeatLayoutView@@IAEXPAVCCmdUI@@@Z 00495020 f   SeatLayoutView.obj
 0001:00094070       ?OnClockwise@CSeatLayoutView@@IAEXXZ 00495070 f   SeatLayoutView.obj
 0001:00094110       ?OnUpdateClockwise@CSeatLayoutView@@IAEXPAVCCmdUI@@@Z 00495110 f   SeatLayoutView.obj
 0001:00094140       ?OnUpdateSeatAddAll@CSeatLayoutView@@IAEXPAVCCmdUI@@@Z 00495140 f   SeatLayoutView.obj
 0001:00094190       ?OnUpdateSeatDelAll@CSeatLayoutView@@IAEXPAVCCmdUI@@@Z 00495190 f   SeatLayoutView.obj
 0001:000941d0       ?OnUpdateSeatComputerMenu@CSeatLayoutView@@IAEXPAVCCmdUI@@@Z 004951d0 f   SeatLayoutView.obj
 0001:00094220       ?OnClose@CSeatLayoutView@@IAEXXZ 00495220 f   SeatLayoutView.obj
 0001:00094270       ?OnKillFocus@CSeatLayoutView@@IAEXPAVCWnd@@@Z 00495270 f   SeatLayoutView.obj
 0001:000942a0       ?OnSeatComputerMenu@CSeatLayoutView@@IAEXXZ 004952a0 f   SeatLayoutView.obj
 0001:000942c0       ?OnSeatDelAll@CSeatLayoutView@@IAEXXZ 004952c0 f   SeatLayoutView.obj
 0001:00094390       ?OnSeatAddAll@CSeatLayoutView@@IAEXXZ 00495390 f   SeatLayoutView.obj
 0001:00094450       ?AutoAddAllSeatAfterSync@CSeatLayoutView@@QAEXXZ 00495450 f   SeatLayoutView.obj
 0001:000948d0       ??0OperationInfo@CWxMiddlewareImpl@@QAE@XZ 004958d0 f i WxMiddlewareImpl.obj
 0001:000948d0       ??0CLocalStatusInfo@NS_DAL@@QAE@XZ 004958d0 f i Cashier.obj
 0001:000948d0       ??0TermInfo@CSeatLayoutView@@QAE@XZ 004958d0 f i SeatLayoutView.obj
 0001:00094900       ??4CComputerInfo@@QAEAAV0@ABV0@@Z 00495900 f i SeatLayoutView.obj
 0001:00094b60       ?OnTimer@CSeatLayoutView@@QAEXI@Z 00495b60 f   SeatLayoutView.obj
 0001:00094ba0       ?OnEraseBkgnd@CSeatLayoutView@@QAEHPAVCDC@@@Z 00495ba0 f   SeatLayoutView.obj
 0001:00094bc0       ?OnUpdateSeat@CSeatLayoutView@@QAEJIJ@Z 00495bc0 f   SeatLayoutView.obj
 0001:00094c40       ?OnAddCashier@CSeatLayoutView@@QAEXXZ 00495c40 f   SeatLayoutView.obj
 0001:00094d00       ?OnAddToilet@CSeatLayoutView@@QAEXXZ 00495d00 f   SeatLayoutView.obj
 0001:00094dc0       ?OnAddRefrigraetor@CSeatLayoutView@@QAEXXZ 00495dc0 f   SeatLayoutView.obj
 0001:00094e80       ?OnAddEntrance@CSeatLayoutView@@QAEXXZ 00495e80 f   SeatLayoutView.obj
 0001:00094f40       ?OnEnKillfocusEditCount@CJXCStoreDlg@@IAEXXZ 00495f40 f   JXCStoreDlg.obj
 0001:00094f40       ?OnSeatRefresh@CSeatLayoutView@@IAEXXZ 00495f40 f   SeatLayoutView.obj
 0001:00094f40       ?OnMyrefresh@CSeatLayoutView@@QAEXXZ 00495f40 f   SeatLayoutView.obj
 0001:00094f40       ?OnEnKillfocusEditCount2@CJXCStoreDlg@@IAEXXZ 00495f40 f   JXCStoreDlg.obj
 0001:00094f40       ?OnEnKillfocusEditPassword@CJXCSellDlg@@IAEXXZ 00495f40 f   JXCSellDlg.obj
 0001:00094f60       ?OnUpdateMyRefresh@CSeatLayoutView@@QAEXPAVCCmdUI@@@Z 00495f60 f   SeatLayoutView.obj
 0001:00094fa0       ?OnUpdateNewuser@CSeatLayoutView@@QAEXPAVCCmdUI@@@Z 00495fa0 f   SeatLayoutView.obj
 0001:00094ff0       ?OnPaint@CSeatLayoutView@@QAEXXZ 00495ff0 f   SeatLayoutView.obj
 0001:00095010       ?SetMaxRightCmp@CSeatLayoutView@@SAXH@Z 00496010 f   SeatLayoutView.obj
 0001:00095030       ?SetMaxRight@CSeatLayoutView@@SAXH@Z 00496030 f i SeatLayoutView.obj
 0001:00095040       ?SetMaxBottomCmp@CSeatLayoutView@@SAXH@Z 00496040 f   SeatLayoutView.obj
 0001:00095060       ?SetMaxBottom@CSeatLayoutView@@SAXH@Z 00496060 f i SeatLayoutView.obj
 0001:00095070       ??0?$vector@UTermInfo@CSeatLayoutView@@V?$allocator@UTermInfo@CSeatLayoutView@@@std@@@std@@QAE@XZ 00496070 f i SeatLayoutView.obj
 0001:000950a0       ??1?$vector@UTermInfo@CSeatLayoutView@@V?$allocator@UTermInfo@CSeatLayoutView@@@std@@@std@@QAE@XZ 004960a0 f i SeatLayoutView.obj
 0001:000950c0       ?push_back@?$vector@UTermInfo@CSeatLayoutView@@V?$allocator@UTermInfo@CSeatLayoutView@@@std@@@std@@QAEXABUTermInfo@CSeatLayoutView@@@Z 004960c0 f i SeatLayoutView.obj
 0001:00095130       ??Citerator@?$vector@UTermInfo@CSeatLayoutView@@V?$allocator@UTermInfo@CSeatLayoutView@@@std@@@std@@QBEPAUTermInfo@CSeatLayoutView@@XZ 00496130 f i SeatLayoutView.obj
 0001:00095130       ??Citerator@?$vector@UOperationInfo@CWxMiddlewareImpl@@V?$allocator@UOperationInfo@CWxMiddlewareImpl@@@std@@@std@@QBEPAUOperationInfo@CWxMiddlewareImpl@@XZ 00496130 f i WxMiddlewareImpl.obj
 0001:00095150       ??Eiterator@?$vector@UTermInfo@CSeatLayoutView@@V?$allocator@UTermInfo@CSeatLayoutView@@@std@@@std@@QAE?AV012@H@Z 00496150 f i SeatLayoutView.obj
 0001:00095180       ?capacity@?$vector@UTermInfo@CSeatLayoutView@@V?$allocator@UTermInfo@CSeatLayoutView@@@std@@@std@@QBEIXZ 00496180 f i SeatLayoutView.obj
 0001:000951c0       ?size@?$vector@UTermInfo@CSeatLayoutView@@V?$allocator@UTermInfo@CSeatLayoutView@@@std@@@std@@QBEIXZ 004961c0 f i SeatLayoutView.obj
 0001:00095200       ?insert@?$vector@UTermInfo@CSeatLayoutView@@V?$allocator@UTermInfo@CSeatLayoutView@@@std@@@std@@QAE?AViterator@12@V312@ABUTermInfo@CSeatLayoutView@@@Z 00496200 f i SeatLayoutView.obj
 0001:00095280       ?_Buy@?$vector@UTermInfo@CSeatLayoutView@@V?$allocator@UTermInfo@CSeatLayoutView@@@std@@@std@@IAE_NI@Z 00496280 f i SeatLayoutView.obj
 0001:00095300       ?_Tidy@?$vector@UTermInfo@CSeatLayoutView@@V?$allocator@UTermInfo@CSeatLayoutView@@@std@@@std@@IAEXXZ 00496300 f i SeatLayoutView.obj
 0001:00095370       ?_Ufill@?$vector@UTermInfo@CSeatLayoutView@@V?$allocator@UTermInfo@CSeatLayoutView@@@std@@@std@@IAEPAUTermInfo@CSeatLayoutView@@PAU34@IABU34@@Z 00496370 f i SeatLayoutView.obj
 0001:000953a0       ??Eiterator@?$vector@UTermInfo@CSeatLayoutView@@V?$allocator@UTermInfo@CSeatLayoutView@@@std@@@std@@QAEAAV012@XZ 004963a0 f i SeatLayoutView.obj
 0001:000953c0       ?max_size@?$vector@UTermInfo@CSeatLayoutView@@V?$allocator@UTermInfo@CSeatLayoutView@@@std@@@std@@QBEIXZ 004963c0 f i SeatLayoutView.obj
 0001:000953e0       ?_Destroy@?$vector@UTermInfo@CSeatLayoutView@@V?$allocator@UTermInfo@CSeatLayoutView@@@std@@@std@@IAEXPAUTermInfo@CSeatLayoutView@@0@Z 004963e0 f i SeatLayoutView.obj
 0001:00095410       ?_Insert_n@?$vector@UTermInfo@CSeatLayoutView@@V?$allocator@UTermInfo@CSeatLayoutView@@@std@@@std@@IAEXViterator@12@IABUTermInfo@CSeatLayoutView@@@Z 00496410 f i SeatLayoutView.obj
 0001:00095740       ?_Xlen@?$vector@UTermInfo@CSeatLayoutView@@V?$allocator@UTermInfo@CSeatLayoutView@@@std@@@std@@IBEXXZ 00496740 f i SeatLayoutView.obj
 0001:000957a0       ?allocate@?$allocator@UTermInfo@CSeatLayoutView@@@std@@QAEPAUTermInfo@CSeatLayoutView@@I@Z 004967a0 f i SeatLayoutView.obj
 0001:000957c0       ??Hiterator@?$vector@UTermInfo@CSeatLayoutView@@V?$allocator@UTermInfo@CSeatLayoutView@@@std@@@std@@QBE?AV012@H@Z 004967c0 f i SeatLayoutView.obj
 0001:000957f0       ??Giterator@?$vector@UTermInfo@CSeatLayoutView@@V?$allocator@UTermInfo@CSeatLayoutView@@@std@@@std@@QBEHABVconst_iterator@12@@Z 004967f0 f i SeatLayoutView.obj
 0001:00095820       ??0TermInfo@CSeatLayoutView@@QAE@ABU01@@Z 00496820 f i SeatLayoutView.obj
 0001:00095880       ??Yiterator@?$vector@UTermInfo@CSeatLayoutView@@V?$allocator@UTermInfo@CSeatLayoutView@@@std@@@std@@QAEAAV012@H@Z 00496880 f i SeatLayoutView.obj
 0001:000958a0       ??Gconst_iterator@?$vector@UTermInfo@CSeatLayoutView@@V?$allocator@UTermInfo@CSeatLayoutView@@@std@@@std@@QBEHABV012@@Z 004968a0 f i SeatLayoutView.obj
 0001:000958c0       ??$sort@Viterator@?$vector@UTermInfo@CSeatLayoutView@@V?$allocator@UTermInfo@CSeatLayoutView@@@std@@@std@@@std@@YAXViterator@?$vector@UTermInfo@CSeatLayoutView@@V?$allocator@UTermInfo@CSeatLayoutView@@@std@@@0@0@Z 004968c0 f i SeatLayoutView.obj
 0001:000958f0       ??$_Uninitialized_fill_n@PAUTermInfo@CSeatLayoutView@@IU12@V?$allocator@UTermInfo@CSeatLayoutView@@@std@@@std@@YAXPAUTermInfo@CSeatLayoutView@@IABU12@AAV?$allocator@UTermInfo@CSeatLayoutView@@@0@@Z 004968f0 f i SeatLayoutView.obj
 0001:00095930       ??$_Destroy_range@UTermInfo@CSeatLayoutView@@V?$allocator@UTermInfo@CSeatLayoutView@@@std@@@std@@YAXPAUTermInfo@CSeatLayoutView@@0AAV?$allocator@UTermInfo@CSeatLayoutView@@@0@@Z 00496930 f i SeatLayoutView.obj
 0001:00095970       ??$_Ucopy@PAUTermInfo@CSeatLayoutView@@@?$vector@UTermInfo@CSeatLayoutView@@V?$allocator@UTermInfo@CSeatLayoutView@@@std@@@std@@IAEPAUTermInfo@CSeatLayoutView@@PAU23@00@Z 00496970 f i SeatLayoutView.obj
 0001:000959a0       ??$fill@PAUTermInfo@CSeatLayoutView@@U12@@std@@YAXPAUTermInfo@CSeatLayoutView@@0ABU12@@Z 004969a0 f i SeatLayoutView.obj
 0001:000959d0       ??$copy_backward@PAUTermInfo@CSeatLayoutView@@PAU12@@std@@YAPAUTermInfo@CSeatLayoutView@@PAU12@00@Z 004969d0 f i SeatLayoutView.obj
 0001:00095a10       ??$_Allocate@UTermInfo@CSeatLayoutView@@@std@@YAPAUTermInfo@CSeatLayoutView@@IPAU12@@Z 00496a10 f i SeatLayoutView.obj
 0001:00095a30       ??4TermInfo@CSeatLayoutView@@QAEAAU01@ABU01@@Z 00496a30 f i SeatLayoutView.obj
 0001:00095a60       ??$_Sort@Viterator@?$vector@UTermInfo@CSeatLayoutView@@V?$allocator@UTermInfo@CSeatLayoutView@@@std@@@std@@H@std@@YAXViterator@?$vector@UTermInfo@CSeatLayoutView@@V?$allocator@UTermInfo@CSeatLayoutView@@@std@@@0@0H@Z 00496a60 f i SeatLayoutView.obj
 0001:00095b60       ??$_Uninit_fill_n@PAUTermInfo@CSeatLayoutView@@IU12@V?$allocator@UTermInfo@CSeatLayoutView@@@std@@@std@@YAXPAUTermInfo@CSeatLayoutView@@IABU12@AAV?$allocator@UTermInfo@CSeatLayoutView@@@0@U_Nonscalar_ptr_iterator_tag@0@@Z 00496b60 f i SeatLayoutView.obj
 0001:00095c00       ??$_Destroy_range@UTermInfo@CSeatLayoutView@@V?$allocator@UTermInfo@CSeatLayoutView@@@std@@@std@@YAXPAUTermInfo@CSeatLayoutView@@0AAV?$allocator@UTermInfo@CSeatLayoutView@@@0@U_Nonscalar_ptr_iterator_tag@0@@Z 00496c00 f i SeatLayoutView.obj
 0001:00095c30       ??$_Uninitialized_copy@PAUTermInfo@CSeatLayoutView@@PAU12@V?$allocator@UTermInfo@CSeatLayoutView@@@std@@@std@@YAPAUTermInfo@CSeatLayoutView@@PAU12@00AAV?$allocator@UTermInfo@CSeatLayoutView@@@0@@Z 00496c30 f i SeatLayoutView.obj
 0001:00095c70       ??$_Copy_backward_opt@PAUTermInfo@CSeatLayoutView@@PAU12@@std@@YAPAUTermInfo@CSeatLayoutView@@PAU12@00U_Nonscalar_ptr_iterator_tag@0@@Z 00496c70 f i SeatLayoutView.obj
 0001:00095ca0       ?construct@?$allocator@UTermInfo@CSeatLayoutView@@@std@@QAEXPAUTermInfo@CSeatLayoutView@@ABU34@@Z 00496ca0 f i SeatLayoutView.obj
 0001:00095cc0       ??$_Unguarded_partition@Viterator@?$vector@UTermInfo@CSeatLayoutView@@V?$allocator@UTermInfo@CSeatLayoutView@@@std@@@std@@@std@@YA?AU?$pair@Viterator@?$vector@UTermInfo@CSeatLayoutView@@V?$allocator@UTermInfo@CSeatLayoutView@@@std@@@std@@V123@@0@Viterator@?$vector@UTermInfo@CSeatLayoutView@@V?$allocator@UTermInfo@CSeatLayoutView@@@std@@@0@0@Z 00496cc0 f i SeatLayoutView.obj
 0001:00096050       ??MTermInfo@CSeatLayoutView@@QBE_NABU01@@Z 00497050 f i SeatLayoutView.obj
 0001:00096150       ??$make_heap@Viterator@?$vector@UTermInfo@CSeatLayoutView@@V?$allocator@UTermInfo@CSeatLayoutView@@@std@@@std@@@std@@YAXViterator@?$vector@UTermInfo@CSeatLayoutView@@V?$allocator@UTermInfo@CSeatLayoutView@@@std@@@0@0@Z 00497150 f i SeatLayoutView.obj
 0001:00096190       ??$sort_heap@Viterator@?$vector@UTermInfo@CSeatLayoutView@@V?$allocator@UTermInfo@CSeatLayoutView@@@std@@@std@@@std@@YAXViterator@?$vector@UTermInfo@CSeatLayoutView@@V?$allocator@UTermInfo@CSeatLayoutView@@@std@@@0@0@Z 00497190 f i SeatLayoutView.obj
 0001:000961d0       ??$_Insertion_sort@Viterator@?$vector@UTermInfo@CSeatLayoutView@@V?$allocator@UTermInfo@CSeatLayoutView@@@std@@@std@@@std@@YAXViterator@?$vector@UTermInfo@CSeatLayoutView@@V?$allocator@UTermInfo@CSeatLayoutView@@@std@@@0@0@Z 004971d0 f i SeatLayoutView.obj
 0001:000962d0       ??$_Uninit_copy@PAUTermInfo@CSeatLayoutView@@PAU12@V?$allocator@UTermInfo@CSeatLayoutView@@@std@@@std@@YAPAUTermInfo@CSeatLayoutView@@PAU12@00AAV?$allocator@UTermInfo@CSeatLayoutView@@@0@U_Nonscalar_ptr_iterator_tag@0@@Z 004972d0 f i SeatLayoutView.obj
 0001:00096380       ??$_Construct@UTermInfo@CSeatLayoutView@@U12@@std@@YAXPAUTermInfo@CSeatLayoutView@@ABU12@@Z 00497380 f i SeatLayoutView.obj
 0001:000963f0       ??$_Destroy@UTermInfo@CSeatLayoutView@@@std@@YAXPAUTermInfo@CSeatLayoutView@@@Z 004973f0 f i SeatLayoutView.obj
 0001:000963f0       ??$_Destroy@UOperationInfo@CWxMiddlewareImpl@@@std@@YAXPAUOperationInfo@CWxMiddlewareImpl@@@Z 004973f0 f i WxMiddlewareImpl.obj
 0001:00096400       ??Fiterator@?$vector@UTermInfo@CSeatLayoutView@@V?$allocator@UTermInfo@CSeatLayoutView@@@std@@@std@@QAEAAV012@XZ 00497400 f i SeatLayoutView.obj
 0001:00096420       ??Giterator@?$vector@UTermInfo@CSeatLayoutView@@V?$allocator@UTermInfo@CSeatLayoutView@@@std@@@std@@QBE?AV012@H@Z 00497420 f i SeatLayoutView.obj
 0001:00096450       ??Ziterator@?$vector@UTermInfo@CSeatLayoutView@@V?$allocator@UTermInfo@CSeatLayoutView@@@std@@@std@@QAEAAV012@H@Z 00497450 f i SeatLayoutView.obj
 0001:00096470       ??$_Median@Viterator@?$vector@UTermInfo@CSeatLayoutView@@V?$allocator@UTermInfo@CSeatLayoutView@@@std@@@std@@@std@@YAXViterator@?$vector@UTermInfo@CSeatLayoutView@@V?$allocator@UTermInfo@CSeatLayoutView@@@std@@@0@00@Z 00497470 f i SeatLayoutView.obj
 0001:00096590       ??$iter_swap@Viterator@?$vector@UTermInfo@CSeatLayoutView@@V?$allocator@UTermInfo@CSeatLayoutView@@@std@@@std@@V123@@std@@YAXViterator@?$vector@UTermInfo@CSeatLayoutView@@V?$allocator@UTermInfo@CSeatLayoutView@@@std@@@0@0@Z 00497590 f i SeatLayoutView.obj
 0001:000965b0       ??$_Val_type@Viterator@?$vector@UTermInfo@CSeatLayoutView@@V?$allocator@UTermInfo@CSeatLayoutView@@@std@@@std@@@std@@YAPAUTermInfo@CSeatLayoutView@@Viterator@?$vector@UTermInfo@CSeatLayoutView@@V?$allocator@UTermInfo@CSeatLayoutView@@@std@@@0@@Z 004975b0 f i SeatLayoutView.obj
 0001:000965b0       ??$_Dist_type@Viterator@?$vector@UTermInfo@CSeatLayoutView@@V?$allocator@UTermInfo@CSeatLayoutView@@@std@@@std@@@std@@YAPAHViterator@?$vector@UTermInfo@CSeatLayoutView@@V?$allocator@UTermInfo@CSeatLayoutView@@@std@@@0@@Z 004975b0 f i SeatLayoutView.obj
 0001:000965c0       ??$_Make_heap@Viterator@?$vector@UTermInfo@CSeatLayoutView@@V?$allocator@UTermInfo@CSeatLayoutView@@@std@@@std@@HUTermInfo@CSeatLayoutView@@@std@@YAXViterator@?$vector@UTermInfo@CSeatLayoutView@@V?$allocator@UTermInfo@CSeatLayoutView@@@std@@@0@0PAHPAUTermInfo@CSeatLayoutView@@@Z 004975c0 f i SeatLayoutView.obj
 0001:00096640       ??$pop_heap@Viterator@?$vector@UTermInfo@CSeatLayoutView@@V?$allocator@UTermInfo@CSeatLayoutView@@@std@@@std@@@std@@YAXViterator@?$vector@UTermInfo@CSeatLayoutView@@V?$allocator@UTermInfo@CSeatLayoutView@@@std@@@0@0@Z 00497640 f i SeatLayoutView.obj
 0001:00096680       ??$rotate@Viterator@?$vector@UTermInfo@CSeatLayoutView@@V?$allocator@UTermInfo@CSeatLayoutView@@@std@@@std@@@std@@YAXViterator@?$vector@UTermInfo@CSeatLayoutView@@V?$allocator@UTermInfo@CSeatLayoutView@@@std@@@0@00@Z 00497680 f i SeatLayoutView.obj
 0001:000966e0       ??$_Med3@Viterator@?$vector@UTermInfo@CSeatLayoutView@@V?$allocator@UTermInfo@CSeatLayoutView@@@std@@@std@@@std@@YAXViterator@?$vector@UTermInfo@CSeatLayoutView@@V?$allocator@UTermInfo@CSeatLayoutView@@@std@@@0@00@Z 004976e0 f i SeatLayoutView.obj
 0001:00096780       ??$swap@UTermInfo@CSeatLayoutView@@@std@@YAXAAUTermInfo@CSeatLayoutView@@0@Z 00497780 f i SeatLayoutView.obj
 0001:000967f0       ??$_Adjust_heap@Viterator@?$vector@UTermInfo@CSeatLayoutView@@V?$allocator@UTermInfo@CSeatLayoutView@@@std@@@std@@HUTermInfo@CSeatLayoutView@@@std@@YAXViterator@?$vector@UTermInfo@CSeatLayoutView@@V?$allocator@UTermInfo@CSeatLayoutView@@@std@@@0@HHUTermInfo@CSeatLayoutView@@@Z 004977f0 f i SeatLayoutView.obj
 0001:00096960       ??$_Pop_heap_0@Viterator@?$vector@UTermInfo@CSeatLayoutView@@V?$allocator@UTermInfo@CSeatLayoutView@@@std@@@std@@UTermInfo@CSeatLayoutView@@@std@@YAXViterator@?$vector@UTermInfo@CSeatLayoutView@@V?$allocator@UTermInfo@CSeatLayoutView@@@std@@@0@0PAUTermInfo@CSeatLayoutView@@@Z 00497960 f i SeatLayoutView.obj
 0001:00096a00       ??$_Rotate@Viterator@?$vector@UTermInfo@CSeatLayoutView@@V?$allocator@UTermInfo@CSeatLayoutView@@@std@@@std@@@std@@YAXViterator@?$vector@UTermInfo@CSeatLayoutView@@V?$allocator@UTermInfo@CSeatLayoutView@@@std@@@0@00Urandom_access_iterator_tag@0@@Z 00497a00 f i SeatLayoutView.obj
 0001:00096a40       ??$_Push_heap@Viterator@?$vector@UTermInfo@CSeatLayoutView@@V?$allocator@UTermInfo@CSeatLayoutView@@@std@@@std@@HUTermInfo@CSeatLayoutView@@@std@@YAXViterator@?$vector@UTermInfo@CSeatLayoutView@@V?$allocator@UTermInfo@CSeatLayoutView@@@std@@@0@HHUTermInfo@CSeatLayoutView@@@Z 00497a40 f i SeatLayoutView.obj
 0001:00096b30       ??$_Pop_heap@Viterator@?$vector@UTermInfo@CSeatLayoutView@@V?$allocator@UTermInfo@CSeatLayoutView@@@std@@@std@@HUTermInfo@CSeatLayoutView@@@std@@YAXViterator@?$vector@UTermInfo@CSeatLayoutView@@V?$allocator@UTermInfo@CSeatLayoutView@@@std@@@0@00UTermInfo@CSeatLayoutView@@PAH@Z 00497b30 f i SeatLayoutView.obj
 0001:00096bd0       ??$_Rotate@Viterator@?$vector@UTermInfo@CSeatLayoutView@@V?$allocator@UTermInfo@CSeatLayoutView@@@std@@@std@@HUTermInfo@CSeatLayoutView@@@std@@YAXViterator@?$vector@UTermInfo@CSeatLayoutView@@V?$allocator@UTermInfo@CSeatLayoutView@@@std@@@0@00PAHPAUTermInfo@CSeatLayoutView@@@Z 00497bd0 f i SeatLayoutView.obj
 0001:00096d90       ??0Color@Gdiplus@@QAE@EEEE@Z 00497d90 f i SeatLayoutView.obj
 0001:00096dc0       ?FillRectangle@Graphics@Gdiplus@@QAE?AW4Status@2@PBVBrush@2@HHHH@Z 00497dc0 f i SeatLayoutView.obj
 0001:00096e00       ?DrawImage@Graphics@Gdiplus@@QAE?AW4Status@2@PAVImage@2@ABVRectF@2@MMMMW4Unit@2@PBVImageAttributes@2@P6GHPAX@Z4@Z 00497e00 f i SeatLayoutView.obj
 0001:00096ea0       ?FromFile@Bitmap@Gdiplus@@SAPAV12@PB_WH@Z 00497ea0 f i SeatLayoutView.obj
 0001:00096f10       ??0CSeatList@@QAE@XZ       00497f10 f   SeatList.obj
 0001:00096f70       ??_ECSeatList@@UAEPAXI@Z   00497f70 f i SeatList.obj
 0001:00096f70       ??_GCSeatList@@UAEPAXI@Z   00497f70 f i SeatList.obj
 0001:00096fa0       ??0?$CTypedPtrArray@VCObArray@@PAVCSeat@@@@QAE@XZ 00497fa0 f i SeatList.obj
 0001:00096fc0       ??_E?$CTypedPtrArray@VCObArray@@PAVCSeat@@@@UAEPAXI@Z 00497fc0 f i SeatList.obj
 0001:00096fc0       ??_G?$CTypedPtrArray@VCObArray@@PAVCSeat2@@@@UAEPAXI@Z 00497fc0 f i SeatList2.obj
 0001:00096fc0       ??_E?$CTypedPtrArray@VCObArray@@PAVCSeat2@@@@UAEPAXI@Z 00497fc0 f i SeatList2.obj
 0001:00096fc0       ??_G?$CTypedPtrArray@VCObArray@@PAVCSeat@@@@UAEPAXI@Z 00497fc0 f i SeatList.obj
 0001:00096ff0       ??1?$CTypedPtrArray@VCObArray@@PAVCSeat@@@@UAE@XZ 00497ff0 f i SeatList.obj
 0001:00096ff0       ??1?$CTypedPtrArray@VCObArray@@PAVCSeat2@@@@UAE@XZ 00497ff0 f i SeatList2.obj
 0001:00097010       ??1CSeatList@@UAE@XZ       00498010 f   SeatList.obj
 0001:00097070       ?Add@CSeatList@@QAEHPAVCSeat@@@Z 00498070 f   SeatList.obj
 0001:000970e0       ?RemoveAll@CObArray@@QAEXXZ 004980e0 f i SeatList.obj
 0001:00097100       ?DeleteAt@CSeatList2@@QAEXHH@Z 00498100 f   SeatList2.obj
 0001:00097100       ?DeleteAt@CSeatList@@QAEXHH@Z 00498100 f   SeatList.obj
 0001:00097190       ?DeleteAll@CSeatList@@QAEXXZ 00498190 f   SeatList.obj
 0001:00097190       ?DeleteAll@CSeatList2@@QAEXXZ 00498190 f   SeatList2.obj
 0001:00097220       ?GetSize@CSeatList2@@QAEHXZ 00498220 f   SeatLayoutView.obj
 0001:00097220       ?GetSize@CSeatList@@QAEHXZ 00498220 f   SeatList.obj
 0001:00097240       ?GetAt@CSeatList@@QAEPAVCSeat@@H@Z 00498240 f   SeatList.obj
 0001:00097260       ?SaveList@CSeatList@@QAEHXZ 00498260 f   SeatList.obj
 0001:00097630       ?ReadList@CSeatList@@QAEHXZ 00498630 f   SeatList.obj
 0001:00097a90       ?DrawAllRect@CSeatList@@QAEXPAVCDC@@NN@Z 00498a90 f   SeatList.obj
 0001:00097b00       ?InRect@CSeatList@@QAEHVCPoint@@@Z 00498b00 f   SeatList.obj
 0001:00097ba0       ?GetAt@?$CTypedPtrArray@VCObArray@@PAVCSeat2@@@@QBEPAVCSeat2@@H@Z 00498ba0 f i SeatList2.obj
 0001:00097ba0       ?GetAt@?$CTypedPtrArray@VCObArray@@PAVCSeat@@@@QBEPAVCSeat@@H@Z 00498ba0 f i SeatList.obj
 0001:00097bc0       ?Add@?$CTypedPtrArray@VCObArray@@PAVCSeat@@@@QAEHPAVCSeat@@@Z 00498bc0 f i SeatList.obj
 0001:00097bc0       ?Add@?$CTypedPtrArray@VCObArray@@PAVCSeat2@@@@QAEHPAVCSeat2@@@Z 00498bc0 f i SeatList2.obj
 0001:00097be0       ?Add@CObArray@@QAEHPAVCObject@@@Z 00498be0 f i SeatList.obj
 0001:00097c10       ??0CSeatList2@@QAE@XZ      00498c10 f   SeatList2.obj
 0001:00097c70       ??_GCSeatList2@@UAEPAXI@Z  00498c70 f i SeatList2.obj
 0001:00097c70       ??_ECSeatList2@@UAEPAXI@Z  00498c70 f i SeatList2.obj
 0001:00097ca0       ??0?$CTypedPtrArray@VCObArray@@PAVCSeat2@@@@QAE@XZ 00498ca0 f i SeatList2.obj
 0001:00097cc0       ??1CSeatList2@@UAE@XZ      00498cc0 f   SeatList2.obj
 0001:00097d20       ?SaveList@CSeatList2@@QAEHXZ 00498d20 f   SeatList2.obj
 0001:00098090       ?ReadList@CSeatList2@@QAEHXZ 00499090 f   SeatList2.obj
 0001:00098300       ?DrawAllRect@CSeatList2@@QAEXPAVCDC@@NN@Z 00499300 f   SeatList2.obj
 0001:00098370       ?InRect@CSeatList2@@QAEHVCPoint@@@Z 00499370 f   SeatList2.obj
 0001:00098410       ?GetAt@CSeatList2@@QAEPAVCSeat2@@H@Z 00499410 f   SeatList2.obj
 0001:00098450       ?Add@CSeatList2@@QAEHPAVCSeat2@@@Z 00499450 f   SeatList2.obj
 0001:000984c0       ??A?$CTypedPtrArray@VCObArray@@PAVCSeat2@@@@QAEAAPAVCSeat2@@H@Z 004994c0 f i SeatList2.obj
 0001:000984e0       ?GetRuntimeClass@CSetPageOfSeat@@UBEPAUCRuntimeClass@@XZ 004994e0 f   SeatSetPage.obj
 0001:000984f0       ??0CSetPageOfSeat@@QAE@XZ  004994f0 f   SeatSetPage.obj
 0001:00098560       ??_ECSetPageOfSeat@@UAEPAXI@Z 00499560 f i SeatSetPage.obj
 0001:00098560       ??_GCSetPageOfSeat@@UAEPAXI@Z 00499560 f i SeatSetPage.obj
 0001:00098590       ??1CSetPageOfSeat@@UAE@XZ  00499590 f   SeatSetPage.obj
 0001:000985c0       ?DoDataExchange@CSetPageOfSeat@@MAEXPAVCDataExchange@@@Z 004995c0 f   SeatSetPage.obj
 0001:00098600       ?GetMessageMap@CSetPageOfSeat@@MBEPBUAFX_MSGMAP@@XZ 00499600 f   SeatSetPage.obj
 0001:00098610       ?OnBnClickedButtonBrowser@CSetPageOfSeat@@IAEXXZ 00499610 f   SeatSetPage.obj
 0001:00098730       ?SetSeatBmpPath@CIBAConfig@@QAEXV?$CStringT@_WV?$StrTraitMFC_DLL@_WV?$ChTraitsCRT@_W@ATL@@@@@ATL@@@Z 00499730 f i SeatSetPage.obj
 0001:00098790       ?OnInitDialog@CSetPageOfSeat@@MAEHXZ 00499790 f   SeatSetPage.obj
 0001:00098830       ?OnOK@CSetPageOfSeat@@MAEXXZ 00499830 f   SeatSetPage.obj
 0001:000988c0       ?GetMessageMap@CSeatStatusBar@@MBEPBUAFX_MSGMAP@@XZ 004998c0 f   SeatStatusBar.obj
 0001:000988d0       ??0CSeatStatusBar@@QAE@XZ  004998d0 f   SeatStatusBar.obj
 0001:000989e0       ??_GCSeatStatusBar@@UAEPAXI@Z 004999e0 f i SeatStatusBar.obj
 0001:000989e0       ??_ECSeatStatusBar@@UAEPAXI@Z 004999e0 f i SeatStatusBar.obj
 0001:00098a10       ??1CSeatStatusBar@@UAE@XZ  00499a10 f   SeatStatusBar.obj
 0001:00098a70       ?OnCreate@CSeatStatusBar@@IAEHPAUtagCREATESTRUCTW@@@Z 00499a70 f   SeatStatusBar.obj
 0001:00098ab0       ?OnPaint@CSeatStatusBar@@IAEXXZ 00499ab0 f   SeatStatusBar.obj
 0001:00098d40       ?OnEraseBkgnd@CSeatStatusBar@@IAEHPAVCDC@@@Z 00499d40 f   SeatStatusBar.obj
 0001:00098d90       ??1?$auto_ptr@VCGdiPlusBitmap@@@std@@QAE@XZ 00499d90 f i SeatStatusBar.obj
 0001:00098dd0       ?GetRuntimeClass@CDlgBundTimeSelfDef@@UBEPAUCRuntimeClass@@XZ 00499dd0 f   SelfDefineBundTimeDlg.obj
 0001:00098de0       ??0CDlgBundTimeSelfDef@@QAE@PAVCWnd@@@Z 00499de0 f   SelfDefineBundTimeDlg.obj
 0001:00098ed0       ??_GCDlgBundTimeSelfDef@@UAEPAXI@Z 00499ed0 f i SelfDefineBundTimeDlg.obj
 0001:00098ed0       ??_ECDlgBundTimeSelfDef@@UAEPAXI@Z 00499ed0 f i SelfDefineBundTimeDlg.obj
 0001:00098f00       ??1CDlgBundTimeSelfDef@@UAE@XZ 00499f00 f   SelfDefineBundTimeDlg.obj
 0001:00098fd0       ?DoDataExchange@CDlgBundTimeSelfDef@@MAEXPAVCDataExchange@@@Z 00499fd0 f   SelfDefineBundTimeDlg.obj
 0001:00099090       ?GetMessageMap@CDlgBundTimeSelfDef@@MBEPBUAFX_MSGMAP@@XZ 0049a090 f   SelfDefineBundTimeDlg.obj
 0001:000990a0       ?InitTimeCtrl@CDlgBundTimeSelfDef@@AAEHXZ 0049a0a0 f   SelfDefineBundTimeDlg.obj
 0001:000991f0       ?InitTimeDate@CDlgBundTimeSelfDef@@AAEHXZ 0049a1f0 f   SelfDefineBundTimeDlg.obj
 0001:000992d0       ?OnInitDialog@CDlgBundTimeSelfDef@@MAEHXZ 0049a2d0 f   SelfDefineBundTimeDlg.obj
 0001:00099300       ?InitOtherCtrl@CDlgBundTimeSelfDef@@AAEXXZ 0049a300 f   SelfDefineBundTimeDlg.obj
 0001:00099550       ?OnBnClickedOk@CDlgBundTimeSelfDef@@IAEXXZ 0049a550 f   SelfDefineBundTimeDlg.obj
 0001:00099bd0       ?PreTranslateMessage@CDlgBundTimeSelfDef@@MAEHPAUtagMSG@@@Z 0049abd0 f   SelfDefineBundTimeDlg.obj
 0001:00099c30       ?OnBnClickedOk@CDlgDutyLocal@@QAEXXZ 0049ac30 f   DlgDutyLocal.obj
 0001:00099c30       ?OnBnClickedOk@CIBAAboutDlg@@IAEXXZ 0049ac30 f   IBAAboutDlg.obj
 0001:00099c30       ?OnOK@CDlgAddTerm@@MAEXXZ  0049ac30 f   AddTerminalDlg.obj
 0001:00099c30       ?OnOK@CDefineBundleTimeDlg@@MAEXXZ 0049ac30 f   DefineBundTimeDlg.obj
 0001:00099c30       ?OnBnClickedOk@CStoreDlg@@QAEXXZ 0049ac30 f   StoreDlg.obj
 0001:00099c30       ?OnOK@CRealNameDeRegDlg@@MAEXXZ 0049ac30 f   CardDeRegisterDlg.obj
 0001:00099c30       ?OnBnClickedOk@CDlgAddTerm@@IAEXXZ 0049ac30 f   AddTerminalDlg.obj
 0001:00099c30       ?OnBnClickedOk@CCheckMemberDlg@@IAEXXZ 0049ac30 f   CheckMemberDlg.obj
 0001:00099c30       ?OnOK@CDlgBundTimeSelfDef@@MAEXXZ 0049ac30 f   SelfDefineBundTimeDlg.obj
 0001:00099c30       ?OnOK@CDlgAllCheckOut@@MAEXXZ 0049ac30 f   AllCheckOut.obj
 0001:00099c50       ?OnEndTimeChanged@CDlgBundTimeSelfDef@@IAEXXZ 0049ac50 f   SelfDefineBundTimeDlg.obj
 0001:00099e30       ?OnEnChangeEditHour@CDlgBundTimeSelfDef@@IAEXXZ 0049ae30 f   SelfDefineBundTimeDlg.obj
 0001:00099f70       ?OnEnChangeEditMin@CDlgBundTimeSelfDef@@IAEXXZ 0049af70 f   SelfDefineBundTimeDlg.obj
 0001:00099f90       ?OnCtlColor@CDefineBundleTimeDlg@@IAEPAUHBRUSH__@@PAVCDC@@PAVCWnd@@I@Z 0049af90 f   DefineBundTimeDlg.obj
 0001:00099f90       ?OnCtlColor@CDlgBundTimeSelfDef@@IAEPAUHBRUSH__@@PAVCDC@@PAVCWnd@@I@Z 0049af90 f   SelfDefineBundTimeDlg.obj
 0001:00099fe0       ?GetMemberId@CServletHellper@@SAIPB_W@Z 0049afe0 f   ServletHellper.obj
 0001:0009a000       ?GetMemberId@CServletHellper@@SAIPB_WAAI@Z 0049b000 f   ServletHellper.obj
 0001:0009a100       ?ActivationMember@CServletHellper@@SAHII@Z 0049b100 f   ServletHellper.obj
 0001:0009a320       ?Synchronize@CServletHellper@@SAHXZ 0049b320 f   ServletHellper.obj
 0001:0009a660       ?GetMainCenterPath@CNetBarConfig@@QBE?AV?$CStringT@_WV?$StrTraitMFC_DLL@_WV?$ChTraitsCRT@_W@ATL@@@@@ATL@@XZ 0049b660 f i ServletHellper.obj
 0001:0009a6a0       ?SetNetId@CCreditHelpper@@QAEXV?$CStringT@_WV?$StrTraitMFC_DLL@_WV?$ChTraitsCRT@_W@ATL@@@@@ATL@@@Z 0049b6a0 f   ServletHellper.obj
 0001:0009a6f0       ?Execute@CCreditHelpper@@QAEHXZ 0049b6f0 f   ServletHellper.obj
 0001:0009aa60       ?Execute@CCreditHelpper@@QAEHV?$CStringT@_WV?$StrTraitMFC_DLL@_WV?$ChTraitsCRT@_W@ATL@@@@@ATL@@@Z 0049ba60 f   ServletHellper.obj
 0001:0009af40       ?OnCreditOK@CCreditHelpper@@AAEXAAVCCreditMethod@NS_SERVLET@@@Z 0049bf40 f   ServletHellper.obj
 0001:0009b2e0       ?DeregisterUser@CDeregisterHelpper@@SAHIAAV?$CStringT@_WV?$StrTraitMFC_DLL@_WV?$ChTraitsCRT@_W@ATL@@@@@ATL@@@Z 0049c2e0 f   ServletHellper.obj
 0001:0009ba80       ?AllowAutoRefund@CDeregisterHelpper@@SAHAAVCBalanceMethod@NS_SERVLET@@@Z 0049ca80 f   ServletHellper.obj
 0001:0009bc70       ?AllowAutoRefundInLocalMode@CDeregisterHelpper@@SAHAAVCActiveMember@@HVCOleDateTime@ATL@@@Z 0049cc70 f   ServletHellper.obj
 0001:0009be40       ?SendRegDataToProxy@CServletHellper@@CAXI@Z 0049ce40 f   ServletHellper.obj
 0001:0009cba0       ?CreateObject@CShiftCashView@@SGPAVCObject@@XZ 0049dba0 f   ShiftCashView.obj
 0001:0009cc10       ?GetThisClass@CShiftCashView@@SGPAUCRuntimeClass@@XZ 0049dc10 f   ShiftCashView.obj
 0001:0009cc20       ?GetRuntimeClass@CShiftCashView@@UBEPAUCRuntimeClass@@XZ 0049dc20 f   ShiftCashView.obj
 0001:0009cc30       ??0CShiftCashView@@IAE@XZ  0049dc30 f   ShiftCashView.obj
 0001:0009ccd0       ??_ECShiftCashView@@MAEPAXI@Z 0049dcd0 f i ShiftCashView.obj
 0001:0009ccd0       ??_GCShiftCashView@@MAEPAXI@Z 0049dcd0 f i ShiftCashView.obj
 0001:0009cd00       ??1CShiftCashView@@MAE@XZ  0049dd00 f   ShiftCashView.obj
 0001:0009cd80       ?DoDataExchange@CShiftCashView@@MAEXPAVCDataExchange@@@Z 0049dd80 f   ShiftCashView.obj
 0001:0009cdd0       ?GetMessageMap@CShiftCashView@@MBEPBUAFX_MSGMAP@@XZ 0049ddd0 f   ShiftCashView.obj
 0001:0009cde0       ?OnInitialUpdate@CShiftCashView@@UAEXXZ 0049dde0 f   ShiftCashView.obj
 0001:0009ce50       ?OnSize@CShiftCashView@@IAEXIHH@Z 0049de50 f   ShiftCashView.obj
 0001:0009ceb0       ?OnBnClickedButtonQuery@CShiftCashView@@IAEXXZ 0049deb0 f   ShiftCashView.obj
 0001:0009cf00       ?InitData@CShiftCashView@@IAEXXZ 0049df00 f   ShiftCashView.obj
 0001:0009cf70       ?InitListView@CShiftCashView@@IAEXXZ 0049df70 f   ShiftCashView.obj
 0001:0009d070       ?QueryCenter@CShiftCashView@@IAEXXZ 0049e070 f   ShiftCashView.obj
 0001:0009da50       ?GetRuntimeClass@CShortMsgDlg@@UBEPAUCRuntimeClass@@XZ 0049ea50 f   ShortMsgDlg.obj
 0001:0009da60       ??0CShortMsgDlg@@QAE@PAVCWnd@@@Z 0049ea60 f   ShortMsgDlg.obj
 0001:0009db50       ??_ECShortMsgDlg@@UAEPAXI@Z 0049eb50 f i ShortMsgDlg.obj
 0001:0009db50       ??_GCShortMsgDlg@@UAEPAXI@Z 0049eb50 f i ShortMsgDlg.obj
 0001:0009db80       ??1CShortMsgDlg@@UAE@XZ    0049eb80 f   ShortMsgDlg.obj
 0001:0009dc30       ?DoDataExchange@CShortMsgDlg@@MAEXPAVCDataExchange@@@Z 0049ec30 f   ShortMsgDlg.obj
 0001:0009dc90       ?GetMessageMap@CShortMsgDlg@@MBEPBUAFX_MSGMAP@@XZ 0049ec90 f   ShortMsgDlg.obj
 0001:0009dca0       ?OnInitDialog@CShortMsgDlg@@MAEHXZ 0049eca0 f   ShortMsgDlg.obj
 0001:0009df00       ?OnBnClickedClose@CShortMsgDlg@@IAEXXZ 0049ef00 f   ShortMsgDlg.obj
 0001:0009df00       ?OnBnClickedOk@CDlgBundleTimeList@@IAEXXZ 0049ef00 f   BundleTimeListDlg.obj
 0001:0009df00       ?OnBnClickedOk@CMsgBoxDlg@@IAEXXZ 0049ef00 f   MsgBoxDlg.obj
 0001:0009df20       ?OnBnClickedSendshormsg@CShortMsgDlg@@IAEXXZ 0049ef20 f   ShortMsgDlg.obj
 0001:0009e090       ?PreTranslateMessage@CShortMsgDlg@@MAEHPAUtagMSG@@@Z 0049f090 f   ShortMsgDlg.obj
 0001:0009e0e0       ?ShowPopupMenu@CShortMsgDlg@@IAEXXZ 0049f0e0 f   ShortMsgDlg.obj
 0001:0009e2c0       ?OnQuickMsg@CShortMsgDlg@@IAEXI@Z 0049f2c0 f   ShortMsgDlg.obj
 0001:0009e310       ?OnEditQuickMsg@CShortMsgDlg@@IAEXXZ 0049f310 f   ShortMsgDlg.obj
 0001:0009e3b0       ?SetSendType@CShortMsgDlg@@QAEXI@Z 0049f3b0 f   ShortMsgDlg.obj
 0001:0009e3d0       ?InsertMenuW@CMenu@@QAEHIIIPB_W@Z 0049f3d0 f i ShortMsgDlg.obj
 0001:0009e400       ?CreateObject@CShortMsgView@@SGPAVCObject@@XZ 0049f400 f   ShortMsgView.obj
 0001:0009e470       ?GetThisClass@CShortMsgView@@SGPAUCRuntimeClass@@XZ 0049f470 f   ShortMsgView.obj
 0001:0009e480       ?GetRuntimeClass@CShortMsgView@@UBEPAUCRuntimeClass@@XZ 0049f480 f   ShortMsgView.obj
 0001:0009e490       ??0CShortMsgView@@IAE@XZ   0049f490 f   ShortMsgView.obj
 0001:0009e530       ??_ECShortMsgView@@MAEPAXI@Z 0049f530 f i ShortMsgView.obj
 0001:0009e530       ??_GCShortMsgView@@MAEPAXI@Z 0049f530 f i ShortMsgView.obj
 0001:0009e560       ??1CShortMsgView@@MAE@XZ   0049f560 f   ShortMsgView.obj
 0001:0009e5f0       ?DoDataExchange@CShortMsgView@@MAEXPAVCDataExchange@@@Z 0049f5f0 f   ShortMsgView.obj
 0001:0009e670       ?GetMessageMap@CShortMsgView@@MBEPBUAFX_MSGMAP@@XZ 0049f670 f   ShortMsgView.obj
 0001:0009e680       ?OnBnClickedButtonQuery@CShortMsgView@@IAEXXZ 0049f680 f   ShortMsgView.obj
 0001:0009e6a0       ?OnInitialUpdate@CShortMsgView@@UAEXXZ 0049f6a0 f   ShortMsgView.obj
 0001:0009e700       ?InitListView@CShortMsgView@@AAEXXZ 0049f700 f   ShortMsgView.obj
 0001:0009e830       ?InitTimeCtrl@CShortMsgView@@AAEHXZ 0049f830 f   ShortMsgView.obj
 0001:0009e940       ?OnSize@CShortMsgView@@IAEXIHH@Z 0049f940 f   ShortMsgView.obj
 0001:0009e9a0       ?InitTimeDate@CShortMsgView@@AAEHXZ 0049f9a0 f   ShortMsgView.obj
 0001:0009eae0       ?FillMsgList@CShortMsgView@@AAEHXZ 0049fae0 f   ShortMsgView.obj
 0001:0009ed80       ??0CClientShortMessage@NS_DAL@@QAE@ABV01@@Z 0049fd80 f i ShortMsgView.obj
 0001:0009ee40       ?QueryShortMsgList@CShortMsgView@@QAEXXZ 0049fe40 f   ShortMsgView.obj
 0001:0009ef00       ?OnNMDblclkListMsg@CShortMsgView@@IAEXPAUtagNMHDR@@PAJ@Z 0049ff00 f   ShortMsgView.obj
 0001:0009f100       ?GetRuntimeClass@CSShowPic@@UBEPAUCRuntimeClass@@XZ 004a0100 f   SShowPic.obj
 0001:0009f110       ??0CSShowPic@@QAE@XZ       004a0110 f   SShowPic.obj
 0001:0009f180       ??_GCSShowPic@@UAEPAXI@Z   004a0180 f i SShowPic.obj
 0001:0009f180       ??_ECSShowPic@@UAEPAXI@Z   004a0180 f i SShowPic.obj
 0001:0009f1b0       ??1CSShowPic@@UAE@XZ       004a01b0 f   SShowPic.obj
 0001:0009f250       ?GetMessageMap@CSShowPic@@MBEPBUAFX_MSGMAP@@XZ 004a0250 f   SShowPic.obj
 0001:0009f260       ?OnPaint@CSShowPic@@IAEXXZ 004a0260 f   SShowPic.obj
 0001:0009f410       ?ShowPic@CSShowPic@@QAEXPB_W@Z 004a0410 f   SShowPic.obj
 0001:0009f720       ?DrawImage@Graphics@Gdiplus@@QAE?AW4Status@2@PAVImage@2@HHHHHHW4Unit@2@@Z 004a0720 f i SShowPic.obj
 0001:0009f780       ?DrawImage@Graphics@Gdiplus@@QAE?AW4Status@2@PAVImage@2@ABVRect@2@HHHHW4Unit@2@PBVImageAttributes@2@P6GHPAX@Z4@Z 004a0780 f i SShowPic.obj
 0001:0009f820       ?FromFile@Image@Gdiplus@@SAPAV12@PB_WH@Z 004a0820 f i SShowPic.obj
 0001:0009f890       ??0Image@Gdiplus@@QAE@PB_WH@Z 004a0890 f i SShowPic.obj
 0001:0009f8f0       ??0Bitmap@Gdiplus@@QAE@HHH@Z 004a08f0 f i SShowPic.obj
 0001:0009f980       ?GetRuntimeClass@CSShowPic2@@UBEPAUCRuntimeClass@@XZ 004a0980 f   SShowPic2.obj
 0001:0009f990       ??0CSShowPic2@@QAE@XZ      004a0990 f   SShowPic2.obj
 0001:0009f9d0       ??_ECSShowPic2@@UAEPAXI@Z  004a09d0 f i SShowPic2.obj
 0001:0009f9d0       ??_GCSShowPic2@@UAEPAXI@Z  004a09d0 f i SShowPic2.obj
 0001:0009fa00       ??1CSShowPic2@@UAE@XZ      004a0a00 f   SShowPic2.obj
 0001:0009fa30       ?GetMessageMap@CSShowPic2@@MBEPBUAFX_MSGMAP@@XZ 004a0a30 f   SShowPic2.obj
 0001:0009fa40       ?OnPaint@CSShowPic2@@IAEXXZ 004a0a40 f   SShowPic2.obj
 0001:0009fb80       ?ShowPic@CSShowPic2@@QAEXPB_W@Z 004a0b80 f   SShowPic2.obj
 0001:0009fbc0       ?ShowJpgGif@@YA_NPAVCDC@@V?$CStringT@_WV?$StrTraitMFC_DLL@_WV?$ChTraitsCRT@_W@ATL@@@@@ATL@@HHHH@Z 004a0bc0 f   SShowPic2.obj
 0001:0009fe80       ??0CFileStatus@@QAE@XZ     004a0e80 f i SShowPic2.obj
 0001:0009feb0       ??0CTime@ATL@@QAE@XZ       004a0eb0 f i SShowPic2.obj
 0001:0009fed0       ??0CComCriticalSection@ATL@@QAE@XZ 004a0ed0 f i StdAfx.obj
 0001:0009fef0       ?Init@CComCriticalSection@ATL@@QAEJXZ 004a0ef0 f i StdAfx.obj
 0001:0009ff90       ?GetRuntimeClass@CStoreDlg@@UBEPAUCRuntimeClass@@XZ 004a0f90 f   StoreDlg.obj
 0001:0009ffa0       ??0CStoreDlg@@QAE@PAVCWnd@@@Z 004a0fa0 f   StoreDlg.obj
 0001:000a0030       ??_GCStoreDlg@@UAEPAXI@Z   004a1030 f i StoreDlg.obj
 0001:000a0030       ??_ECStoreDlg@@UAEPAXI@Z   004a1030 f i StoreDlg.obj
 0001:000a0060       ??1CStoreDlg@@UAE@XZ       004a1060 f   StoreDlg.obj
 0001:000a00d0       ?DoDataExchange@CStoreDlg@@MAEXPAVCDataExchange@@@Z 004a10d0 f   StoreDlg.obj
 0001:000a0110       ?GetMessageMap@CStoreDlg@@MBEPBUAFX_MSGMAP@@XZ 004a1110 f   StoreDlg.obj
 0001:000a0120       ?OnInitDialog@CStoreDlg@@MAEHXZ 004a1120 f   StoreDlg.obj
 0001:000a0140       ?InitCtrl@CStoreDlg@@AAEHXZ 004a1140 f   StoreDlg.obj
 0001:000a02e0       ?SetGrid@CStoreDlg@@AAEHI@Z 004a12e0 f   StoreDlg.obj
 0001:000a03c0       ?InitSortPriceGrid@CStoreDlg@@AAEHXZ 004a13c0 f   StoreDlg.obj
 0001:000a05e0       ?InitPriceGrid@CStoreDlg@@AAEHXZ 004a15e0 f   StoreDlg.obj
 0001:000a0810       ?InitSortGrid@CStoreDlg@@AAEHXZ 004a1810 f   StoreDlg.obj
 0001:000a0a40       ?FillSortPriceGird@CStoreDlg@@AAEXXZ 004a1a40 f   StoreDlg.obj
 0001:000a1270       ?FillPriceGird@CStoreDlg@@AAEXXZ 004a2270 f   StoreDlg.obj
 0001:000a1ad0       ?FillSortGird@CStoreDlg@@AAEXXZ 004a2ad0 f   StoreDlg.obj
 0001:000a2310       ?OnCbnSelchangeComboSort@CStoreDlg@@QAEXXZ 004a3310 f   StoreDlg.obj
 0001:000a2380       ?OnBnClickedButtonPrintcommodity@CStoreDlg@@QAEXXZ 004a3380 f   StoreDlg.obj
 0001:000a23b0       ?GetMessageMap@CIBATaskPane@@MBEPBUAFX_MSGMAP@@XZ 004a33b0 f   TaskPane.obj
 0001:000a23c0       ??0CIBATaskPane@@QAE@XZ    004a33c0 f   TaskPane.obj
 0001:000a2540       ??_ECIBATaskPane@@UAEPAXI@Z 004a3540 f i TaskPane.obj
 0001:000a2540       ??_GCIBATaskPane@@UAEPAXI@Z 004a3540 f i TaskPane.obj
 0001:000a2570       ??1CIBATaskPane@@UAE@XZ    004a3570 f   TaskPane.obj
 0001:000a2640       ?OnCreate@CIBATaskPane@@IAEHPAUtagCREATESTRUCTW@@@Z 004a3640 f   TaskPane.obj
 0001:000a29c0       ?GetNetbarNotice@CNetBarConfig@@QBE?AV?$CStringT@_WV?$StrTraitMFC_DLL@_WV?$ChTraitsCRT@_W@ATL@@@@@ATL@@XZ 004a39c0 f i TaskPane.obj
 0001:000a2a00       ?GetSafeHwnd@CWnd@@QBEPAUHWND__@@XZ 004a3a00 f i AllCheckOut.obj
 0001:000a2a00       ??BCWnd@@QBEPAUHWND__@@XZ  004a3a00 f i TaskPane.obj
 0001:000a2a30       ?CreateEditControl@CIBATaskPane@@IAEHXZ 004a3a30 f   TaskPane.obj
 0001:000a2bb0       ?GetFont@CWnd@@QBEPAVCFont@@XZ 004a3bb0 f i TaskPane.obj
 0001:000a2be0       ?FromHandle@CFont@@SGPAV1@PAUHFONT__@@@Z 004a3be0 f i TaskPane.obj
 0001:000a2bf0       ?OnDestroy@CIBATaskPane@@IAEXXZ 004a3bf0 f   TaskPane.obj
 0001:000a2cf0       ?CreateBroser@CIBATaskPane@@IAEHXZ 004a3cf0 f   TaskPane.obj
 0001:000a2e50       ?ShowUserInfo@CIBATaskPane@@QAEXAAVCComputerInfo@@@Z 004a3e50 f   TaskPane.obj
 0001:000a2f70       ?ShowUserInfo@CIBATaskPane@@QAEXAAVCActiveMember@@@Z 004a3f70 f   TaskPane.obj
 0001:000a3450       ?ShowUserInfo@CIBATaskPane@@IAEXV?$CStringT@_WV?$StrTraitMFC_DLL@_WV?$ChTraitsCRT@_W@ATL@@@@@ATL@@@Z 004a4450 f   TaskPane.obj
 0001:000a35e0       ?OnClickTask@CIBATaskPane@@MAEXHHIK@Z 004a45e0 f   TaskPane.obj
 0001:000a3720       ?QueryConsume@CIBATaskPane@@IAE?AV?$CStringT@_WV?$StrTraitMFC_DLL@_WV?$ChTraitsCRT@_W@ATL@@@@@ATL@@XZ 004a4720 f   TaskPane.obj
 0001:000a3c10       ?ShowCashierInfo@CIBATaskPane@@IAEXXZ 004a4c10 f   TaskPane.obj
 0001:000a3dd0       ?OnLButtonDown@CIBATaskPane@@QAEXIVCPoint@@@Z 004a4dd0 f   TaskPane.obj
 0001:000a3e00       ?OnCommand@CIBATaskPane@@UAEHIJ@Z 004a4e00 f   TaskPane.obj
 0001:000a3e20       ?PreTranslateMessage@CIBATaskPane@@UAEHPAUtagMSG@@@Z 004a4e20 f   TaskPane.obj
 0001:000a3ef0       ?OnCtlColor@CIBATaskPane@@QAEPAUHBRUSH__@@PAVCDC@@PAVCWnd@@I@Z 004a4ef0 f   TaskPane.obj
 0001:000a3fd0       ?OnEnSetfocusEditNetbarNotice@CIBATaskPane@@QAEXXZ 004a4fd0 f   TaskPane.obj
 0001:000a4080       ?OnEnKillfocusEditNetbarNotice@CIBATaskPane@@QAEXXZ 004a5080 f   TaskPane.obj
 0001:000a4130       ?StartThead@CThreadHelpper@@SAXP6GKPAX@Z@Z 004a5130 f   ThreadHelpper.obj
 0001:000a4160       ?GetSysConfig@CThreadHelpper@@SGKPAX@Z 004a5160 f   ThreadHelpper.obj
 0001:000a46a0       ?SetTelVerify@CNetBarConfig@@QAEXI@Z 004a56a0 f i ThreadHelpper.obj
 0001:000a46c0       ?CreateObject@CIBAFastlaneButton@@SGPAVCObject@@XZ 004a56c0 f   ToolBarLabel.obj
 0001:000a4730       ?GetThisClass@CIBAFastlaneButton@@SGPAUCRuntimeClass@@XZ 004a5730 f   ToolBarLabel.obj
 0001:000a4740       ?GetRuntimeClass@CIBAFastlaneButton@@UBEPAUCRuntimeClass@@XZ 004a5740 f   ToolBarLabel.obj
 0001:000a4750       ??0CIBAFastlaneButton@@QAE@XZ 004a5750 f   ToolBarLabel.obj
 0001:000a47b0       ??_ECIBAFastlaneButton@@UAEPAXI@Z 004a57b0 f i ToolBarLabel.obj
 0001:000a47b0       ??_GCIBAFastlaneButton@@UAEPAXI@Z 004a57b0 f i ToolBarLabel.obj
 0001:000a47e0       ??0CIBAFastlaneButton@@QAE@PAVCBCGPToolBar@@@Z 004a57e0 f   ToolBarLabel.obj
 0001:000a4860       ??1CIBAFastlaneButton@@UAE@XZ 004a5860 f   ToolBarLabel.obj
 0001:000a48c0       ?CopyFrom@CIBAFastlaneButton@@UAEXABVCBCGPToolbarButton@@@Z 004a58c0 f   ToolBarLabel.obj
 0001:000a48c0       ?CopyFrom@CIdentityToolbarButton@@UAEXABVCBCGPToolbarButton@@@Z 004a58c0 f   IdentityToolbarButton.obj
 0001:000a48e0       ?CreateCtrlWnd@CIBAFastlaneButton@@MAEHXZ 004a58e0 f   ToolBarLabel.obj
 0001:000a49d0       ?OnCalculateSize@CIBAFastlaneButton@@MAE?AUtagSIZE@@PAVCDC@@ABVCSize@@H@Z 004a59d0 f   ToolBarLabel.obj
 0001:000a4a40       ??0CIBAFastLane@@QAE@XZ    004a5a40 f   ToolBarLabel.obj
 0001:000a4aa0       ?MakeLocalSerialNo@CBuckleAmountMethod@NS_SERVLET@@MAEIXZ 004a5aa0 f i BuckleAmountMethod.obj
 0001:000a4aa0       ?OnSetCursor@CBCGPGridButtonItem@@MBEHXZ 004a5aa0 f i AllCheckOut.obj
 0001:000a4aa0       ?RobFocusAfterSwipingCard@CRealNameBase@NS_REALNAME@@UAEHXZ 004a5aa0 f i RealNameBase.obj
 0001:000a4aa0       ?IsScanEnabled@CWDRealName@NS_REALNAME@@UAEHXZ 004a5aa0 f i WDRealName.obj
 0001:000a4aa0       ?IsRealNameExtendMenuEnabled@CRealNameBase@NS_REALNAME@@UAEHXZ 004a5aa0 f i RealNameBase.obj
 0001:000a4aa0       ?MakeLocalSerialNo@CCheckout2Method@NS_SERVLET@@MAEIXZ 004a5aa0 f i Checkout2Method.obj
 0001:000a4aa0       ?Run@CWDRealName@NS_REALNAME@@EAEHXZ 004a5aa0 f i WDRealName.obj
 0001:000a4aa0       ?AllowChangeTextLabels@CIBAFastLane@@UBEHXZ 004a5aa0 f i ToolBarLabel.obj
 0001:000a4aa0       ?NeedToCheckRegisterData@CRealNameBase@NS_REALNAME@@UAEHXZ 004a5aa0 f i RealNameBase.obj
 0001:000a4aa0       ?IsMenuEnabled@CJQRealName@NS_REALNAME@@UAEHXZ 004a5aa0 f i JQRealName.obj
 0001:000a4aa0       ?GetMarginTopBottom@CStaticRollText@NS_COMMON@@MAEHXZ 004a5aa0 f i StaticRollText.obj
 0001:000a4aa0       ?IsMenuEnabled@CRealNameBase@NS_REALNAME@@UAEHXZ 004a5aa0 f i RealNameBase.obj
 0001:000a4ab0       ??_ECIBAFastLane@@UAEPAXI@Z 004a5ab0 f i ToolBarLabel.obj
 0001:000a4ab0       ??_GCIBAFastLane@@UAEPAXI@Z 004a5ab0 f i ToolBarLabel.obj
 0001:000a4ae0       ??1CIBAFastLane@@UAE@XZ    004a5ae0 f   ToolBarLabel.obj
 0001:000a4b40       ?ReplaceButtons@CIBAFastLane@@QAEXXZ 004a5b40 f   ToolBarLabel.obj
 0001:000a4bc0       ?CreateFastLane@CIBAFastLane@@QAEHPAVCWnd@@@Z 004a5bc0 f   ToolBarLabel.obj
 0001:000a4cd0       ?AdjustLayout@CIBAFastLane@@UAEXXZ 004a5cd0 f   ToolBarLabel.obj
 0001:000a4d00       ?ComboSetFocus@CIBAFastLane@@QAEXXZ 004a5d00 f   ToolBarLabel.obj
 0001:000a4d30       ?ComboHasFocus@CIBAFastLane@@QAEHXZ 004a5d30 f   ToolBarLabel.obj
 0001:000a4d90       ?GetComboHwnd@CIBAFastLane@@QAEPAUHWND__@@XZ 004a5d90 f   ToolBarLabel.obj
 0001:000a4dc0       ?RobFocus@CIBAFastLane@@QAEHPAUtagMSG@@@Z 004a5dc0 f   ToolBarLabel.obj
 0001:000a5020       ?GetDlgFastLane@CIBAFastLane@@QAEPAVCDlgIBAFastlane@@XZ 004a6020 f   ToolBarLabel.obj
 0001:000a5080       ?ThreadRun@CIBAFastLane@@QAEXXZ 004a6080 f   ToolBarLabel.obj
 0001:000a55c0       ?StartThread@CIBAFastLane@@QAEXXZ 004a65c0 f   ToolBarLabel.obj
 0001:000a5600       ??0?$CThreadTemplate@VCIBAFastLane@@X@NS_COMMON@@QAE@XZ 004a6600 f i ToolBarLabel.obj
 0001:000a5640       ?SetCallBack@?$CThreadTemplate@VCBrokenNetwork@@X@NS_COMMON@@QAEXPAVCBrokenNetwork@@P83@AEXXZ@Z 004a6640 f i BrokenNetwork.obj
 0001:000a5640       ?SetCallBack@?$CThreadTemplate@VCIBAFastLane@@X@NS_COMMON@@QAEXPAVCIBAFastLane@@P83@AEXXZ@Z 004a6640 f i ToolBarLabel.obj
 0001:000a5640       ?SetCallBack@?$CThreadTemplate@VCLocalCenter@@X@NS_COMMON@@QAEXPAVCLocalCenter@@P83@AEXXZ@Z 004a6640 f i LocalCenter.obj
 0001:000a5640       ?SetCallBack@?$CThreadTemplate@VCNetBarConfig@@X@NS_COMMON@@QAEXPAVCNetBarConfig@@P83@AEXXZ@Z 004a6640 f i NetBarConfig.obj
 0001:000a5640       ?SetCallBack@?$CThreadTemplate@VCWxMiddlewareImpl@@X@NS_COMMON@@QAEXPAVCWxMiddlewareImpl@@P83@AEXXZ@Z 004a6640 f i WxMiddlewareImpl.obj
 0001:000a5660       ?GetRuntimeClass@CSetPageOfTTS@@UBEPAUCRuntimeClass@@XZ 004a6660 f   TTSSetPage.obj
 0001:000a5670       ??0CSetPageOfTTS@@QAE@XZ   004a6670 f   TTSSetPage.obj
 0001:000a5740       ??_ECSetPageOfTTS@@UAEPAXI@Z 004a6740 f i TTSSetPage.obj
 0001:000a5740       ??_GCSetPageOfTTS@@UAEPAXI@Z 004a6740 f i TTSSetPage.obj
 0001:000a5770       ??1CSetPageOfTTS@@UAE@XZ   004a6770 f   TTSSetPage.obj
 0001:000a5800       ?DoDataExchange@CSetPageOfTTS@@MAEXPAVCDataExchange@@@Z 004a6800 f   TTSSetPage.obj
 0001:000a58b0       ?GetMessageMap@CSetPageOfTTS@@MBEPBUAFX_MSGMAP@@XZ 004a68b0 f   TTSSetPage.obj
 0001:000a58c0       ?OnInitDialog@CSetPageOfTTS@@MAEHXZ 004a68c0 f   TTSSetPage.obj
 0001:000a5ab0       ?GetReminderBalance@CNetBarConfig@@QAE?BHXZ 004a6ab0 f i TTSSetPage.obj
 0001:000a5ad0       ?GetEnableTTS@CIBAConfig@@QBEHXZ 004a6ad0 f i TTSSetPage.obj
 0001:000a5af0       ?GetTTSVol@CIBAConfig@@QBEHXZ 004a6af0 f i TTSSetPage.obj
 0001:000a5b10       ?GetTTSVoice@CIBAConfig@@QBEHXZ 004a6b10 f i TTSSetPage.obj
 0001:000a5b30       ??1CIBAShiftReport@@QAE@XZ 004a6b30 f i OffDutyDlg.obj
 0001:000a5b30       ??1CSpeechVoice@NS_TTS@@QAE@XZ 004a6b30 f i TTSSetPage.obj
 0001:000a5b30       ??1CSpeechObjectTokens@NS_TTS@@QAE@XZ 004a6b30 f i TTSSetPage.obj
 0001:000a5b30       ??1CSpeechObjectToken@NS_TTS@@QAE@XZ 004a6b30 f i TTSSetPage.obj
 0001:000a5b50       ?OnOK@CSetPageOfTTS@@MAEXXZ 004a6b50 f   TTSSetPage.obj
 0001:000a5c10       ?SetEnableTTS@CIBAConfig@@QAEXH@Z 004a6c10 f i TTSSetPage.obj
 0001:000a5c30       ?SetTTSVol@CIBAConfig@@QAEXH@Z 004a6c30 f i TTSSetPage.obj
 0001:000a5c50       ?SetTTSVoice@CIBAConfig@@QAEXH@Z 004a6c50 f i TTSSetPage.obj
 0001:000a5c70       ?OnBnClickedButtonTts@CSetPageOfTTS@@IAEXXZ 004a6c70 f   TTSSetPage.obj
 0001:000a5d20       ?OnBnClickedCheckTts@CSetPageOfTTS@@IAEXXZ 004a6d20 f   TTSSetPage.obj
 0001:000a5de0       ?SetRangeMin@CSliderCtrl@@QAEXHH@Z 004a6de0 f i TTSSetPage.obj
 0001:000a5e10       ?SetRangeMax@CSliderCtrl@@QAEXHH@Z 004a6e10 f i TTSSetPage.obj
 0001:000a5e40       ?GetPos@CSliderCtrl@@QBEHXZ 004a6e40 f i TTSSetPage.obj
 0001:000a5e70       ?SetPos@CSliderCtrl@@QAEXH@Z 004a6e70 f i TTSSetPage.obj
 0001:000a5ea0       ?GetRuntimeClass@CUnlockScreenDlg@@UBEPAUCRuntimeClass@@XZ 004a6ea0 f   UnlockScreenDlg.obj
 0001:000a5eb0       ??0CUnlockScreenDlg@@QAE@PAVCWnd@@@Z 004a6eb0 f   UnlockScreenDlg.obj
 0001:000a5ef0       ??_GCUnlockScreenDlg@@UAEPAXI@Z 004a6ef0 f i UnlockScreenDlg.obj
 0001:000a5ef0       ??_ECUnlockScreenDlg@@UAEPAXI@Z 004a6ef0 f i UnlockScreenDlg.obj
 0001:000a5f20       ??1CUnlockScreenDlg@@UAE@XZ 004a6f20 f   UnlockScreenDlg.obj
 0001:000a5f50       ?DoDataExchange@CUnlockScreenDlg@@MAEXPAVCDataExchange@@@Z 004a6f50 f   UnlockScreenDlg.obj
 0001:000a5f50       ?DoDataExchange@CDlgInputUserPwd@@MAEXPAVCDataExchange@@@Z 004a6f50 f   DlgInputUserPwd.obj
 0001:000a5f50       ?DoDataExchange@CDlgBossPwd@@MAEXPAVCDataExchange@@@Z 004a6f50 f   BossPwdDlg.obj
 0001:000a5f90       ?GetMessageMap@CUnlockScreenDlg@@MBEPBUAFX_MSGMAP@@XZ 004a6f90 f   UnlockScreenDlg.obj
 0001:000a5fa0       ?OnInitDialog@CUnlockScreenDlg@@MAEHXZ 004a6fa0 f   UnlockScreenDlg.obj
 0001:000a6020       ?OnBnClickedOk@CUnlockScreenDlg@@IAEXXZ 004a7020 f   UnlockScreenDlg.obj
 0001:000a6070       ?SetPasswordChar@CEdit@@QAEX_W@Z 004a7070 f i UnlockScreenDlg.obj
 0001:000a60a0       ?CreateObject@CWebBrowser@@SGPAVCObject@@XZ 004a70a0 f   WebBrowser.obj
 0001:000a6110       ?GetRuntimeClass@CWebBrowser@@UBEPAUCRuntimeClass@@XZ 004a7110 f   WebBrowser.obj
 0001:000a6120       ??0CWebBrowser@@QAE@XZ     004a7120 f   WebBrowser.obj
 0001:000a6150       ??_ECWebBrowser@@UAEPAXI@Z 004a7150 f i WebBrowser.obj
 0001:000a6150       ??_GCWebBrowser@@UAEPAXI@Z 004a7150 f i WebBrowser.obj
 0001:000a6180       ??1CWebBrowser@@UAE@XZ     004a7180 f   WebBrowser.obj
 0001:000a61a0       ?GetMessageMap@CWebBrowser@@MBEPBUAFX_MSGMAP@@XZ 004a71a0 f   WebBrowser.obj
 0001:000a61b0       ?OnTitleChange@CWebBrowser@@MAEXPB_W@Z 004a71b0 f   WebBrowser.obj
 0001:000a61d0       ?OnDocumentComplete@CWebBrowser@@MAEXPB_W@Z 004a71d0 f   WebBrowser.obj
 0001:000a61f0       ?OnDestroy@CWebBrowser@@IAEXXZ 004a71f0 f   WebBrowser.obj
 0001:000a6230       ?PreTranslateMessage@CWebBrowser@@MAEHPAUtagMSG@@@Z 004a7230 f   WebBrowser.obj
 0001:000a6280       ?Release@?$CComPtrBase@UIWebBrowser2@@@ATL@@QAEXXZ 004a7280 f i WebBrowser.obj
 0001:000a62b0       ??0CActivationMethod@NS_SERVLET@@QAE@XZ 004a72b0 f   ActivationMethod.obj
 0001:000a6320       ??_GCActivationMethod@NS_SERVLET@@UAEPAXI@Z 004a7320 f i ActivationMethod.obj
 0001:000a6320       ??_ECActivationMethod@NS_SERVLET@@UAEPAXI@Z 004a7320 f i ActivationMethod.obj
 0001:000a6350       ??1CActivationMethod@NS_SERVLET@@UAE@XZ 004a7350 f   ActivationMethod.obj
 0001:000a6370       ?AddParams@CActivationMethod@NS_SERVLET@@IAEXXZ 004a7370 f   ActivationMethod.obj
 0001:000a6460       ?SetMode@CActivationMethod@NS_SERVLET@@QAEXI@Z 004a7460 f   ActivationMethod.obj
 0001:000a64a0       ??0CAssetStatusMethod@NS_SERVLET@@QAE@XZ 004a74a0 f   AssetStatusMethod.obj
 0001:000a6510       ??_ECAssetStatusMethod@NS_SERVLET@@UAEPAXI@Z 004a7510 f i AssetStatusMethod.obj
 0001:000a6510       ??_GCAssetStatusMethod@NS_SERVLET@@UAEPAXI@Z 004a7510 f i AssetStatusMethod.obj
 0001:000a6540       ??1CAssetStatusMethod@NS_SERVLET@@UAE@XZ 004a7540 f   AssetStatusMethod.obj
 0001:000a6560       ?AddParams@CAssetStatusMethod@NS_SERVLET@@IAEXXZ 004a7560 f   AssetStatusMethod.obj
 0001:000a65f0       ?SetTermId@CAssetStatusMethod@NS_SERVLET@@QAEXV?$CStringT@_WV?$StrTraitMFC_DLL@_WV?$ChTraitsCRT@_W@ATL@@@@@ATL@@@Z 004a75f0 f   AssetStatusMethod.obj
 0001:000a66c0       ?SetAssetId@CAssetStatusMethod@NS_SERVLET@@QAEXI@Z 004a76c0 f   AssetStatusMethod.obj
 0001:000a6700       ?SetAssetStatus@CAssetStatusMethod@NS_SERVLET@@QAEXV?$CStringT@_WV?$StrTraitMFC_DLL@_WV?$ChTraitsCRT@_W@ATL@@@@@ATL@@@Z 004a7700 f   AssetStatusMethod.obj
 0001:000a6790       ??0CBalanceMethod@NS_SERVLET@@QAE@XZ 004a7790 f   BalanceMethod.obj
 0001:000a6800       ??_GCBalanceMethod@NS_SERVLET@@UAEPAXI@Z 004a7800 f i BalanceMethod.obj
 0001:000a6800       ??_ECBalanceMethod@NS_SERVLET@@UAEPAXI@Z 004a7800 f i BalanceMethod.obj
 0001:000a6830       ??1CBalanceMethod@NS_SERVLET@@UAE@XZ 004a7830 f   BalanceMethod.obj
 0001:000a6850       ?GetMethodName@CBalanceMethod@NS_SERVLET@@MAE?AV?$CStringT@_WV?$StrTraitMFC_DLL@_WV?$ChTraitsCRT@_W@ATL@@@@@ATL@@XZ 004a7850 f   BalanceMethod.obj
 0001:000a68f0       ?AddParams@CBalanceMethod@NS_SERVLET@@IAEXXZ 004a78f0 f   BalanceMethod.obj
 0001:000a69e0       ?SetMemberId@CBalanceMethod@NS_SERVLET@@QAEXI@Z 004a79e0 f   BalanceMethod.obj
 0001:000a6a20       ?SetRound@CBalanceMethod@NS_SERVLET@@QAEXI@Z 004a7a20 f   BalanceMethod.obj
 0001:000a6a60       ?SetCardId@CBalanceMethod@NS_SERVLET@@QAEXI@Z 004a7a60 f   BalanceMethod.obj
 0001:000a6aa0       ?SetOnlineInFact@CBalanceMethod@NS_SERVLET@@QAEXI@Z 004a7aa0 f   BalanceMethod.obj
 0001:000a6ae0       ?GetCardId@CBalanceMethod@NS_SERVLET@@QAEIXZ 004a7ae0 f   BalanceMethod.obj
 0001:000a6b40       ?AddRespFields@CBalanceMethod@NS_SERVLET@@IAEXXZ 004a7b40 f   BalanceMethod.obj
 0001:000a7370       ?GetOnline@CBalanceMethod@NS_SERVLET@@QAEIXZ 004a8370 f   BalanceMethod.obj
 0001:000a73b0       ?GetBalance@CBalanceMethod@NS_SERVLET@@QAEHXZ 004a83b0 f   BalanceMethod.obj
 0001:000a73f0       ?GetOnlineAmount@CBalanceMethod@NS_SERVLET@@QAEIXZ 004a83f0 f   BalanceMethod.obj
 0001:000a7430       ?GetNetBarId@CBalanceMethod@NS_SERVLET@@QAEIXZ 004a8430 f   BalanceMethod.obj
 0001:000a7430       ?GetNetBarId@CBundleTimeActionMethod@NS_SERVLET@@QAEIXZ 004a8430 f   BundleTimeActionMethod.obj
 0001:000a7470       ?GetCreditPresent@CBalanceMethod@NS_SERVLET@@QAEHXZ 004a8470 f   BalanceMethod.obj
 0001:000a7470       ?GetCreditPresent@CCreditReverseMethod@NS_SERVLET@@QAEHXZ 004a8470 f   CreditReverseMethod.obj
 0001:000a7470       ?GetCreditPresent@CCardCreditMethod@NS_SERVLET@@QAEIXZ 004a8470 f   CardCreditMethod.obj
 0001:000a7470       ?GetCreditPresent@CCreditMethod@NS_SERVLET@@QAEIXZ 004a8470 f   CreditMethod.obj
 0001:000a7470       ?GetCreditPresent@CRegisterMethod@NS_SERVLET@@QAEIXZ 004a8470 f   RegisterMethod.obj
 0001:000a74b0       ?GetUsePresent@CBalanceMethod@NS_SERVLET@@QAEHXZ 004a84b0 f   BalanceMethod.obj
 0001:000a74f0       ?GetUserClass@CBalanceMethod@NS_SERVLET@@QAEIXZ 004a84f0 f   BalanceMethod.obj
 0001:000a7530       ?GetGuarantyMoney@CBalanceMethod@NS_SERVLET@@QAEIXZ 004a8530 f   BalanceMethod.obj
 0001:000a7530       ?GetGuarantyMoney@CDeregisterMethod@NS_SERVLET@@QAEIXZ 004a8530 f   DeregisterMethod.obj
 0001:000a7570       ?GetAccountNetbarId@CBalanceMethod@NS_SERVLET@@QAEIXZ 004a8570 f   BalanceMethod.obj
 0001:000a75b0       ?GetMemberName@CBalanceMethod@NS_SERVLET@@QAE?AV?$CStringT@_WV?$StrTraitMFC_DLL@_WV?$ChTraitsCRT@_W@ATL@@@@@ATL@@XZ 004a85b0 f   BalanceMethod.obj
 0001:000a7600       ?GetUserNameW@CBalanceMethod@NS_SERVLET@@QAE?AV?$CStringT@_WV?$StrTraitMFC_DLL@_WV?$ChTraitsCRT@_W@ATL@@@@@ATL@@XZ 004a8600 f   BalanceMethod.obj
 0001:000a7650       ?GetSex@CBalanceMethod@NS_SERVLET@@QAEIXZ 004a8650 f   BalanceMethod.obj
 0001:000a7690       ?GetPersonalId@CBalanceMethod@NS_SERVLET@@QAE?AV?$CStringT@_WV?$StrTraitMFC_DLL@_WV?$ChTraitsCRT@_W@ATL@@@@@ATL@@XZ 004a8690 f   BalanceMethod.obj
 0001:000a76e0       ?GetIdType@CBalanceMethod@NS_SERVLET@@QAEIXZ 004a86e0 f   BalanceMethod.obj
 0001:000a7720       ?GetSerailNum@CBalanceMethod@NS_SERVLET@@QAE?AV?$CStringT@_WV?$StrTraitMFC_DLL@_WV?$ChTraitsCRT@_W@ATL@@@@@ATL@@XZ 004a8720 f   BalanceMethod.obj
 0001:000a7770       ?GetCurrentPoint@CBalanceMethod@NS_SERVLET@@QAEIXZ 004a8770 f   BalanceMethod.obj
 0001:000a77b0       ?GetCashBalance@CBalanceMethod@NS_SERVLET@@QAEHXZ 004a87b0 f   BalanceMethod.obj
 0001:000a77f0       ?GetReturnAmount@CBalanceMethod@NS_SERVLET@@QAEHXZ 004a87f0 f   BalanceMethod.obj
 0001:000a7830       ?GetTermId@CBalanceMethod@NS_SERVLET@@QAE?AV?$CStringT@_WV?$StrTraitMFC_DLL@_WV?$ChTraitsCRT@_W@ATL@@@@@ATL@@XZ 004a8830 f   BalanceMethod.obj
 0001:000a7880       ?GetIsMember@CBalanceMethod@NS_SERVLET@@QAEIXZ 004a8880 f   BalanceMethod.obj
 0001:000a78c0       ?GetLogoutTime@CBalanceMethod@NS_SERVLET@@QAE?AV?$CStringT@_WV?$StrTraitMFC_DLL@_WV?$ChTraitsCRT@_W@ATL@@@@@ATL@@XZ 004a88c0 f   BalanceMethod.obj
 0001:000a7910       ?GetEpsk@CBalanceMethod@NS_SERVLET@@QAE?AV?$CStringT@_WV?$StrTraitMFC_DLL@_WV?$ChTraitsCRT@_W@ATL@@@@@ATL@@XZ 004a8910 f   BalanceMethod.obj
 0001:000a7a00       ?GetPayType@CBundleTimeActionMethod@NS_SERVLET@@QAEIXZ 004a8a00 f   BundleTimeActionMethod.obj
 0001:000a7a00       ?GetPayType@CBalanceMethod@NS_SERVLET@@QAEIXZ 004a8a00 f   BalanceMethod.obj
 0001:000a7a40       ?GetEndTime@CBundleTimeMethod@NS_SERVLET@@QAE?AV?$CStringT@_WV?$StrTraitMFC_DLL@_WV?$ChTraitsCRT@_W@ATL@@@@@ATL@@XZ 004a8a40 f   BundleTimeMethod.obj
 0001:000a7a40       ?GetEndTime@CBalanceMethod@NS_SERVLET@@QAE?AV?$CStringT@_WV?$StrTraitMFC_DLL@_WV?$ChTraitsCRT@_W@ATL@@@@@ATL@@XZ 004a8a40 f   BalanceMethod.obj
 0001:000a7a40       ?GetEndTime@CBundleTimeActionMethod@NS_SERVLET@@QAE?AV?$CStringT@_WV?$StrTraitMFC_DLL@_WV?$ChTraitsCRT@_W@ATL@@@@@ATL@@XZ 004a8a40 f   BundleTimeActionMethod.obj
 0001:000a7a90       ?GetPrice@CBalanceMethod@NS_SERVLET@@QAEIXZ 004a8a90 f   BalanceMethod.obj
 0001:000a7ad0       ?GetOpenNetbarId@CBalanceMethod@NS_SERVLET@@QAEIXZ 004a8ad0 f   BalanceMethod.obj
 0001:000a7b10       ?GetAllowReturn@CBalanceMethod@NS_SERVLET@@QAEIXZ 004a8b10 f   BalanceMethod.obj
 0001:000a7b50       ?GetDisallowLogout@CBalanceMethod@NS_SERVLET@@QAEIXZ 004a8b50 f   BalanceMethod.obj
 0001:000a7b90       ?GetLastConsumeAmount@CBalanceMethod@NS_SERVLET@@QAEHXZ 004a8b90 f   BalanceMethod.obj
 0001:000a7bd0       ?GetPassword@CBalanceMethod@NS_SERVLET@@QAE?AV?$CStringT@_WV?$StrTraitMFC_DLL@_WV?$ChTraitsCRT@_W@ATL@@@@@ATL@@XZ 004a8bd0 f   BalanceMethod.obj
 0001:000a7d00       ?GetNeedActivation@CBalanceMethod@NS_SERVLET@@QAEIXZ 004a8d00 f   BalanceMethod.obj
 0001:000a7d40       ?GetTotalBalacne@CBalanceMethod@NS_SERVLET@@QAEHXZ 004a8d40 f   BalanceMethod.obj
 0001:000a7d80       ?GetServerTime@CBalanceMethod@NS_SERVLET@@QAE?AV?$CStringT@_WV?$StrTraitMFC_DLL@_WV?$ChTraitsCRT@_W@ATL@@@@@ATL@@XZ 004a8d80 f   BalanceMethod.obj
 0001:000a7d80       ?GetServerTimeAsString@CGetTimeMethod@NS_SERVLET@@QAE?AV?$CStringT@_WV?$StrTraitMFC_DLL@_WV?$ChTraitsCRT@_W@ATL@@@@@ATL@@XZ 004a8d80 f   CommonMethod.obj
 0001:000a7d80       ?GetServerTime@CCashRegisterLoginMethod@NS_SERVLET@@QAE?AV?$CStringT@_WV?$StrTraitMFC_DLL@_WV?$ChTraitsCRT@_W@ATL@@@@@ATL@@XZ 004a8d80 f   CashRegisterLoginMethod.obj
 0001:000a7dd0       ?IsNetbarMember@CBalanceMethod@NS_SERVLET@@QAEHXZ 004a8dd0 f   BalanceMethod.obj
 0001:000a7e10       ?GetIdDepart@CBalanceMethod@NS_SERVLET@@QAE?AV?$CStringT@_WV?$StrTraitMFC_DLL@_WV?$ChTraitsCRT@_W@ATL@@@@@ATL@@XZ 004a8e10 f   BalanceMethod.obj
 0001:000a7e60       ?GetAddress@CBalanceMethod@NS_SERVLET@@QAE?AV?$CStringT@_WV?$StrTraitMFC_DLL@_WV?$ChTraitsCRT@_W@ATL@@@@@ATL@@XZ 004a8e60 f   BalanceMethod.obj
 0001:000a7eb0       ?GetTel@CBalanceMethod@NS_SERVLET@@QAE?AV?$CStringT@_WV?$StrTraitMFC_DLL@_WV?$ChTraitsCRT@_W@ATL@@@@@ATL@@XZ 004a8eb0 f   BalanceMethod.obj
 0001:000a7f00       ?GetJob@CBalanceMethod@NS_SERVLET@@QAE?AV?$CStringT@_WV?$StrTraitMFC_DLL@_WV?$ChTraitsCRT@_W@ATL@@@@@ATL@@XZ 004a8f00 f   BalanceMethod.obj
 0001:000a7f50       ??0CBuckleAmountMethod@NS_SERVLET@@QAE@XZ 004a8f50 f   BuckleAmountMethod.obj
 0001:000a7fc0       ??_ECBuckleAmountMethod@NS_SERVLET@@UAEPAXI@Z 004a8fc0 f i BuckleAmountMethod.obj
 0001:000a7fc0       ??_GCBuckleAmountMethod@NS_SERVLET@@UAEPAXI@Z 004a8fc0 f i BuckleAmountMethod.obj
 0001:000a7ff0       ??1CBuckleAmountMethod@NS_SERVLET@@UAE@XZ 004a8ff0 f   BuckleAmountMethod.obj
 0001:000a8010       ?AddParams@CBuckleAmountMethod@NS_SERVLET@@IAEXXZ 004a9010 f   BuckleAmountMethod.obj
 0001:000a8180       ?SetMemberId@CBuckleAmountMethod@NS_SERVLET@@QAEXI@Z 004a9180 f   BuckleAmountMethod.obj
 0001:000a8180       ?SetMemberId@CCheckout2Method@NS_SERVLET@@QAEXI@Z 004a9180 f   Checkout2Method.obj
 0001:000a81c0       ?SetCheckinTime@CBuckleAmountMethod@NS_SERVLET@@QAEXV?$CStringT@_WV?$StrTraitMFC_DLL@_WV?$ChTraitsCRT@_W@ATL@@@@@ATL@@@Z 004a91c0 f   BuckleAmountMethod.obj
 0001:000a8250       ?SetCheckoutTime@CBuckleAmountMethod@NS_SERVLET@@QAEXV?$CStringT@_WV?$StrTraitMFC_DLL@_WV?$ChTraitsCRT@_W@ATL@@@@@ATL@@@Z 004a9250 f   BuckleAmountMethod.obj
 0001:000a82e0       ?SetOperator@CBuckleAmountMethod@NS_SERVLET@@QAEXV?$CStringT@_WV?$StrTraitMFC_DLL@_WV?$ChTraitsCRT@_W@ATL@@@@@ATL@@@Z 004a92e0 f   BuckleAmountMethod.obj
 0001:000a8370       ?SetBuckleAmount@CBuckleAmountMethod@NS_SERVLET@@QAEXI@Z 004a9370 f   BuckleAmountMethod.obj
 0001:000a83d0       ?SetTermId@CBuckleAmountMethod@NS_SERVLET@@QAEXV?$CStringT@_WV?$StrTraitMFC_DLL@_WV?$ChTraitsCRT@_W@ATL@@@@@ATL@@@Z 004a93d0 f   BuckleAmountMethod.obj
 0001:000a8460       ??0CBundleTime2Method@NS_SERVLET@@QAE@XZ 004a9460 f   BundleTime2Method.obj
 0001:000a84d0       ??_ECBundleTime2Method@NS_SERVLET@@UAEPAXI@Z 004a94d0 f i BundleTime2Method.obj
 0001:000a84d0       ??_GCBundleTime2Method@NS_SERVLET@@UAEPAXI@Z 004a94d0 f i BundleTime2Method.obj
 0001:000a8500       ??1CBundleTime2Method@NS_SERVLET@@UAE@XZ 004a9500 f   BundleTime2Method.obj
 0001:000a8520       ?AddParams@CBundleTime2Method@NS_SERVLET@@IAEXXZ 004a9520 f   BundleTime2Method.obj
 0001:000a8610       ?SetTermId@CBundleTime2Method@NS_SERVLET@@QAEXV?$CStringT@_WV?$StrTraitMFC_DLL@_WV?$ChTraitsCRT@_W@ATL@@@@@ATL@@@Z 004a9610 f   BundleTime2Method.obj
 0001:000a86a0       ?SetOperator@CBundleTime2Method@NS_SERVLET@@QAEXV?$CStringT@_WV?$StrTraitMFC_DLL@_WV?$ChTraitsCRT@_W@ATL@@@@@ATL@@@Z 004a96a0 f   BundleTime2Method.obj
 0001:000a8730       ?AddRespFields@CBundleTime2Method@NS_SERVLET@@IAEXXZ 004a9730 f   BundleTime2Method.obj
 0001:000a87a0       ??0CBundleTimeActionMethod@NS_SERVLET@@QAE@XZ 004a97a0 f   BundleTimeActionMethod.obj
 0001:000a8810       ??_ECBundleTimeActionMethod@NS_SERVLET@@UAEPAXI@Z 004a9810 f i BundleTimeActionMethod.obj
 0001:000a8810       ??_GCBundleTimeActionMethod@NS_SERVLET@@UAEPAXI@Z 004a9810 f i BundleTimeActionMethod.obj
 0001:000a8840       ??1CBundleTimeActionMethod@NS_SERVLET@@UAE@XZ 004a9840 f   BundleTimeActionMethod.obj
 0001:000a8860       ?AddParams@CBundleTimeActionMethod@NS_SERVLET@@IAEXXZ 004a9860 f   BundleTimeActionMethod.obj
 0001:000a88e0       ?AddRespFields@CBundleTimeActionMethod@NS_SERVLET@@IAEXXZ 004a98e0 f   BundleTimeActionMethod.obj
 0001:000a8ab0       ?GetPcClass@CBundleTimeActionMethod@NS_SERVLET@@QAEIXZ 004a9ab0 f   BundleTimeActionMethod.obj
 0001:000a8af0       ?GetStartTime@CBalanceMethod@NS_SERVLET@@QAE?AV?$CStringT@_WV?$StrTraitMFC_DLL@_WV?$ChTraitsCRT@_W@ATL@@@@@ATL@@XZ 004a9af0 f   BalanceMethod.obj
 0001:000a8af0       ?GetStartTime@CBundleTimeMethod@NS_SERVLET@@QAE?AV?$CStringT@_WV?$StrTraitMFC_DLL@_WV?$ChTraitsCRT@_W@ATL@@@@@ATL@@XZ 004a9af0 f   BundleTimeMethod.obj
 0001:000a8af0       ?GetStartTime@CBundleTimeActionMethod@NS_SERVLET@@QAE?AV?$CStringT@_WV?$StrTraitMFC_DLL@_WV?$ChTraitsCRT@_W@ATL@@@@@ATL@@XZ 004a9af0 f   BundleTimeActionMethod.obj
 0001:000a8b40       ?GetAmount1@CBundleTimeActionMethod@NS_SERVLET@@QAEIXZ 004a9b40 f   BundleTimeActionMethod.obj
 0001:000a8b80       ?GetAmount2@CBundleTimeActionMethod@NS_SERVLET@@QAEIXZ 004a9b80 f   BundleTimeActionMethod.obj
 0001:000a8bc0       ?GetTimeId@CBundleTimeActionMethod@NS_SERVLET@@QAEIXZ 004a9bc0 f   BundleTimeActionMethod.obj
 0001:000a8c00       ??0CBundleTimeInfo2@NS_SERVLET@@QAE@XZ 004a9c00 f   BundleTimeList2Method.obj
 0001:000a8d50       ?GetMode@CBundleTimeInfo2@NS_SERVLET@@QAEIXZ 004a9d50 f   BundleTimeList2Method.obj
 0001:000a8d80       ?GetStartTime@CBundleTimeInfo2@NS_SERVLET@@QAE?AV?$CStringT@_WV?$StrTraitMFC_DLL@_WV?$ChTraitsCRT@_W@ATL@@@@@ATL@@XZ 004a9d80 f   BundleTimeList2Method.obj
 0001:000a8de0       ?GetEndTime@CBundleTimeInfo2@NS_SERVLET@@QAE?AV?$CStringT@_WV?$StrTraitMFC_DLL@_WV?$ChTraitsCRT@_W@ATL@@@@@ATL@@XZ 004a9de0 f   BundleTimeList2Method.obj
 0001:000a8e40       ?GetDays@CBundleTimeInfo2@NS_SERVLET@@QAEIXZ 004a9e40 f   BundleTimeList2Method.obj
 0001:000a8e70       ?GetPrice@CBundleTimeInfo2@NS_SERVLET@@QAEIXZ 004a9e70 f   BundleTimeList2Method.obj
 0001:000a8e70       ?GetPrice@CBundleTimeInfo@NS_SERVLET@@QAEIXZ 004a9e70 f   BundleTimeListMethod.obj
 0001:000a8ea0       ?FormatCenterTime@CBundleTimeInfo2@NS_SERVLET@@IAE?AV?$CStringT@_WV?$StrTraitMFC_DLL@_WV?$ChTraitsCRT@_W@ATL@@@@@ATL@@V34@@Z 004a9ea0 f   BundleTimeList2Method.obj
 0001:000a8f40       ??0CBundleTimeList2Method@NS_SERVLET@@QAE@XZ 004a9f40 f   BundleTimeList2Method.obj
 0001:000a8fc0       ??_GCBundleTimeList2Method@NS_SERVLET@@UAEPAXI@Z 004a9fc0 f i BundleTimeList2Method.obj
 0001:000a8fc0       ??_ECBundleTimeList2Method@NS_SERVLET@@UAEPAXI@Z 004a9fc0 f i BundleTimeList2Method.obj
 0001:000a8ff0       ??1CBundleTimeList2Method@NS_SERVLET@@UAE@XZ 004a9ff0 f   BundleTimeList2Method.obj
 0001:000a9050       ?AddParams@CBundleTimeList2Method@NS_SERVLET@@IAEXXZ 004aa050 f   BundleTimeList2Method.obj
 0001:000a90d0       ?SetOperator@CBundleTimeList2Method@NS_SERVLET@@QAEXV?$CStringT@_WV?$StrTraitMFC_DLL@_WV?$ChTraitsCRT@_W@ATL@@@@@ATL@@@Z 004aa0d0 f   BundleTimeList2Method.obj
 0001:000a9160       ?AddRespFields@CBundleTimeListMethod@NS_SERVLET@@IAEXXZ 004aa160 f   BundleTimeListMethod.obj
 0001:000a9160       ?AddRespFields@CBundleTimeList2Method@NS_SERVLET@@IAEXXZ 004aa160 f   BundleTimeList2Method.obj
 0001:000a9160       ?AddRespFields@CNetbarRoomMethod@NS_SERVLET@@IAEXXZ 004aa160 f   NetBarRoomMethod.obj
 0001:000a91a0       ?GetBundleId@CBundleTimeListMethod@NS_SERVLET@@QAEIH@Z 004aa1a0 f   BundleTimeListMethod.obj
 0001:000a91a0       ?GetBundleId@CBundleTimeList2Method@NS_SERVLET@@QAEIH@Z 004aa1a0 f   BundleTimeList2Method.obj
 0001:000a91d0       ?GetStartTime@CBundleTimeList2Method@NS_SERVLET@@QAE?AV?$CStringT@_WV?$StrTraitMFC_DLL@_WV?$ChTraitsCRT@_W@ATL@@@@@ATL@@H@Z 004aa1d0 f   BundleTimeList2Method.obj
 0001:000a9210       ?GetEndTime@CBundleTimeList2Method@NS_SERVLET@@QAE?AV?$CStringT@_WV?$StrTraitMFC_DLL@_WV?$ChTraitsCRT@_W@ATL@@@@@ATL@@H@Z 004aa210 f   BundleTimeList2Method.obj
 0001:000a9250       ?GetMode@CBundleTimeList2Method@NS_SERVLET@@QAEIH@Z 004aa250 f   BundleTimeList2Method.obj
 0001:000a9280       ?GetDays@CBundleTimeList2Method@NS_SERVLET@@QAEIH@Z 004aa280 f   BundleTimeList2Method.obj
 0001:000a92b0       ?GetPrice@CBundleTimeList2Method@NS_SERVLET@@QAEIH@Z 004aa2b0 f   BundleTimeList2Method.obj
 0001:000a92b0       ?GetPrice@CBundleTimeListMethod@NS_SERVLET@@QAEIH@Z 004aa2b0 f   BundleTimeListMethod.obj
 0001:000a92e0       ?DecodeResp@CBundleTimeList2Method@NS_SERVLET@@MAEHV?$CStringT@_WV?$StrTraitMFC_DLL@_WV?$ChTraitsCRT@_W@ATL@@@@@ATL@@@Z 004aa2e0 f   BundleTimeList2Method.obj
 0001:000a9440       ??0?$CArray@VCBundleTimeInfo2@NS_SERVLET@@V12@@@QAE@XZ 004aa440 f i BundleTimeList2Method.obj
 0001:000a9490       ?SetSize@?$CArray@VCBundleTimeInfo2@NS_SERVLET@@V12@@@QAEXHH@Z 004aa490 f i BundleTimeList2Method.obj
 0001:000a98d0       ?RemoveAll@?$CArray@VCBundleTimeInfo2@NS_SERVLET@@V12@@@QAEXXZ 004aa8d0 f i BundleTimeList2Method.obj
 0001:000a98f0       ??1?$CArray@VCBundleTimeInfo2@NS_SERVLET@@V12@@@UAE@XZ 004aa8f0 f i BundleTimeList2Method.obj
 0001:000a9990       ?Serialize@?$CArray@VCBundleTimeInfo2@NS_SERVLET@@V12@@@UAEXAAVCArchive@@@Z 004aa990 f i BundleTimeList2Method.obj
 0001:000a9a00       ??_G?$CArray@VCBundleTimeInfo2@NS_SERVLET@@V12@@@UAEPAXI@Z 004aaa00 f i BundleTimeList2Method.obj
 0001:000a9a00       ??_E?$CArray@VCBundleTimeInfo2@NS_SERVLET@@V12@@@UAEPAXI@Z 004aaa00 f i BundleTimeList2Method.obj
 0001:000a9a30       ??0CBundleTimeListMethod@NS_SERVLET@@QAE@XZ 004aaa30 f   BundleTimeListMethod.obj
 0001:000a9ab0       ??_GCBundleTimeListMethod@NS_SERVLET@@UAEPAXI@Z 004aaab0 f i BundleTimeListMethod.obj
 0001:000a9ab0       ??_ECBundleTimeListMethod@NS_SERVLET@@UAEPAXI@Z 004aaab0 f i BundleTimeListMethod.obj
 0001:000a9ae0       ??1CBundleTimeListMethod@NS_SERVLET@@UAE@XZ 004aaae0 f   BundleTimeListMethod.obj
 0001:000a9b40       ?AddParams@CBundleTimeListMethod@NS_SERVLET@@IAEXXZ 004aab40 f   BundleTimeListMethod.obj
 0001:000a9c30       ?SetClassId@CBundleTimeListMethod@NS_SERVLET@@QAEXI@Z 004aac30 f   BundleTimeListMethod.obj
 0001:000a9c30       ?SetClassId@CDetailDataMethod@NS_SERVLET@@QAEXI@Z 004aac30 f   DetailDataMethod.obj
 0001:000a9c70       ?SetPosition@CBundleTimeListMethod@NS_SERVLET@@QAEXI@Z 004aac70 f   BundleTimeListMethod.obj
 0001:000a9cb0       ?SetOperator@CBundleTimeListMethod@NS_SERVLET@@QAEXV?$CStringT@_WV?$StrTraitMFC_DLL@_WV?$ChTraitsCRT@_W@ATL@@@@@ATL@@@Z 004aacb0 f   BundleTimeListMethod.obj
 0001:000a9d40       ?DecodeResp@CBundleTimeListMethod@NS_SERVLET@@MAEHV?$CStringT@_WV?$StrTraitMFC_DLL@_WV?$ChTraitsCRT@_W@ATL@@@@@ATL@@@Z 004aad40 f   BundleTimeListMethod.obj
 0001:000a9ea0       ?GetBundleType@CBundleTimeListMethod@NS_SERVLET@@QAEIH@Z 004aaea0 f   BundleTimeListMethod.obj
 0001:000a9ed0       ?GetStartTime@CBundleTimeListMethod@NS_SERVLET@@QAE?AV?$CStringT@_WV?$StrTraitMFC_DLL@_WV?$ChTraitsCRT@_W@ATL@@@@@ATL@@H@Z 004aaed0 f   BundleTimeListMethod.obj
 0001:000a9f10       ?GetEndTime@CBundleTimeListMethod@NS_SERVLET@@QAE?AV?$CStringT@_WV?$StrTraitMFC_DLL@_WV?$ChTraitsCRT@_W@ATL@@@@@ATL@@H@Z 004aaf10 f   BundleTimeListMethod.obj
 0001:000a9f50       ?GetTimePass@CBundleTimeListMethod@NS_SERVLET@@QAEIH@Z 004aaf50 f   BundleTimeListMethod.obj
 0001:000a9f80       ?GetBundleIdTime@CBundleTimeListMethod@NS_SERVLET@@QAEHHAAV?$CStringT@_WV?$StrTraitMFC_DLL@_WV?$ChTraitsCRT@_W@ATL@@@@@ATL@@0@Z 004aaf80 f   BundleTimeListMethod.obj
 0001:000aa0b0       ??0CBundleTimeInfo@NS_SERVLET@@QAE@XZ 004ab0b0 f   BundleTimeListMethod.obj
 0001:000aa200       ?GetBundleId@CBundleTimeInfo2@NS_SERVLET@@QAEIXZ 004ab200 f   BundleTimeList2Method.obj
 0001:000aa200       ?GetBundleId@CBundleTimeInfo@NS_SERVLET@@QAEIXZ 004ab200 f   BundleTimeListMethod.obj
 0001:000aa230       ?GetBundleType@CBundleTimeInfo@NS_SERVLET@@QAEIXZ 004ab230 f   BundleTimeListMethod.obj
 0001:000aa260       ?GetStartTime@CBundleTimeInfo@NS_SERVLET@@QAE?AV?$CStringT@_WV?$StrTraitMFC_DLL@_WV?$ChTraitsCRT@_W@ATL@@@@@ATL@@XZ 004ab260 f   BundleTimeListMethod.obj
 0001:000aa2c0       ?GetEndTime@CBundleTimeInfo@NS_SERVLET@@QAE?AV?$CStringT@_WV?$StrTraitMFC_DLL@_WV?$ChTraitsCRT@_W@ATL@@@@@ATL@@XZ 004ab2c0 f   BundleTimeListMethod.obj
 0001:000aa320       ?GetTimePass@CBundleTimeInfo@NS_SERVLET@@QAEIXZ 004ab320 f   BundleTimeListMethod.obj
 0001:000aa350       ?GetDescription@CBundleTimeInfo@NS_SERVLET@@QAE?AV?$CStringT@_WV?$StrTraitMFC_DLL@_WV?$ChTraitsCRT@_W@ATL@@@@@ATL@@XZ 004ab350 f   BundleTimeListMethod.obj
 0001:000aa350       ?GetDescription@CBundleTimeInfo2@NS_SERVLET@@QAE?AV?$CStringT@_WV?$StrTraitMFC_DLL@_WV?$ChTraitsCRT@_W@ATL@@@@@ATL@@XZ 004ab350 f   BundleTimeList2Method.obj
 0001:000aa350       ?GetDescription@CConsumeInfo@NS_SERVLET@@QAE?AV?$CStringT@_WV?$StrTraitMFC_DLL@_WV?$ChTraitsCRT@_W@ATL@@@@@ATL@@XZ 004ab350 f   ConsumeListMethod.obj
 0001:000aa3a0       ?FormatCenterTime@CBundleTimeInfo@NS_SERVLET@@IAE?AV?$CStringT@_WV?$StrTraitMFC_DLL@_WV?$ChTraitsCRT@_W@ATL@@@@@ATL@@V34@@Z 004ab3a0 f   BundleTimeListMethod.obj
 0001:000aa440       ??0?$CArray@VCBundleTimeInfo@NS_SERVLET@@V12@@@QAE@XZ 004ab440 f i BundleTimeListMethod.obj
 0001:000aa490       ?SetSize@?$CArray@VCBundleTimeInfo@NS_SERVLET@@V12@@@QAEXHH@Z 004ab490 f i BundleTimeListMethod.obj
 0001:000aa8d0       ?RemoveAll@?$CArray@VCBundleTimeInfo@NS_SERVLET@@V12@@@QAEXXZ 004ab8d0 f i BundleTimeListMethod.obj
 0001:000aa8f0       ??1?$CArray@VCBundleTimeInfo@NS_SERVLET@@V12@@@UAE@XZ 004ab8f0 f i BundleTimeListMethod.obj
 0001:000aa990       ?Serialize@?$CArray@VCBundleTimeInfo@NS_SERVLET@@V12@@@UAEXAAVCArchive@@@Z 004ab990 f i BundleTimeListMethod.obj
 0001:000aaa00       ??_G?$CArray@VCBundleTimeInfo@NS_SERVLET@@V12@@@UAEPAXI@Z 004aba00 f i BundleTimeListMethod.obj
 0001:000aaa00       ??_E?$CArray@VCBundleTimeInfo@NS_SERVLET@@V12@@@UAEPAXI@Z 004aba00 f i BundleTimeListMethod.obj
 0001:000aaa30       ??0CBundleTimeMethod@NS_SERVLET@@QAE@XZ 004aba30 f   BundleTimeMethod.obj
 0001:000aaaa0       ??_GCBundleTimeMethod@NS_SERVLET@@UAEPAXI@Z 004abaa0 f i BundleTimeMethod.obj
 0001:000aaaa0       ??_ECBundleTimeMethod@NS_SERVLET@@UAEPAXI@Z 004abaa0 f i BundleTimeMethod.obj
 0001:000aaad0       ??1CBundleTimeMethod@NS_SERVLET@@UAE@XZ 004abad0 f   BundleTimeMethod.obj
 0001:000aaaf0       ?AddParams@CBundleTimeMethod@NS_SERVLET@@IAEXXZ 004abaf0 f   BundleTimeMethod.obj
 0001:000aace0       ?SetBeginTime@CBundleTimeMethod@NS_SERVLET@@QAEXV?$CStringT@_WV?$StrTraitMFC_DLL@_WV?$ChTraitsCRT@_W@ATL@@@@@ATL@@@Z 004abce0 f   BundleTimeMethod.obj
 0001:000aad70       ?SetBundleAmount@CBundleTimeMethod@NS_SERVLET@@QAEXI@Z 004abd70 f   BundleTimeMethod.obj
 0001:000aad70       ?SetBundleAmount@CRegisterMethod@NS_SERVLET@@QAEXI@Z 004abd70 f   RegisterDlg.obj
 0001:000aadb0       ?SetAccountType@CRegisterMethod@NS_SERVLET@@QAEXI@Z 004abdb0 f   RegisterDlg.obj
 0001:000aadb0       ?SetAccountType@CBundleTimeMethod@NS_SERVLET@@QAEXI@Z 004abdb0 f   BundleTimeMethod.obj
 0001:000aadb0       ?SetAccountType@CCreditDirectMethod@NS_SERVLET@@QAEXI@Z 004abdb0 f   CreditDirectMethod.obj
 0001:000aadf0       ?SetNetbarId@CBundleTimeMethod@NS_SERVLET@@QAEXI@Z 004abdf0 f   BundleTimeMethod.obj
 0001:000aae30       ?SetTimeId@CRegisterMethod@NS_SERVLET@@QAEXI@Z 004abe30 f   RegisterDlg.obj
 0001:000aae30       ?SetTimeId@CBundleTimeMethod@NS_SERVLET@@QAEXI@Z 004abe30 f   BundleTimeMethod.obj
 0001:000aae30       ?SetTimeId@CBundleTime2Method@NS_SERVLET@@QAEXI@Z 004abe30 f   BundleTime2Method.obj
 0001:000aae70       ?SetPCClass@CRoomCheckOut@NS_SERVLET@@QAEXI@Z 004abe70 f   RoomCheckOut.obj
 0001:000aae70       ?SetPcClass@CRegisterMethod@NS_SERVLET@@QAEXI@Z 004abe70 f   RegisterDlg.obj
 0001:000aae70       ?SetPcClass@CBundleTimeMethod@NS_SERVLET@@QAEXI@Z 004abe70 f   BundleTimeMethod.obj
 0001:000aae70       ?SetPcClass@CBuckleAmountMethod@NS_SERVLET@@QAEXI@Z 004abe70 f   BuckleAmountMethod.obj
 0001:000aaeb0       ?SetOperator@CBundleTimeMethod@NS_SERVLET@@QAEXV?$CStringT@_WV?$StrTraitMFC_DLL@_WV?$ChTraitsCRT@_W@ATL@@@@@ATL@@@Z 004abeb0 f   BundleTimeMethod.obj
 0001:000aaf40       ?SetReserve@CBundleTimeMethod@NS_SERVLET@@QAEXI@Z 004abf40 f   BundleTimeMethod.obj
 0001:000aaf80       ?AddRespFields@CBundleTimeMethod@NS_SERVLET@@IAEXXZ 004abf80 f   BundleTimeMethod.obj
 0001:000ab080       ?GetAmount@CBundleTimeMethod@NS_SERVLET@@QAEIXZ 004ac080 f   BundleTimeMethod.obj
 0001:000ab0c0       ?GetNeedRelogin@CBundleTimeMethod@NS_SERVLET@@QAEHXZ 004ac0c0 f   BundleTimeMethod.obj
 0001:000ab100       ??0CCancelBundleTimeMethod@NS_SERVLET@@QAE@XZ 004ac100 f   CancelBundleTimeMethod.obj
 0001:000ab170       ??_ECCancelBundleTimeMethod@NS_SERVLET@@UAEPAXI@Z 004ac170 f i CancelBundleTimeMethod.obj
 0001:000ab170       ??_GCCancelBundleTimeMethod@NS_SERVLET@@UAEPAXI@Z 004ac170 f i CancelBundleTimeMethod.obj
 0001:000ab1a0       ??1CCancelBundleTimeMethod@NS_SERVLET@@UAE@XZ 004ac1a0 f   CancelBundleTimeMethod.obj
 0001:000ab1c0       ?AddParams@CCancelBundleTimeMethod@NS_SERVLET@@IAEXXZ 004ac1c0 f   CancelBundleTimeMethod.obj
 0001:000ab240       ?SetNetBarId@CCheckout2Method@NS_SERVLET@@QAEXI@Z 004ac240 f   Checkout2Method.obj
 0001:000ab240       ?SetNetBarId@CDeregisterMethod@NS_SERVLET@@QAEXI@Z 004ac240 f   DeregisterMethod.obj
 0001:000ab240       ?SetNetBarId@CMergeMemberMethod@NS_SERVLET@@QAEXI@Z 004ac240 f   MergeMemberMethod.obj
 0001:000ab240       ?SetNetBarId@CUsePointMethod@NS_SERVLET@@QAEXI@Z 004ac240 f   UsePointMethod.obj
 0001:000ab240       ?SetNetBarId@CBuckleAmountMethod@NS_SERVLET@@QAEXI@Z 004ac240 f   BuckleAmountMethod.obj
 0001:000ab240       ?SetNetBarId@CCancelBundleTimeMethod@NS_SERVLET@@QAEXI@Z 004ac240 f   CancelBundleTimeMethod.obj
 0001:000ab280       ?SetOperator@CCancelBundleTimeMethod@NS_SERVLET@@QAEXV?$CStringT@_WV?$StrTraitMFC_DLL@_WV?$ChTraitsCRT@_W@ATL@@@@@ATL@@@Z 004ac280 f   CancelBundleTimeMethod.obj
 0001:000ab310       ??0CCardCreditMethod@NS_SERVLET@@QAE@XZ 004ac310 f   CardCreditMethod.obj
 0001:000ab380       ??_GCCardCreditMethod@NS_SERVLET@@UAEPAXI@Z 004ac380 f i CardCreditMethod.obj
 0001:000ab380       ??_ECCardCreditMethod@NS_SERVLET@@UAEPAXI@Z 004ac380 f i CardCreditMethod.obj
 0001:000ab3b0       ??1CCardCreditMethod@NS_SERVLET@@UAE@XZ 004ac3b0 f   CardCreditMethod.obj
 0001:000ab3d0       ?AddParams@CCardCreditMethod@NS_SERVLET@@IAEXXZ 004ac3d0 f   CardCreditMethod.obj
 0001:000ab5a0       ?SetCategory@CCardCreditMethod@NS_SERVLET@@QAEXV?$CStringT@_WV?$StrTraitMFC_DLL@_WV?$ChTraitsCRT@_W@ATL@@@@@ATL@@@Z 004ac5a0 f   CardCreditMethod.obj
 0001:000ab630       ?SetCardSerial@CCardCreditMethod@NS_SERVLET@@QAEXV?$CStringT@_WV?$StrTraitMFC_DLL@_WV?$ChTraitsCRT@_W@ATL@@@@@ATL@@@Z 004ac630 f   CardCreditMethod.obj
 0001:000ab6c0       ?SetCardPwd@CCardCreditMethod@NS_SERVLET@@QAEXV?$CStringT@_WV?$StrTraitMFC_DLL@_WV?$ChTraitsCRT@_W@ATL@@@@@ATL@@@Z 004ac6c0 f   CardCreditMethod.obj
 0001:000ab900       ?SetAmount@CCardCreditMethod@NS_SERVLET@@QAEXI@Z 004ac900 f   CardCreditMethod.obj
 0001:000ab900       ?SetAmount@CCreditMethod@NS_SERVLET@@QAEXI@Z 004ac900 f   CreditMethod.obj
 0001:000ab940       ?SetOperator@CCardCreditMethod@NS_SERVLET@@QAEXV?$CStringT@_WV?$StrTraitMFC_DLL@_WV?$ChTraitsCRT@_W@ATL@@@@@ATL@@@Z 004ac940 f   CardCreditMethod.obj
 0001:000ab9d0       ?SetCashRegisterId@CRoomCheckOut@NS_SERVLET@@QAEXI@Z 004ac9d0 f   RoomCheckOut.obj
 0001:000ab9d0       ?SetCashRegisterId@CRoomCheckIn@NS_SERVLET@@QAEXI@Z 004ac9d0 f   RoomCheckIn.obj
 0001:000ab9d0       ?SetCashRegisterId@CBundleTimeMethod@NS_SERVLET@@QAEXI@Z 004ac9d0 f   BundleTimeMethod.obj
 0001:000ab9d0       ?SetCashRegisterId@CCardCreditMethod@NS_SERVLET@@QAEXI@Z 004ac9d0 f   CardCreditMethod.obj
 0001:000ab9d0       ?SetCashRegisterId@CCreditMethod@NS_SERVLET@@QAEXI@Z 004ac9d0 f   CreditMethod.obj
 0001:000ab9d0       ?SetCashRegisterId@CDeregisterMethod@NS_SERVLET@@QAEXI@Z 004ac9d0 f   DeregisterMethod.obj
 0001:000ab9d0       ?SetCashRegisterId@CCreditDirectMethod@NS_SERVLET@@QAEXI@Z 004ac9d0 f   CreditDirectMethod.obj
 0001:000ab9d0       ?SetCashRegisterId@CCreditReverseMethod@NS_SERVLET@@QAEXI@Z 004ac9d0 f   CreditReverseMethod.obj
 0001:000ab9d0       ?SetCashRegisterId@COnDutyMethod@NS_SERVLET@@QAEXI@Z 004ac9d0 f   DutyMethod.obj
 0001:000ab9d0       ?SetCashRegisterId@CRetailMethod@NS_SERVLET@@QAEXI@Z 004ac9d0 f   RetailMethod.obj
 0001:000ab9d0       ?SetCashRegisterId@CCardReplaceMethod@NS_SERVLET@@QAEXI@Z 004ac9d0 f   CardReplaceMethod.obj
 0001:000ab9d0       ?SetCashRegisterId@COffDutyMethod@NS_SERVLET@@QAEXI@Z 004ac9d0 f   DutyMethod.obj
 0001:000ab9d0       ?SetCashRegisterId@CCashRegisterLoginMethod@NS_SERVLET@@QAEXI@Z 004ac9d0 f   CashRegisterLoginMethod.obj
 0001:000ab9d0       ?SetCashRegisterId@CMergeMemberMethod@NS_SERVLET@@QAEXI@Z 004ac9d0 f   MergeMemberMethod.obj
 0001:000ab9d0       ?SetCashRegisterId@CRegisterMethod@NS_SERVLET@@QAEXI@Z 004ac9d0 f   RegisterMethod.obj
 0001:000ab9d0       ?SetCashRegisterId@CStoreInMethod@NS_SERVLET@@QAEXI@Z 004ac9d0 f   StoreInMethod.obj
 0001:000ab9d0       ?SetCashRegisterId@CRetailOnlineMethod@NS_SERVLET@@QAEXI@Z 004ac9d0 f   RetailMethod.obj
 0001:000aba10       ?AddRespFields@CCardCreditMethod@NS_SERVLET@@IAEXXZ 004aca10 f   CardCreditMethod.obj
 0001:000abb10       ??0CCardReplaceMethod@NS_SERVLET@@QAE@XZ 004acb10 f   CardReplaceMethod.obj
 0001:000abb80       ??_ECCardReplaceMethod@NS_SERVLET@@UAEPAXI@Z 004acb80 f i CardReplaceMethod.obj
 0001:000abb80       ??_GCCardReplaceMethod@NS_SERVLET@@UAEPAXI@Z 004acb80 f i CardReplaceMethod.obj
 0001:000abbb0       ??1CCardReplaceMethod@NS_SERVLET@@UAE@XZ 004acbb0 f   CardReplaceMethod.obj
 0001:000abbd0       ?AddParams@CCardReplaceMethod@NS_SERVLET@@IAEXXZ 004acbd0 f   CardReplaceMethod.obj
 0001:000abd80       ?SetPersonalId@CCardReplaceMethod@NS_SERVLET@@QAEXV?$CStringT@_WV?$StrTraitMFC_DLL@_WV?$ChTraitsCRT@_W@ATL@@@@@ATL@@@Z 004acd80 f   CardReplaceMethod.obj
 0001:000abe10       ?SetOpenNetbarId@CCardReplaceMethod@NS_SERVLET@@QAEXI@Z 004ace10 f   CardReplaceMethod.obj
 0001:000abe50       ?SetMemberName@CCardReplaceMethod@NS_SERVLET@@QAEXV?$CStringT@_WV?$StrTraitMFC_DLL@_WV?$ChTraitsCRT@_W@ATL@@@@@ATL@@@Z 004ace50 f   CardReplaceMethod.obj
 0001:000abee0       ?SetPassword@CCardReplaceMethod@NS_SERVLET@@QAEXV?$CStringT@_WV?$StrTraitMFC_DLL@_WV?$ChTraitsCRT@_W@ATL@@@@@ATL@@@Z 004acee0 f   CardReplaceMethod.obj
 0001:000ac000       ?SetOperator@CCardReplaceMethod@NS_SERVLET@@QAEXV?$CStringT@_WV?$StrTraitMFC_DLL@_WV?$ChTraitsCRT@_W@ATL@@@@@ATL@@@Z 004ad000 f   CardReplaceMethod.obj
 0001:000ac090       ?AddRespFields@CCardReplaceMethod@NS_SERVLET@@IAEXXZ 004ad090 f   CardReplaceMethod.obj
 0001:000ac170       ?GetMethodName@CCardReplaceMethod@NS_SERVLET@@MAE?AV?$CStringT@_WV?$StrTraitMFC_DLL@_WV?$ChTraitsCRT@_W@ATL@@@@@ATL@@XZ 004ad170 f   CardReplaceMethod.obj
 0001:000ac210       ??0CCashRegisterLoginMethod@NS_SERVLET@@QAE@XZ 004ad210 f   CashRegisterLoginMethod.obj
 0001:000ac2e0       ??_GCCashRegisterLoginMethod@NS_SERVLET@@UAEPAXI@Z 004ad2e0 f i CashRegisterLoginMethod.obj
 0001:000ac2e0       ??_ECCashRegisterLoginMethod@NS_SERVLET@@UAEPAXI@Z 004ad2e0 f i CashRegisterLoginMethod.obj
 0001:000ac310       ??1CCashRegisterLoginMethod@NS_SERVLET@@UAE@XZ 004ad310 f   CashRegisterLoginMethod.obj
 0001:000ac370       ?AddParams@CCashRegisterLoginMethod@NS_SERVLET@@IAEXXZ 004ad370 f   CashRegisterLoginMethod.obj
 0001:000ac490       ?SetCashRegisterType@CCashRegisterLoginMethod@NS_SERVLET@@QAEXI@Z 004ad490 f   CashRegisterLoginMethod.obj
 0001:000ac4d0       ?SetUserId@CCashRegisterLoginMethod@NS_SERVLET@@QAEXV?$CStringT@_WV?$StrTraitMFC_DLL@_WV?$ChTraitsCRT@_W@ATL@@@@@ATL@@@Z 004ad4d0 f   CashRegisterLoginMethod.obj
 0001:000ac560       ?SetPassword@CCashRegisterLoginMethod@NS_SERVLET@@QAEXV?$CStringT@_WV?$StrTraitMFC_DLL@_WV?$ChTraitsCRT@_W@ATL@@@@@ATL@@@Z 004ad560 f   CashRegisterLoginMethod.obj
 0001:000ac620       ?SetCashRegisterVersion@CCashRegisterLoginMethod@NS_SERVLET@@QAEXV?$CStringT@_WV?$StrTraitMFC_DLL@_WV?$ChTraitsCRT@_W@ATL@@@@@ATL@@@Z 004ad620 f   CashRegisterLoginMethod.obj
 0001:000ac6b0       ?SetTimeChuo@CCashRegisterLoginMethod@NS_SERVLET@@QAEXI@Z 004ad6b0 f   CashRegisterLoginMethod.obj
 0001:000ac6f0       ?SetCheckCode@CCashRegisterLoginMethod@NS_SERVLET@@QAEXV?$CStringT@_WV?$StrTraitMFC_DLL@_WV?$ChTraitsCRT@_W@ATL@@@@@ATL@@@Z 004ad6f0 f   CashRegisterLoginMethod.obj
 0001:000ac780       ?SetPCName@CCashRegisterLoginMethod@NS_SERVLET@@QAEXV?$CStringT@_WV?$StrTraitMFC_DLL@_WV?$ChTraitsCRT@_W@ATL@@@@@ATL@@@Z 004ad780 f   CashRegisterLoginMethod.obj
 0001:000ac7a0       ?AddRespFields@CCashRegisterLoginMethod@NS_SERVLET@@IAEXXZ 004ad7a0 f   CashRegisterLoginMethod.obj
 0001:000ace80       ?GetDomainId@CCashRegisterLoginMethod@NS_SERVLET@@QAEIXZ 004ade80 f   CashRegisterLoginMethod.obj
 0001:000acec0       ?GetMainHost@CCashRegisterLoginMethod@NS_SERVLET@@QAE?AV?$CStringT@_WV?$StrTraitMFC_DLL@_WV?$ChTraitsCRT@_W@ATL@@@@@ATL@@XZ 004adec0 f   CashRegisterLoginMethod.obj
 0001:000acf10       ?GetBackupHost@CCashRegisterLoginMethod@NS_SERVLET@@QAE?AV?$CStringT@_WV?$StrTraitMFC_DLL@_WV?$ChTraitsCRT@_W@ATL@@@@@ATL@@XZ 004adf10 f   CashRegisterLoginMethod.obj
 0001:000acf60       ?GetClassCount@CCashRegisterLoginMethod@NS_SERVLET@@QAEIXZ 004adf60 f   CashRegisterLoginMethod.obj
 0001:000acfa0       ?GetClassInfoW@CCashRegisterLoginMethod@NS_SERVLET@@QAE?AV?$CStringT@_WV?$StrTraitMFC_DLL@_WV?$ChTraitsCRT@_W@ATL@@@@@ATL@@XZ 004adfa0 f   CashRegisterLoginMethod.obj
 0001:000acff0       ?GetReturnOnlyClassId@CCashRegisterLoginMethod@NS_SERVLET@@QAEIXZ 004adff0 f   CashRegisterLoginMethod.obj
 0001:000ad030       ?GetDodoNewHost@CCashRegisterLoginMethod@NS_SERVLET@@QAE?AV?$CStringT@_WV?$StrTraitMFC_DLL@_WV?$ChTraitsCRT@_W@ATL@@@@@ATL@@XZ 004ae030 f   CashRegisterLoginMethod.obj
 0001:000ad080       ?GetDodonewResource@CCashRegisterLoginMethod@NS_SERVLET@@QAE?AV?$CStringT@_WV?$StrTraitMFC_DLL@_WV?$ChTraitsCRT@_W@ATL@@@@@ATL@@XZ 004ae080 f   CashRegisterLoginMethod.obj
 0001:000ad0d0       ?GetUpdateInterval@CCashRegisterLoginMethod@NS_SERVLET@@QAEIXZ 004ae0d0 f   CashRegisterLoginMethod.obj
 0001:000ad110       ?GetForeRealName@CCashRegisterLoginMethod@NS_SERVLET@@QAEIXZ 004ae110 f   CashRegisterLoginMethod.obj
 0001:000ad150       ?GetDutyId@COnDutyMethod@NS_SERVLET@@QAEIXZ 004ae150 f   DutyMethod.obj
 0001:000ad150       ?GetDutyId@CCashRegisterLoginMethod@NS_SERVLET@@QAEIXZ 004ae150 f   CashRegisterLoginMethod.obj
 0001:000ad190       ?GetOndutyTime@CCashRegisterLoginMethod@NS_SERVLET@@QAE?AV?$CStringT@_WV?$StrTraitMFC_DLL@_WV?$ChTraitsCRT@_W@ATL@@@@@ATL@@XZ 004ae190 f   CashRegisterLoginMethod.obj
 0001:000ad1e0       ?GetQueryHost@CCashRegisterLoginMethod@NS_SERVLET@@QAE?AV?$CStringT@_WV?$StrTraitMFC_DLL@_WV?$ChTraitsCRT@_W@ATL@@@@@ATL@@XZ 004ae1e0 f   CashRegisterLoginMethod.obj
 0001:000ad230       ?GetQueryHost2@CCashRegisterLoginMethod@NS_SERVLET@@QAE?AV?$CStringT@_WV?$StrTraitMFC_DLL@_WV?$ChTraitsCRT@_W@ATL@@@@@ATL@@XZ 004ae230 f   CashRegisterLoginMethod.obj
 0001:000ad280       ?GetAuditType@CCashRegisterLoginMethod@NS_SERVLET@@QAEIXZ 004ae280 f   CashRegisterLoginMethod.obj
 0001:000ad2c0       ?GetPopupURL@CCashRegisterLoginMethod@NS_SERVLET@@QAE?AV?$CStringT@_WV?$StrTraitMFC_DLL@_WV?$ChTraitsCRT@_W@ATL@@@@@ATL@@XZ 004ae2c0 f   CashRegisterLoginMethod.obj
 0001:000ad310       ?GetAgentMobilePhone@CCashRegisterLoginMethod@NS_SERVLET@@QAE?AV?$CStringT@_WV?$StrTraitMFC_DLL@_WV?$ChTraitsCRT@_W@ATL@@@@@ATL@@XZ 004ae310 f   CashRegisterLoginMethod.obj
 0001:000ad360       ?GetAgentRegularTel@CCashRegisterLoginMethod@NS_SERVLET@@QAE?AV?$CStringT@_WV?$StrTraitMFC_DLL@_WV?$ChTraitsCRT@_W@ATL@@@@@ATL@@XZ 004ae360 f   CashRegisterLoginMethod.obj
 0001:000ad3b0       ?GetAgentName@CCashRegisterLoginMethod@NS_SERVLET@@QAE?AV?$CStringT@_WV?$StrTraitMFC_DLL@_WV?$ChTraitsCRT@_W@ATL@@@@@ATL@@XZ 004ae3b0 f   CashRegisterLoginMethod.obj
 0001:000ad400       ?GetSoftwareType@CCashRegisterLoginMethod@NS_SERVLET@@QAEIXZ 004ae400 f   CashRegisterLoginMethod.obj
 0001:000ad440       ?GetNoIDCardIn@CCashRegisterLoginMethod@NS_SERVLET@@QAEIXZ 004ae440 f   CashRegisterLoginMethod.obj
 0001:000ad480       ?GetIssueNetBarId@CCashRegisterLoginMethod@NS_SERVLET@@QAEIXZ 004ae480 f   CashRegisterLoginMethod.obj
 0001:000ad4c0       ?GetAllowNoCardLogin@CCashRegisterLoginMethod@NS_SERVLET@@QAEIXZ 004ae4c0 f   CashRegisterLoginMethod.obj
 0001:000ad500       ?GetRealNameFrom@CCashRegisterLoginMethod@NS_SERVLET@@QAEIXZ 004ae500 f   CashRegisterLoginMethod.obj
 0001:000ad540       ?GetControlOption@CCashRegisterLoginMethod@NS_SERVLET@@QAE?AV?$CStringT@_WV?$StrTraitMFC_DLL@_WV?$ChTraitsCRT@_W@ATL@@@@@ATL@@XZ 004ae540 f   CashRegisterLoginMethod.obj
 0001:000ad590       ?GetNoticeInfo@CCashRegisterLoginMethod@NS_SERVLET@@QAE?AV?$CStringT@_WV?$StrTraitMFC_DLL@_WV?$ChTraitsCRT@_W@ATL@@@@@ATL@@XZ 004ae590 f   CashRegisterLoginMethod.obj
 0001:000ad5e0       ?GetUserPrivileges@CCashRegisterLoginMethod@NS_SERVLET@@QAE?AV?$CStringT@_WV?$StrTraitMFC_DLL@_WV?$ChTraitsCRT@_W@ATL@@@@@ATL@@XZ 004ae5e0 f   CashRegisterLoginMethod.obj
 0001:000ad630       ?GetShiftType@CCashRegisterLoginMethod@NS_SERVLET@@QAEIXZ 004ae630 f   CashRegisterLoginMethod.obj
 0001:000ad6a0       ?SetShiftType@CNetBarConfig@@QAEXI@Z 004ae6a0 f i CashRegisterLoginMethod.obj
 0001:000ad6c0       ?DecodeResp@CCashRegisterLoginMethod@NS_SERVLET@@MAEHV?$CStringT@_WV?$StrTraitMFC_DLL@_WV?$ChTraitsCRT@_W@ATL@@@@@ATL@@@Z 004ae6c0 f   CashRegisterLoginMethod.obj
 0001:000ad9e0       ?GetUserClassInfoArray@CCashRegisterLoginMethod@NS_SERVLET@@QAEXAAV?$CArray@VCUserClassInfo@@AAV1@@@@Z 004ae9e0 f   CashRegisterLoginMethod.obj
 0001:000ada10       ?GetStandbyHost@CCashRegisterLoginMethod@NS_SERVLET@@QAE?AV?$CStringT@_WV?$StrTraitMFC_DLL@_WV?$ChTraitsCRT@_W@ATL@@@@@ATL@@XZ 004aea10 f   CashRegisterLoginMethod.obj
 0001:000ada60       ?GetBundleTimeUseBalance@CCashRegisterLoginMethod@NS_SERVLET@@QAEIXZ 004aea60 f   CashRegisterLoginMethod.obj
 0001:000adaa0       ?GetMustSynchronize@CCashRegisterLoginMethod@NS_SERVLET@@QAEIXZ 004aeaa0 f   CashRegisterLoginMethod.obj
 0001:000adae0       ?GetAllowCreditNegative@CCashRegisterLoginMethod@NS_SERVLET@@QAEIXZ 004aeae0 f   CashRegisterLoginMethod.obj
 0001:000adb20       ?GetIsInternetCafe@CCashRegisterLoginMethod@NS_SERVLET@@QAEIXZ 004aeb20 f   CashRegisterLoginMethod.obj
 0001:000adb60       ?GetCafeAddress@CCashRegisterLoginMethod@NS_SERVLET@@QAE?AV?$CStringT@_WV?$StrTraitMFC_DLL@_WV?$ChTraitsCRT@_W@ATL@@@@@ATL@@XZ 004aeb60 f   CashRegisterLoginMethod.obj
 0001:000adbb0       ??0CCashRegisterLoginMethod_atLogin@NS_SERVLET@@QAE@XZ 004aebb0 f   CashRegisterLoginMethod.obj
 0001:000adbd0       ??_GCCashRegisterLoginMethod_atLogin@NS_SERVLET@@UAEPAXI@Z 004aebd0 f i CashRegisterLoginMethod.obj
 0001:000adbd0       ??_ECCashRegisterLoginMethod_atLogin@NS_SERVLET@@UAEPAXI@Z 004aebd0 f i CashRegisterLoginMethod.obj
 0001:000adc00       ??1CCashRegisterLoginMethod_atLogin@NS_SERVLET@@UAE@XZ 004aec00 f   CashRegisterLoginMethod.obj
 0001:000adc20       ?ExecuteCheckin@CCashRegisterLoginMethod_atLogin@NS_SERVLET@@QAEHXZ 004aec20 f   CashRegisterLoginMethod.obj
 0001:000adfb0       ??0?$CArray@VCUserClassInfo@@AAV1@@@QAE@XZ 004aefb0 f i CashRegisterLoginMethod.obj
 0001:000ae000       ?RemoveAll@?$CArray@VCUserClassInfo@@AAV1@@@QAEXXZ 004af000 f i CashRegisterLoginMethod.obj
 0001:000ae020       ?Add@?$CArray@VCUserClassInfo@@AAV1@@@QAEHAAVCUserClassInfo@@@Z 004af020 f i CashRegisterLoginMethod.obj
 0001:000ae050       ?Copy@?$CArray@VCUserClassInfo@@AAV1@@@QAEXABV1@@Z 004af050 f i CashRegisterLoginMethod.obj
 0001:000ae090       ??1?$CArray@VCUserClassInfo@@AAV1@@@UAE@XZ 004af090 f i CashRegisterLoginMethod.obj
 0001:000ae130       ?Serialize@?$CArray@VCUserClassInfo@@AAV1@@@UAEXAAVCArchive@@@Z 004af130 f i CashRegisterLoginMethod.obj
 0001:000ae1a0       ??_G?$CArray@VCUserClassInfo@@AAV1@@@UAEPAXI@Z 004af1a0 f i CashRegisterLoginMethod.obj
 0001:000ae1a0       ??_E?$CArray@VCUserClassInfo@@AAV1@@@UAEPAXI@Z 004af1a0 f i CashRegisterLoginMethod.obj
 0001:000ae1d0       ??_GCUserClassInfo@@QAEPAXI@Z 004af1d0 f i CashRegisterLoginMethod.obj
 0001:000ae200       ?SetSize@?$CArray@VCUserClassInfo@@AAV1@@@QAEXHH@Z 004af200 f i CashRegisterLoginMethod.obj
 0001:000ae640       ?SetAtGrow@?$CArray@VCUserClassInfo@@AAV1@@@QAEXHAAVCUserClassInfo@@@Z 004af640 f i CashRegisterLoginMethod.obj
 0001:000ae690       ??$CopyElements@VCUserClassInfo@@@@YGXPAVCUserClassInfo@@PBV0@H@Z 004af690 f i CashRegisterLoginMethod.obj
 0001:000ae6e0       ??4CUserClassInfo@@QAEAAV0@ABV0@@Z 004af6e0 f i CashRegisterLoginMethod.obj
 0001:000ae740       ?SetEncryptMode@CCheckInMethod@NS_SERVLET@@QAEXI@Z 004af740 f   CheckInMethod.obj
 0001:000ae780       ?SetClientVersion@CCheckInMethod@NS_SERVLET@@QAEXV?$CStringT@_WV?$StrTraitMFC_DLL@_WV?$ChTraitsCRT@_W@ATL@@@@@ATL@@@Z 004af780 f   CheckInMethod.obj
 0001:000ae810       ??0CCheckout2Method@NS_SERVLET@@QAE@XZ 004af810 f   Checkout2Method.obj
 0001:000ae880       ??_GCCheckout2Method@NS_SERVLET@@UAEPAXI@Z 004af880 f i Checkout2Method.obj
 0001:000ae880       ??_ECCheckout2Method@NS_SERVLET@@UAEPAXI@Z 004af880 f i Checkout2Method.obj
 0001:000ae8b0       ??1CCheckout2Method@NS_SERVLET@@UAE@XZ 004af8b0 f   Checkout2Method.obj
 0001:000ae8d0       ?AddParams@CCheckout2Method@NS_SERVLET@@IAEXXZ 004af8d0 f   Checkout2Method.obj
 0001:000ae9f0       ?SetEndUsingTime@CCheckout2Method@NS_SERVLET@@QAEXV?$CStringT@_WV?$StrTraitMFC_DLL@_WV?$ChTraitsCRT@_W@ATL@@@@@ATL@@@Z 004af9f0 f   Checkout2Method.obj
 0001:000aea80       ?SetSafeLogout@CCheckout2Method@NS_SERVLET@@QAEXI@Z 004afa80 f   Checkout2Method.obj
 0001:000aeac0       ?SetOperator@CCheckout2Method@NS_SERVLET@@QAEXV?$CStringT@_WV?$StrTraitMFC_DLL@_WV?$ChTraitsCRT@_W@ATL@@@@@ATL@@@Z 004afac0 f   Checkout2Method.obj
 0001:000aeb50       ?AddRespFields@CModifyMemberMethod@NS_SERVLET@@IAEXXZ 004afb50 f   ModifyMemberMethod.obj
 0001:000aeb50       ?AddRespFields@CCancelBundleTimeMethod@NS_SERVLET@@IAEXXZ 004afb50 f   CancelBundleTimeMethod.obj
 0001:000aeb50       ?AddRespFields@CAssetStatusMethod@NS_SERVLET@@IAEXXZ 004afb50 f   AssetStatusMethod.obj
 0001:000aeb50       ?AddRespFields@CMergeMemberMethod@NS_SERVLET@@IAEXXZ 004afb50 f   MergeMemberMethod.obj
 0001:000aeb50       ?AddRespFields@CCheckout2Method@NS_SERVLET@@IAEXXZ 004afb50 f   Checkout2Method.obj
 0001:000aeb50       ?AddRespFields@CResetPwdMethod@NS_SERVLET@@IAEXXZ 004afb50 f   ResetPwdMethod.obj
 0001:000aeb50       ?AddRespFields@CBuckleAmountMethod@NS_SERVLET@@IAEXXZ 004afb50 f   BuckleAmountMethod.obj
 0001:000aeb50       ?AddRespFields@CActivationMethod@NS_SERVLET@@IAEXXZ 004afb50 f   ActivationMethod.obj
 0001:000aeb50       ?AddRespFields@CLocalModeMethod@NS_SERVLET@@IAEXXZ 004afb50 f   LocalModeMethod.obj
 0001:000aeb70       ?ExecuteBalance@CBalanceMethod@NS_SERVLET@@QAEHXZ 004afb70 f   BalanceMethod.obj
 0001:000aeb70       ?ExecuteDeregister@CDeregisterMethod@NS_SERVLET@@QAEHXZ 004afb70 f   DeregisterMethod.obj
 0001:000aeb70       ?ExecuteCheckout2@CCheckout2Method@NS_SERVLET@@QAEHXZ 004afb70 f   Checkout2Method.obj
 0001:000aeb90       ??0CStatusMessageMethod@NS_SERVLET@@QAE@XZ 004afb90 f   CommonMethod.obj
 0001:000aec00       ??_ECStatusMessageMethod@NS_SERVLET@@UAEPAXI@Z 004afc00 f i CommonMethod.obj
 0001:000aec00       ??_GCStatusMessageMethod@NS_SERVLET@@UAEPAXI@Z 004afc00 f i CommonMethod.obj
 0001:000aec30       ??1CStatusMessageMethod@NS_SERVLET@@UAE@XZ 004afc30 f   CommonMethod.obj
 0001:000aec50       ?Execute@CStatusMessageMethod@NS_SERVLET@@QAEHXZ 004afc50 f   CommonMethod.obj
 0001:000aec80       ?AddParams@CStatusMessageMethod@NS_SERVLET@@IAEXXZ 004afc80 f   CommonMethod.obj
 0001:000aecc0       ?AddRespFields@CStatusMessageMethod@NS_SERVLET@@IAEXXZ 004afcc0 f   CommonMethod.obj
 0001:000aed00       ?SetStatusCode@CStatusMessageMethod@NS_SERVLET@@QAEXH@Z 004afd00 f   CommonMethod.obj
 0001:000aed40       ?GetMessageW@CStatusMessageMethod@NS_SERVLET@@QAE?AV?$CStringT@_WV?$StrTraitMFC_DLL@_WV?$ChTraitsCRT@_W@ATL@@@@@ATL@@XZ 004afd40 f   CommonMethod.obj
 0001:000aee40       ??0CGetTimeMethod@NS_SERVLET@@QAE@XZ 004afe40 f   CommonMethod.obj
 0001:000aeeb0       ??_GCGetTimeMethod@NS_SERVLET@@UAEPAXI@Z 004afeb0 f i CommonMethod.obj
 0001:000aeeb0       ??_ECGetTimeMethod@NS_SERVLET@@UAEPAXI@Z 004afeb0 f i CommonMethod.obj
 0001:000aeee0       ??1CGetTimeMethod@NS_SERVLET@@UAE@XZ 004afee0 f   CommonMethod.obj
 0001:000aef00       ?AddRespFields@CGetTimeMethod@NS_SERVLET@@IAEXXZ 004aff00 f   CommonMethod.obj
 0001:000aef40       ?MakeMacString@CStatusMessageMethod@NS_SERVLET@@MAE?AV?$CStringT@_WV?$StrTraitMFC_DLL@_WV?$ChTraitsCRT@_W@ATL@@@@@ATL@@V34@@Z 004aff40 f   CommonMethod.obj
 0001:000aef40       ?MakeMacString@CGetTimeMethod@NS_SERVLET@@MAE?AV?$CStringT@_WV?$StrTraitMFC_DLL@_WV?$ChTraitsCRT@_W@ATL@@@@@ATL@@V34@@Z 004aff40 f   CommonMethod.obj
 0001:000aefb0       ?SyncLocalTime@CGetTimeMethod@NS_SERVLET@@QAEHXZ 004affb0 f   CommonMethod.obj
 0001:000af010       ??0CCommonParam@NS_SERVLET@@QAE@XZ 004b0010 f   CommonParam.obj
 0001:000af080       ??_GCCommonParam@NS_SERVLET@@UAEPAXI@Z 004b0080 f i CommonParam.obj
 0001:000af080       ??_ECCommonParam@NS_SERVLET@@UAEPAXI@Z 004b0080 f i CommonParam.obj
 0001:000af0b0       ??1CCommonParam@NS_SERVLET@@UAE@XZ 004b00b0 f   CommonParam.obj
 0001:000af0d0       ?AddParams@CCommonParam@NS_SERVLET@@IAEXXZ 004b00d0 f   CommonParam.obj
 0001:000af130       ?SetNetbarId@CGetSystemConfigMethod@NS_SERVLET@@QAEXH@Z 004b0130 f   GetSystemConfigMethod.obj
 0001:000af130       ?SetNetbarId@CCommonParam@NS_SERVLET@@QAEXH@Z 004b0130 f   CommonParam.obj
 0001:000af170       ?SetParam@CCommonParam@NS_SERVLET@@QAEXV?$CStringT@_WV?$StrTraitMFC_DLL@_WV?$ChTraitsCRT@_W@ATL@@@@@ATL@@@Z 004b0170 f   CommonParam.obj
 0001:000af200       ?AddRespFields@CCommonParam@NS_SERVLET@@IAEXXZ 004b0200 f   CommonParam.obj
 0001:000af240       ?GetCommonRequest@CCommonParam@NS_SERVLET@@QAE?AV?$CStringT@_WV?$StrTraitMFC_DLL@_WV?$ChTraitsCRT@_W@ATL@@@@@ATL@@XZ 004b0240 f   CommonParam.obj
 0001:000af290       ?VerifyResp@CCommonParam@NS_SERVLET@@UAEHV?$CStringT@_WV?$StrTraitMFC_DLL@_WV?$ChTraitsCRT@_W@ATL@@@@@ATL@@@Z 004b0290 f   CommonParam.obj
 0001:000af290       ?VerifyResp@CStatusMessageMethod@NS_SERVLET@@MAEHV?$CStringT@_WV?$StrTraitMFC_DLL@_WV?$ChTraitsCRT@_W@ATL@@@@@ATL@@@Z 004b0290 f   CommonMethod.obj
 0001:000af290       ?VerifyResp@CIDCheckCardMethod@NS_SERVLET@@MAEHV?$CStringT@_WV?$StrTraitMFC_DLL@_WV?$ChTraitsCRT@_W@ATL@@@@@ATL@@@Z 004b0290 f   IDCheckCardMethod.obj
 0001:000af290       ?VerifyResp@CGetTimeMethod@NS_SERVLET@@MAEHV?$CStringT@_WV?$StrTraitMFC_DLL@_WV?$ChTraitsCRT@_W@ATL@@@@@ATL@@@Z 004b0290 f   CommonMethod.obj
 0001:000af2c0       ??0CConsumeInfo@NS_SERVLET@@QAE@XZ 004b02c0 f   ConsumeListMethod.obj
 0001:000af410       ?GetNetBarId@CConsumeInfo@NS_SERVLET@@QAEIXZ 004b0410 f   ConsumeListMethod.obj
 0001:000af440       ?GetConsumeType@CConsumeInfo@NS_SERVLET@@QAEIXZ 004b0440 f   ConsumeListMethod.obj
 0001:000af470       ?GetBeginTime@CConsumeInfo@NS_SERVLET@@QAE?AV?$CStringT@_WV?$StrTraitMFC_DLL@_WV?$ChTraitsCRT@_W@ATL@@@@@ATL@@XZ 004b0470 f   ConsumeListMethod.obj
 0001:000af470       ?GetBeginTime@CTermConsumeInfo@NS_SERVLET@@QAE?AV?$CStringT@_WV?$StrTraitMFC_DLL@_WV?$ChTraitsCRT@_W@ATL@@@@@ATL@@XZ 004b0470 f   TermConsumeMethod.obj
 0001:000af4c0       ?GetEndTime@CConsumeInfo@NS_SERVLET@@QAE?AV?$CStringT@_WV?$StrTraitMFC_DLL@_WV?$ChTraitsCRT@_W@ATL@@@@@ATL@@XZ 004b04c0 f   ConsumeListMethod.obj
 0001:000af4c0       ?GetEndTime@CTermConsumeInfo@NS_SERVLET@@QAE?AV?$CStringT@_WV?$StrTraitMFC_DLL@_WV?$ChTraitsCRT@_W@ATL@@@@@ATL@@XZ 004b04c0 f   TermConsumeMethod.obj
 0001:000af510       ?GetAmount@CConsumeInfo@NS_SERVLET@@QAEHXZ 004b0510 f   ConsumeListMethod.obj
 0001:000af540       ?GetBusinessName@CConsumeInfoEx@NS_SERVLET@@QAE?AV?$CStringT@_WV?$StrTraitMFC_DLL@_WV?$ChTraitsCRT@_W@ATL@@@@@ATL@@XZ 004b0540 f   ConsumeListMethodEx.obj
 0001:000af540       ?GetBusinessName@CConsumeInfo@NS_SERVLET@@QAE?AV?$CStringT@_WV?$StrTraitMFC_DLL@_WV?$ChTraitsCRT@_W@ATL@@@@@ATL@@XZ 004b0540 f   ConsumeListMethod.obj
 0001:000af590       ??0CConsumeListMethod@NS_SERVLET@@QAE@XZ 004b0590 f   ConsumeListMethod.obj
 0001:000af620       ??_ECConsumeListMethod@NS_SERVLET@@UAEPAXI@Z 004b0620 f i ConsumeListMethod.obj
 0001:000af620       ??_GCConsumeListMethod@NS_SERVLET@@UAEPAXI@Z 004b0620 f i ConsumeListMethod.obj
 0001:000af650       ??1CConsumeListMethod@NS_SERVLET@@UAE@XZ 004b0650 f   ConsumeListMethod.obj
 0001:000af6b0       ?AddParams@CConsumeListMethod@NS_SERVLET@@IAEXXZ 004b06b0 f   ConsumeListMethod.obj
 0001:000af7b0       ?DecodeResp@CConsumeListMethod@NS_SERVLET@@MAEHV?$CStringT@_WV?$StrTraitMFC_DLL@_WV?$ChTraitsCRT@_W@ATL@@@@@ATL@@@Z 004b07b0 f   ConsumeListMethod.obj
 0001:000af920       ?SetConsumeType@CConsumeListMethod@NS_SERVLET@@QAEXI@Z 004b0920 f   ConsumeListMethod.obj
 0001:000af960       ?SetBeginTime@CConsumeListMethod@NS_SERVLET@@QAEXV?$CStringT@_WV?$StrTraitMFC_DLL@_WV?$ChTraitsCRT@_W@ATL@@@@@ATL@@@Z 004b0960 f   ConsumeListMethod.obj
 0001:000af9f0       ?SetEndTime@CConsumeListMethod@NS_SERVLET@@QAEXV?$CStringT@_WV?$StrTraitMFC_DLL@_WV?$ChTraitsCRT@_W@ATL@@@@@ATL@@@Z 004b09f0 f   ConsumeListMethod.obj
 0001:000afa80       ?SetOperator@CConsumeListMethod@NS_SERVLET@@QAEXV?$CStringT@_WV?$StrTraitMFC_DLL@_WV?$ChTraitsCRT@_W@ATL@@@@@ATL@@@Z 004b0a80 f   ConsumeListMethod.obj
 0001:000afb10       ?SetNeedBusinessName@CConsumeListMethod@NS_SERVLET@@QAEXI@Z 004b0b10 f   ConsumeListMethod.obj
 0001:000afb50       ?GetNetBarId@CConsumeListMethod@NS_SERVLET@@QAEIH@Z 004b0b50 f   ConsumeListMethod.obj
 0001:000afb80       ?GetConsumeType@CConsumeListMethod@NS_SERVLET@@QAEIH@Z 004b0b80 f   ConsumeListMethod.obj
 0001:000afbb0       ?GetBeginTime@CConsumeListMethod@NS_SERVLET@@QAE?AV?$CStringT@_WV?$StrTraitMFC_DLL@_WV?$ChTraitsCRT@_W@ATL@@@@@ATL@@H@Z 004b0bb0 f   ConsumeListMethod.obj
 0001:000afbb0       ?GetBeginTime@CTermConsumeMethod@NS_SERVLET@@QAE?AV?$CStringT@_WV?$StrTraitMFC_DLL@_WV?$ChTraitsCRT@_W@ATL@@@@@ATL@@H@Z 004b0bb0 f   TermConsumeMethod.obj
 0001:000afbf0       ?GetEndTime@CConsumeListMethod@NS_SERVLET@@QAE?AV?$CStringT@_WV?$StrTraitMFC_DLL@_WV?$ChTraitsCRT@_W@ATL@@@@@ATL@@H@Z 004b0bf0 f   ConsumeListMethod.obj
 0001:000afbf0       ?GetEndTime@CTermConsumeMethod@NS_SERVLET@@QAE?AV?$CStringT@_WV?$StrTraitMFC_DLL@_WV?$ChTraitsCRT@_W@ATL@@@@@ATL@@H@Z 004b0bf0 f   TermConsumeMethod.obj
 0001:000afc30       ?GetAmount@CConsumeListMethod@NS_SERVLET@@QAEHH@Z 004b0c30 f   ConsumeListMethod.obj
 0001:000afc60       ?GetBusinessName@CConsumeListMethod@NS_SERVLET@@QAE?AV?$CStringT@_WV?$StrTraitMFC_DLL@_WV?$ChTraitsCRT@_W@ATL@@@@@ATL@@H@Z 004b0c60 f   ConsumeListMethod.obj
 0001:000afc60       ?GetBusinessName@CConsumeListMethodEx@NS_SERVLET@@QAE?AV?$CStringT@_WV?$StrTraitMFC_DLL@_WV?$ChTraitsCRT@_W@ATL@@@@@ATL@@H@Z 004b0c60 f   ConsumeListMethodEx.obj
 0001:000afca0       ?GetDescription@CBundleTimeListMethod@NS_SERVLET@@QAE?AV?$CStringT@_WV?$StrTraitMFC_DLL@_WV?$ChTraitsCRT@_W@ATL@@@@@ATL@@H@Z 004b0ca0 f   BundleTimeListMethod.obj
 0001:000afca0       ?GetDescription@CBundleTimeList2Method@NS_SERVLET@@QAE?AV?$CStringT@_WV?$StrTraitMFC_DLL@_WV?$ChTraitsCRT@_W@ATL@@@@@ATL@@H@Z 004b0ca0 f   BundleTimeList2Method.obj
 0001:000afca0       ?GetDescription@CConsumeListMethod@NS_SERVLET@@QAE?AV?$CStringT@_WV?$StrTraitMFC_DLL@_WV?$ChTraitsCRT@_W@ATL@@@@@ATL@@H@Z 004b0ca0 f   ConsumeListMethod.obj
 0001:000afce0       ??0?$CArray@VCConsumeInfo@NS_SERVLET@@AAV12@@@QAE@XZ 004b0ce0 f i ConsumeListMethod.obj
 0001:000afd30       ?SetSize@?$CArray@VCConsumeInfo@NS_SERVLET@@AAV12@@@QAEXHH@Z 004b0d30 f i ConsumeListMethod.obj
 0001:000b0170       ?RemoveAll@?$CArray@VCConsumeInfo@NS_SERVLET@@AAV12@@@QAEXXZ 004b1170 f i ConsumeListMethod.obj
 0001:000b0190       ??1?$CArray@VCConsumeInfo@NS_SERVLET@@AAV12@@@UAE@XZ 004b1190 f i ConsumeListMethod.obj
 0001:000b0230       ?Serialize@?$CArray@VCConsumeInfo@NS_SERVLET@@AAV12@@@UAEXAAVCArchive@@@Z 004b1230 f i ConsumeListMethod.obj
 0001:000b02a0       ??_G?$CArray@VCConsumeInfo@NS_SERVLET@@AAV12@@@UAEPAXI@Z 004b12a0 f i ConsumeListMethod.obj
 0001:000b02a0       ??_E?$CArray@VCConsumeInfo@NS_SERVLET@@AAV12@@@UAEPAXI@Z 004b12a0 f i ConsumeListMethod.obj
 0001:000b02d0       ??0CConsumeInfoEx@NS_SERVLET@@QAE@XZ 004b12d0 f   ConsumeListMethodEx.obj
 0001:000b03d0       ?GetMemberId@CMemberInfo@NS_SERVLET@@QAEIXZ 004b13d0 f   MemberInfoMethod.obj
 0001:000b03d0       ?GetMemberId@CNetbarRoomInfo@NS_SERVLET@@QAEIXZ 004b13d0 f   NetBarRoomMethod.obj
 0001:000b03d0       ?GetMemberId@CTermConsumeInfo@NS_SERVLET@@QAEIXZ 004b13d0 f   TermConsumeMethod.obj
 0001:000b03d0       ?GetMemberID@CConsumeInfoEx@NS_SERVLET@@QAEIXZ 004b13d0 f   ConsumeListMethodEx.obj
 0001:000b03d0       ?GetMemberId@CCreditInfo@NS_SERVLET@@QAEIXZ 004b13d0 f   ShiftCreditMethod.obj
 0001:000b0400       ?GetCostTime@CConsumeInfoEx@NS_SERVLET@@QAE?AV?$CStringT@_WV?$StrTraitMFC_DLL@_WV?$ChTraitsCRT@_W@ATL@@@@@ATL@@XZ 004b1400 f   ConsumeListMethodEx.obj
 0001:000b0450       ?GetAmount@CConsumeInfoEx@NS_SERVLET@@QAEHXZ 004b1450 f   ConsumeListMethodEx.obj
 0001:000b0450       ?GetAmount@CTermConsumeInfo@NS_SERVLET@@QAEIXZ 004b1450 f   TermConsumeMethod.obj
 0001:000b0480       ??0CConsumeListMethodEx@NS_SERVLET@@QAE@XZ 004b1480 f   ConsumeListMethodEx.obj
 0001:000b0510       ??_GCConsumeListMethodEx@NS_SERVLET@@UAEPAXI@Z 004b1510 f i ConsumeListMethodEx.obj
 0001:000b0510       ??_ECConsumeListMethodEx@NS_SERVLET@@UAEPAXI@Z 004b1510 f i ConsumeListMethodEx.obj
 0001:000b0540       ??1CConsumeListMethodEx@NS_SERVLET@@UAE@XZ 004b1540 f   ConsumeListMethodEx.obj
 0001:000b05a0       ?AddParams@CNetbarRoomMethod@NS_SERVLET@@IAEXXZ 004b15a0 f   NetBarRoomMethod.obj
 0001:000b05a0       ?AddParams@CConsumeListMethodEx@NS_SERVLET@@IAEXXZ 004b15a0 f   ConsumeListMethodEx.obj
 0001:000b05e0       ?DecodeResp@CConsumeListMethodEx@NS_SERVLET@@MAEHV?$CStringT@_WV?$StrTraitMFC_DLL@_WV?$ChTraitsCRT@_W@ATL@@@@@ATL@@@Z 004b15e0 f   ConsumeListMethodEx.obj
 0001:000b0750       ?SetOperator@CConsumeListMethodEx@NS_SERVLET@@QAEXV?$CStringT@_WV?$StrTraitMFC_DLL@_WV?$ChTraitsCRT@_W@ATL@@@@@ATL@@@Z 004b1750 f   ConsumeListMethodEx.obj
 0001:000b07e0       ?GetCostTime@CConsumeListMethodEx@NS_SERVLET@@QAE?AV?$CStringT@_WV?$StrTraitMFC_DLL@_WV?$ChTraitsCRT@_W@ATL@@@@@ATL@@H@Z 004b17e0 f   ConsumeListMethodEx.obj
 0001:000b0820       ??0?$CArray@VCConsumeInfoEx@NS_SERVLET@@AAV12@@@QAE@XZ 004b1820 f i ConsumeListMethodEx.obj
 0001:000b0870       ?SetSize@?$CArray@VCConsumeInfoEx@NS_SERVLET@@AAV12@@@QAEXHH@Z 004b1870 f i ConsumeListMethodEx.obj
 0001:000b0cb0       ?RemoveAll@?$CArray@VCConsumeInfoEx@NS_SERVLET@@AAV12@@@QAEXXZ 004b1cb0 f i ConsumeListMethodEx.obj
 0001:000b0cd0       ??1?$CArray@VCConsumeInfoEx@NS_SERVLET@@AAV12@@@UAE@XZ 004b1cd0 f i ConsumeListMethodEx.obj
 0001:000b0d70       ?Serialize@?$CArray@VCConsumeInfoEx@NS_SERVLET@@AAV12@@@UAEXAAVCArchive@@@Z 004b1d70 f i ConsumeListMethodEx.obj
 0001:000b0de0       ??_E?$CArray@VCConsumeInfoEx@NS_SERVLET@@AAV12@@@UAEPAXI@Z 004b1de0 f i ConsumeListMethodEx.obj
 0001:000b0de0       ??_G?$CArray@VCConsumeInfoEx@NS_SERVLET@@AAV12@@@UAEPAXI@Z 004b1de0 f i ConsumeListMethodEx.obj
 0001:000b0e10       ??0CCreditDirectMethod@NS_SERVLET@@QAE@XZ 004b1e10 f   CreditDirectMethod.obj
 0001:000b0e80       ??_GCCreditDirectMethod@NS_SERVLET@@UAEPAXI@Z 004b1e80 f i CreditDirectMethod.obj
 0001:000b0e80       ??_ECCreditDirectMethod@NS_SERVLET@@UAEPAXI@Z 004b1e80 f i CreditDirectMethod.obj
 0001:000b0eb0       ??1CCreditDirectMethod@NS_SERVLET@@UAE@XZ 004b1eb0 f   CreditDirectMethod.obj
 0001:000b0ed0       ?AddParams@CCreditDirectMethod@NS_SERVLET@@IAEXXZ 004b1ed0 f   CreditDirectMethod.obj
 0001:000b1050       ?SetCreditMode@CCreditDirectMethod@NS_SERVLET@@QAEXH@Z 004b2050 f   CreditDirectMethod.obj
 0001:000b1090       ?SetAmount@CCreditDirectMethod@NS_SERVLET@@QAEXH@Z 004b2090 f   CreditDirectMethod.obj
 0001:000b10d0       ?SetTermTime@CCreditDirectMethod@NS_SERVLET@@QAEXV?$CStringT@_WV?$StrTraitMFC_DLL@_WV?$ChTraitsCRT@_W@ATL@@@@@ATL@@@Z 004b20d0 f   CreditDirectMethod.obj
 0001:000b1160       ?SetOperator@CCreditDirectMethod@NS_SERVLET@@QAEXV?$CStringT@_WV?$StrTraitMFC_DLL@_WV?$ChTraitsCRT@_W@ATL@@@@@ATL@@@Z 004b2160 f   CreditDirectMethod.obj
 0001:000b11f0       ?AddRespFields@CCreditDirectMethod@NS_SERVLET@@IAEXXZ 004b21f0 f   CreditDirectMethod.obj
 0001:000b1260       ??0CCreditMethod@NS_SERVLET@@QAE@XZ 004b2260 f   CreditMethod.obj
 0001:000b12d0       ??_GCCreditMethod@NS_SERVLET@@UAEPAXI@Z 004b22d0 f i CreditMethod.obj
 0001:000b12d0       ??_ECCreditMethod@NS_SERVLET@@UAEPAXI@Z 004b22d0 f i CreditMethod.obj
 0001:000b1300       ??1CCreditMethod@NS_SERVLET@@UAE@XZ 004b2300 f   CreditMethod.obj
 0001:000b1320       ?AddParams@CCreditMethod@NS_SERVLET@@IAEXXZ 004b2320 f   CreditMethod.obj
 0001:000b14a0       ?GetMemberId@CDeregisterMethod@NS_SERVLET@@QAEIXZ 004b24a0 f   DeregisterMethod.obj
 0001:000b14a0       ?GetMemberId@CCreditMethod@NS_SERVLET@@QAEIXZ 004b24a0 f   CreditMethod.obj
 0001:000b1500       ?GetAmount@CCreditMethod@NS_SERVLET@@QAEIXZ 004b2500 f   CreditMethod.obj
 0001:000b1560       ?SetOperator@CCreditMethod@NS_SERVLET@@QAEXV?$CStringT@_WV?$StrTraitMFC_DLL@_WV?$ChTraitsCRT@_W@ATL@@@@@ATL@@@Z 004b2560 f   CreditMethod.obj
 0001:000b15f0       ?SetNoPresent@CCreditMethod@NS_SERVLET@@QAEXI@Z 004b25f0 f   CreditMethod.obj
 0001:000b15f0       ?SetNoPresent@CRegisterMethod@NS_SERVLET@@QAEXI@Z 004b25f0 f   RegisterMethod.obj
 0001:000b1630       ?SetTermTime@CCreditMethod@NS_SERVLET@@QAEXV?$CStringT@_WV?$StrTraitMFC_DLL@_WV?$ChTraitsCRT@_W@ATL@@@@@ATL@@@Z 004b2630 f   CreditMethod.obj
 0001:000b16c0       ?SetDutyId@CMergeMemberMethod@NS_SERVLET@@QAEXI@Z 004b26c0 f   MergeMemberMethod.obj
 0001:000b16c0       ?SetDutyId@CBundleTimeMethod@NS_SERVLET@@QAEXI@Z 004b26c0 f   BundleTimeMethod.obj
 0001:000b16c0       ?SetDutyId@CShiftTotalMethod@NS_SERVLET@@QAEXI@Z 004b26c0 f   ShiftTotalMethod.obj
 0001:000b16c0       ?SetDutyId@CCardCreditMethod@NS_SERVLET@@QAEXI@Z 004b26c0 f   CardCreditMethod.obj
 0001:000b16c0       ?SetDutyId@CCreditDirectMethod@NS_SERVLET@@QAEXI@Z 004b26c0 f   CreditDirectMethod.obj
 0001:000b16c0       ?SetDutyId@COffDutyMethod@NS_SERVLET@@QAEXI@Z 004b26c0 f   DutyMethod.obj
 0001:000b16c0       ?SetDutyId@CDeregisterMethod@NS_SERVLET@@QAEXI@Z 004b26c0 f   DeregisterMethod.obj
 0001:000b16c0       ?SetDutyId@CCreditReverseMethod@NS_SERVLET@@QAEXI@Z 004b26c0 f   CreditReverseMethod.obj
 0001:000b16c0       ?SetDutyId@CStoreInMethod@NS_SERVLET@@QAEXI@Z 004b26c0 f   StoreInMethod.obj
 0001:000b16c0       ?SetDutyId@CRetailOnlineMethod@NS_SERVLET@@QAEXI@Z 004b26c0 f   RetailMethod.obj
 0001:000b16c0       ?SetDutyId@CRoomCheckIn@NS_SERVLET@@QAEXI@Z 004b26c0 f   RoomCheckIn.obj
 0001:000b16c0       ?SetDutyId@CRetailMethod@NS_SERVLET@@QAEXI@Z 004b26c0 f   RetailMethod.obj
 0001:000b16c0       ?SetDutyId@CRoomCheckOut@NS_SERVLET@@QAEXI@Z 004b26c0 f   RoomCheckOut.obj
 0001:000b16c0       ?SetDutyId@CRegisterMethod@NS_SERVLET@@QAEXI@Z 004b26c0 f   RegisterMethod.obj
 0001:000b16c0       ?SetDutyId@CCardReplaceMethod@NS_SERVLET@@QAEXI@Z 004b26c0 f   CardReplaceMethod.obj
 0001:000b16c0       ?SetDutyId@CShiftCreditMethod@NS_SERVLET@@QAEXI@Z 004b26c0 f   ShiftCreditMethod.obj
 0001:000b16c0       ?SetDutyId@CCreditMethod@NS_SERVLET@@QAEXI@Z 004b26c0 f   CreditMethod.obj
 0001:000b1700       ?SetActivityId@CCreditMethod@NS_SERVLET@@QAEXI@Z 004b2700 f   CreditMethod.obj
 0001:000b1740       ?AddRespFields@CCreditMethod@NS_SERVLET@@IAEXXZ 004b2740 f   CreditMethod.obj
 0001:000b1870       ?GetRefNo@CRetailOnlineMethod@NS_SERVLET@@QAEIXZ 004b2870 f   RetailMethod.obj
 0001:000b1870       ?GetRefNo@CRetailMethod@NS_SERVLET@@QAEIXZ 004b2870 f   RetailMethod.obj
 0001:000b1870       ?GetRefNo@CDeregisterMethod@NS_SERVLET@@QAEIXZ 004b2870 f   DeregisterMethod.obj
 0001:000b1870       ?GetRefNo@CCreditMethod@NS_SERVLET@@QAEIXZ 004b2870 f   CreditMethod.obj
 0001:000b1870       ?GetRefNo@CUpgradeMethod@NS_SERVLET@@QAEIXZ 004b2870 f   UpgradeMethod.obj
 0001:000b1870       ?GetRefNo@CCardCreditMethod@NS_SERVLET@@QAEIXZ 004b2870 f   CardCreditMethod.obj
 0001:000b1870       ?GetRefNo@CRegisterMethod@NS_SERVLET@@QAEIXZ 004b2870 f   RegisterMethod.obj
 0001:000b18b0       ?GetAvailableBalance@CCreditMethod@NS_SERVLET@@QAEIXZ 004b28b0 f   CreditMethod.obj
 0001:000b18f0       ?GetTrantime@CRegisterMethod@NS_SERVLET@@QAE?AV?$CStringT@_WV?$StrTraitMFC_DLL@_WV?$ChTraitsCRT@_W@ATL@@@@@ATL@@XZ 004b28f0 f   RegisterMethod.obj
 0001:000b18f0       ?GetTrantime@CCreditMethod@NS_SERVLET@@QAE?AV?$CStringT@_WV?$StrTraitMFC_DLL@_WV?$ChTraitsCRT@_W@ATL@@@@@ATL@@XZ 004b28f0 f   CreditMethod.obj
 0001:000b1940       ?GetIncreasedPoint@CCreditMethod@NS_SERVLET@@QAEIXZ 004b2940 f   CreditMethod.obj
 0001:000b1980       ?GetMethodName@CCreditMethod@NS_SERVLET@@MAE?AV?$CStringT@_WV?$StrTraitMFC_DLL@_WV?$ChTraitsCRT@_W@ATL@@@@@ATL@@XZ 004b2980 f   CreditMethod.obj
 0001:000b1a20       ?SaveTranInfo@CCreditMethod@NS_SERVLET@@QAEXXZ 004b2a20 f   CreditMethod.obj
 0001:000b1ac0       ??0CCreditReverseMethod@NS_SERVLET@@QAE@XZ 004b2ac0 f   CreditReverseMethod.obj
 0001:000b1b30       ??_ECCreditReverseMethod@NS_SERVLET@@UAEPAXI@Z 004b2b30 f i CreditReverseMethod.obj
 0001:000b1b30       ??_GCCreditReverseMethod@NS_SERVLET@@UAEPAXI@Z 004b2b30 f i CreditReverseMethod.obj
 0001:000b1b60       ??1CCreditReverseMethod@NS_SERVLET@@UAE@XZ 004b2b60 f   CreditReverseMethod.obj
 0001:000b1b80       ?AddParams@CCreditReverseMethod@NS_SERVLET@@IAEXXZ 004b2b80 f   CreditReverseMethod.obj
 0001:000b1cc0       ?SetTrantime@CCreditReverseMethod@NS_SERVLET@@QAEXV?$CStringT@_WV?$StrTraitMFC_DLL@_WV?$ChTraitsCRT@_W@ATL@@@@@ATL@@@Z 004b2cc0 f   CreditReverseMethod.obj
 0001:000b1d50       ?SetLastRefNo@CCreditReverseMethod@NS_SERVLET@@QAEXI@Z 004b2d50 f   CreditReverseMethod.obj
 0001:000b1d90       ?SetOperator@CCreditReverseMethod@NS_SERVLET@@QAEXV?$CStringT@_WV?$StrTraitMFC_DLL@_WV?$ChTraitsCRT@_W@ATL@@@@@ATL@@@Z 004b2d90 f   CreditReverseMethod.obj
 0001:000b1e20       ?AddRespFields@CCreditReverseMethod@NS_SERVLET@@IAEXXZ 004b2e20 f   CreditReverseMethod.obj
 0001:000b1ee0       ?GetMethodName@CCreditReverseMethod@NS_SERVLET@@MAE?AV?$CStringT@_WV?$StrTraitMFC_DLL@_WV?$ChTraitsCRT@_W@ATL@@@@@ATL@@XZ 004b2ee0 f   CreditReverseMethod.obj
 0001:000b1f80       ??0CDeregisterMethod@NS_SERVLET@@QAE@XZ 004b2f80 f   DeregisterMethod.obj
 0001:000b1ff0       ??_GCDeregisterMethod@NS_SERVLET@@UAEPAXI@Z 004b2ff0 f i DeregisterMethod.obj
 0001:000b1ff0       ??_ECDeregisterMethod@NS_SERVLET@@UAEPAXI@Z 004b2ff0 f i DeregisterMethod.obj
 0001:000b2020       ??1CDeregisterMethod@NS_SERVLET@@UAE@XZ 004b3020 f   DeregisterMethod.obj
 0001:000b2040       ?AddParams@CDeregisterMethod@NS_SERVLET@@IAEXXZ 004b3040 f   DeregisterMethod.obj
 0001:000b22b0       ?SetMemberId@CUpgradeMethod@NS_SERVLET@@QAEXI@Z 004b32b0 f   UpgradeMethod.obj
 0001:000b22b0       ?SetMemberId@CBundleTimeListMethod@NS_SERVLET@@QAEXI@Z 004b32b0 f   BundleTimeListMethod.obj
 0001:000b22b0       ?SetMemberId@CCreditReverseMethod@NS_SERVLET@@QAEXI@Z 004b32b0 f   CreditReverseMethod.obj
 0001:000b22b0       ?SetMemberId@CShiftCreditMethod@NS_SERVLET@@QAEXI@Z 004b32b0 f   ShiftCreditMethod.obj
 0001:000b22b0       ?SetMemberId@CCreditDirectMethod@NS_SERVLET@@QAEXI@Z 004b32b0 f   CreditDirectMethod.obj
 0001:000b22b0       ?SetMemberId@CCancelBundleTimeMethod@NS_SERVLET@@QAEXI@Z 004b32b0 f   CancelBundleTimeMethod.obj
 0001:000b22b0       ?SetMemberId@CConsumeListMethod@NS_SERVLET@@QAEXI@Z 004b32b0 f   ConsumeListMethod.obj
 0001:000b22b0       ?SetMemberId@CBundleTimeActionMethod@NS_SERVLET@@QAEXI@Z 004b32b0 f   BundleTimeActionMethod.obj
 0001:000b22b0       ?SetMemberId@CRetailMethod@NS_SERVLET@@QAEXI@Z 004b32b0 f   RetailMethod.obj
 0001:000b22b0       ?SetMemberId@CCreditMethod@NS_SERVLET@@QAEXI@Z 004b32b0 f   CreditMethod.obj
 0001:000b22b0       ?SetMemberId@CCardCreditMethod@NS_SERVLET@@QAEXI@Z 004b32b0 f   CardCreditMethod.obj
 0001:000b22b0       ?SetMemberId@CRoomCheckOut@NS_SERVLET@@QAEXI@Z 004b32b0 f   RoomCheckOut.obj
 0001:000b22b0       ?SetMemberId@CRetailOnlineMethod@NS_SERVLET@@QAEXI@Z 004b32b0 f   RetailMethod.obj
 0001:000b22b0       ?SetMemberId@CUsePointMethod@NS_SERVLET@@QAEXI@Z 004b32b0 f   UsePointMethod.obj
 0001:000b22b0       ?SetMemberId@CResetPwdMethod@NS_SERVLET@@QAEXI@Z 004b32b0 f   ResetPwdMethod.obj
 0001:000b22b0       ?SetMemberId@CBundleTime2Method@NS_SERVLET@@QAEXI@Z 004b32b0 f   BundleTime2Method.obj
 0001:000b22b0       ?SetMemberId@CActivationMethod@NS_SERVLET@@QAEXI@Z 004b32b0 f   ActivationMethod.obj
 0001:000b22b0       ?SetMemberId@CMergeMemberMethod@NS_SERVLET@@QAEXI@Z 004b32b0 f   MergeMemberMethod.obj
 0001:000b22b0       ?SetMemberId@CBundleTimeMethod@NS_SERVLET@@QAEXI@Z 004b32b0 f   BundleTimeMethod.obj
 0001:000b22b0       ?SetMemberId@CDeregisterMethod@NS_SERVLET@@QAEXI@Z 004b32b0 f   DeregisterMethod.obj
 0001:000b22f0       ?SetCardId@CRetailMethod@NS_SERVLET@@QAEXI@Z 004b32f0 f   RetailMethod.obj
 0001:000b22f0       ?SetCardId@CDeregisterMethod@NS_SERVLET@@QAEXI@Z 004b32f0 f   DeregisterMethod.obj
 0001:000b22f0       ?SetCardId@CCardReplaceMethod@NS_SERVLET@@QAEXI@Z 004b32f0 f   CardReplaceMethod.obj
 0001:000b2330       ?SetPersonalId@CDeregisterMethod@NS_SERVLET@@QAEXV?$CStringT@_WV?$StrTraitMFC_DLL@_WV?$ChTraitsCRT@_W@ATL@@@@@ATL@@@Z 004b3330 f   DeregisterMethod.obj
 0001:000b23c0       ?SetMemberName@CDeregisterMethod@NS_SERVLET@@QAEXV?$CStringT@_WV?$StrTraitMFC_DLL@_WV?$ChTraitsCRT@_W@ATL@@@@@ATL@@@Z 004b33c0 f   DeregisterMethod.obj
 0001:000b2450       ?SetPassword@CDeregisterMethod@NS_SERVLET@@QAEXV?$CStringT@_WV?$StrTraitMFC_DLL@_WV?$ChTraitsCRT@_W@ATL@@@@@ATL@@@Z 004b3450 f   DeregisterMethod.obj
 0001:000b2570       ?SetEndUsingTime@CDeregisterMethod@NS_SERVLET@@QAEXV?$CStringT@_WV?$StrTraitMFC_DLL@_WV?$ChTraitsCRT@_W@ATL@@@@@ATL@@@Z 004b3570 f   DeregisterMethod.obj
 0001:000b2600       ?SetOperator@CDeregisterMethod@NS_SERVLET@@QAEXV?$CStringT@_WV?$StrTraitMFC_DLL@_WV?$ChTraitsCRT@_W@ATL@@@@@ATL@@@Z 004b3600 f   DeregisterMethod.obj
 0001:000b2690       ?SetReturnMode@CDeregisterMethod@NS_SERVLET@@QAEXI@Z 004b3690 f   DeregisterMethod.obj
 0001:000b26d0       ?AddRespFields@CDeregisterMethod@NS_SERVLET@@IAEXXZ 004b36d0 f   DeregisterMethod.obj
 0001:000b2790       ?GetBalance@CDeregisterMethod@NS_SERVLET@@QAEHXZ 004b3790 f   DeregisterMethod.obj
 0001:000b27d0       ?GetMethodName@CDeregisterMethod@NS_SERVLET@@MAE?AV?$CStringT@_WV?$StrTraitMFC_DLL@_WV?$ChTraitsCRT@_W@ATL@@@@@ATL@@XZ 004b37d0 f   DeregisterMethod.obj
 0001:000b2870       ?SaveTranInfo@CDeregisterMethod@NS_SERVLET@@QAEXXZ 004b3870 f   DeregisterMethod.obj
 0001:000b2910       ??0CDetailDataMethod@NS_SERVLET@@QAE@XZ 004b3910 f   DetailDataMethod.obj
 0001:000b29a0       ??_GCDetailDataMethod@NS_SERVLET@@UAEPAXI@Z 004b39a0 f i DetailDataMethod.obj
 0001:000b29a0       ??_ECDetailDataMethod@NS_SERVLET@@UAEPAXI@Z 004b39a0 f i DetailDataMethod.obj
 0001:000b29d0       ??1CDetailDataMethod@NS_SERVLET@@UAE@XZ 004b39d0 f   DetailDataMethod.obj
 0001:000b2a00       ?AddParams@CDetailDataMethod@NS_SERVLET@@IAEXXZ 004b3a00 f   DetailDataMethod.obj
 0001:000b2b40       ?SetPageNum@CDetailDataMethod@NS_SERVLET@@QAEXI@Z 004b3b40 f   DetailDataMethod.obj
 0001:000b2b80       ?SetTranType@CDetailDataMethod@NS_SERVLET@@QAEXI@Z 004b3b80 f   DetailDataMethod.obj
 0001:000b2bc0       ?SetBeginTime@CDetailDataMethod@NS_SERVLET@@QAEXV?$CStringT@_WV?$StrTraitMFC_DLL@_WV?$ChTraitsCRT@_W@ATL@@@@@ATL@@@Z 004b3bc0 f   DetailDataMethod.obj
 0001:000b2c50       ?SetEndTime@CDetailDataMethod@NS_SERVLET@@QAEXV?$CStringT@_WV?$StrTraitMFC_DLL@_WV?$ChTraitsCRT@_W@ATL@@@@@ATL@@@Z 004b3c50 f   DetailDataMethod.obj
 0001:000b2ce0       ?SetOperator@CDetailDataMethod@NS_SERVLET@@QAEXV?$CStringT@_WV?$StrTraitMFC_DLL@_WV?$ChTraitsCRT@_W@ATL@@@@@ATL@@@Z 004b3ce0 f   DetailDataMethod.obj
 0001:000b2d70       ?AddRespFields@CDetailDataMethod@NS_SERVLET@@IAEXXZ 004b3d70 f   DetailDataMethod.obj
 0001:000b2e00       ?DecodeResp@CDetailDataMethod@NS_SERVLET@@MAEHV?$CStringT@_WV?$StrTraitMFC_DLL@_WV?$ChTraitsCRT@_W@ATL@@@@@ATL@@@Z 004b3e00 f   DetailDataMethod.obj
 0001:000b2ec0       ?GetDetailInfo@CDetailDataMethod@NS_SERVLET@@QAE?AV?$CStringT@_WV?$StrTraitMFC_DLL@_WV?$ChTraitsCRT@_W@ATL@@@@@ATL@@XZ 004b3ec0 f   DetailDataMethod.obj
 0001:000b2ec0       ?GetNetBarName@CNetBarConfig@@QBE?AV?$CStringT@_WV?$StrTraitMFC_DLL@_WV?$ChTraitsCRT@_W@ATL@@@@@ATL@@XZ 004b3ec0 f   NetBarConfig.obj
 0001:000b2ec0       ?GetLcation@CComputerInfo@@QBE?AV?$CStringT@_WV?$StrTraitMFC_DLL@_WV?$ChTraitsCRT@_W@ATL@@@@@ATL@@XZ 004b3ec0 f   ColorGridCtrl.obj
 0001:000b2f00       ?GetPageSize@CDetailDataMethod@NS_SERVLET@@QAEIXZ 004b3f00 f   DetailDataMethod.obj
 0001:000b2f40       ??0COnDutyMethod@NS_SERVLET@@QAE@XZ 004b3f40 f   DutyMethod.obj
 0001:000b2fb0       ??_ECOnDutyMethod@NS_SERVLET@@UAEPAXI@Z 004b3fb0 f i DutyMethod.obj
 0001:000b2fb0       ??_GCOnDutyMethod@NS_SERVLET@@UAEPAXI@Z 004b3fb0 f i DutyMethod.obj
 0001:000b2fe0       ??1COnDutyMethod@NS_SERVLET@@UAE@XZ 004b3fe0 f   DutyMethod.obj
 0001:000b3000       ?AddParams@COnDutyMethod@NS_SERVLET@@IAEXXZ 004b4000 f   DutyMethod.obj
 0001:000b30b0       ?SetShiftType@COnDutyMethod@NS_SERVLET@@QAEXI@Z 004b40b0 f   DutyMethod.obj
 0001:000b30f0       ?SetReserveAmount@COnDutyMethod@NS_SERVLET@@QAEXI@Z 004b40f0 f   DutyMethod.obj
 0001:000b3130       ?SetOperator@COnDutyMethod@NS_SERVLET@@QAEXV?$CStringT@_WV?$StrTraitMFC_DLL@_WV?$ChTraitsCRT@_W@ATL@@@@@ATL@@@Z 004b4130 f   DutyMethod.obj
 0001:000b3130       ?SetOperator@COffDutyMethod@NS_SERVLET@@QAEXV?$CStringT@_WV?$StrTraitMFC_DLL@_WV?$ChTraitsCRT@_W@ATL@@@@@ATL@@@Z 004b4130 f   DutyMethod.obj
 0001:000b31c0       ?AddRespFields@COnDutyMethod@NS_SERVLET@@IAEXXZ 004b41c0 f   DutyMethod.obj
 0001:000b3230       ?GetOnDutyTime@COnDutyMethod@NS_SERVLET@@QAE?AV?$CStringT@_WV?$StrTraitMFC_DLL@_WV?$ChTraitsCRT@_W@ATL@@@@@ATL@@XZ 004b4230 f   DutyMethod.obj
 0001:000b3280       ??0COffDutyMethod@NS_SERVLET@@QAE@XZ 004b4280 f   DutyMethod.obj
 0001:000b32f0       ??_ECOffDutyMethod@NS_SERVLET@@UAEPAXI@Z 004b42f0 f i DutyMethod.obj
 0001:000b32f0       ??_GCOffDutyMethod@NS_SERVLET@@UAEPAXI@Z 004b42f0 f i DutyMethod.obj
 0001:000b3320       ??1COffDutyMethod@NS_SERVLET@@UAE@XZ 004b4320 f   DutyMethod.obj
 0001:000b3340       ?AddParams@COffDutyMethod@NS_SERVLET@@IAEXXZ 004b4340 f   DutyMethod.obj
 0001:000b35e0       ?SetNetBarPay@COffDutyMethod@NS_SERVLET@@QAEXI@Z 004b45e0 f   DutyMethod.obj
 0001:000b3620       ?SetStoreInAmount@COffDutyMethod@NS_SERVLET@@QAEXH@Z 004b4620 f   DutyMethod.obj
 0001:000b3660       ?SetDeposit@COffDutyMethod@NS_SERVLET@@QAEXH@Z 004b4660 f   DutyMethod.obj
 0001:000b36a0       ?SetCostExpense@COffDutyMethod@NS_SERVLET@@QAEXH@Z 004b46a0 f   DutyMethod.obj
 0001:000b36e0       ?SetCreditAmount@COffDutyMethod@NS_SERVLET@@QAEXH@Z 004b46e0 f   DutyMethod.obj
 0001:000b3720       ?SetReturnedAmount@COffDutyMethod@NS_SERVLET@@QAEXH@Z 004b4720 f   DutyMethod.obj
 0001:000b3760       ?SetCashPay@COffDutyMethod@NS_SERVLET@@QAEXH@Z 004b4760 f   DutyMethod.obj
 0001:000b37a0       ?SetPayout@COffDutyMethod@NS_SERVLET@@QAEXH@Z 004b47a0 f   DutyMethod.obj
 0001:000b37e0       ?SetFetchAmount@COffDutyMethod@NS_SERVLET@@QAEXH@Z 004b47e0 f   DutyMethod.obj
 0001:000b3820       ?SetRemainAmount@COffDutyMethod@NS_SERVLET@@QAEXH@Z 004b4820 f   DutyMethod.obj
 0001:000b3860       ?SetCreditCard@COffDutyMethod@NS_SERVLET@@QAEXH@Z 004b4860 f   DutyMethod.obj
 0001:000b38a0       ?SetRecordCount@COffDutyMethod@NS_SERVLET@@QAEXI@Z 004b48a0 f   DutyMethod.obj
 0001:000b38e0       ?SetClassInfoRecords@COffDutyMethod@NS_SERVLET@@QAEXV?$CStringT@_WV?$StrTraitMFC_DLL@_WV?$ChTraitsCRT@_W@ATL@@@@@ATL@@@Z 004b48e0 f   DutyMethod.obj
 0001:000b3970       ?SetDescription@COffDutyMethod@NS_SERVLET@@QAEXV?$CStringT@_WV?$StrTraitMFC_DLL@_WV?$ChTraitsCRT@_W@ATL@@@@@ATL@@@Z 004b4970 f   DutyMethod.obj
 0001:000b3a00       ?AddRespFields@COffDutyMethod@NS_SERVLET@@IAEXXZ 004b4a00 f   DutyMethod.obj
 0001:000b3a40       ?GetOffDutyTime@COffDutyMethod@NS_SERVLET@@QAE?AV?$CStringT@_WV?$StrTraitMFC_DLL@_WV?$ChTraitsCRT@_W@ATL@@@@@ATL@@XZ 004b4a40 f   DutyMethod.obj
 0001:000b3a90       ??0CGetSystemConfigMethod@NS_SERVLET@@QAE@XZ 004b4a90 f   GetSystemConfigMethod.obj
 0001:000b3b00       ??_ECGetSystemConfigMethod@NS_SERVLET@@UAEPAXI@Z 004b4b00 f i GetSystemConfigMethod.obj
 0001:000b3b00       ??_GCGetSystemConfigMethod@NS_SERVLET@@UAEPAXI@Z 004b4b00 f i GetSystemConfigMethod.obj
 0001:000b3b30       ??1CGetSystemConfigMethod@NS_SERVLET@@UAE@XZ 004b4b30 f   GetSystemConfigMethod.obj
 0001:000b3b50       ?AddParams@CGetSystemConfigMethod@NS_SERVLET@@IAEXXZ 004b4b50 f   GetSystemConfigMethod.obj
 0001:000b3bb0       ?SetStringField@CGetSystemConfigMethod@NS_SERVLET@@QAEXV?$CStringT@_WV?$StrTraitMFC_DLL@_WV?$ChTraitsCRT@_W@ATL@@@@@ATL@@@Z 004b4bb0 f   GetSystemConfigMethod.obj
 0001:000b3c40       ?AddRespFields@CGetSystemConfigMethod@NS_SERVLET@@IAEXXZ 004b4c40 f   GetSystemConfigMethod.obj
 0001:000b3cd0       ?GetStringFieldValue@CGetSystemConfigMethod@NS_SERVLET@@QAE?AV?$CStringT@_WV?$StrTraitMFC_DLL@_WV?$ChTraitsCRT@_W@ATL@@@@@ATL@@XZ 004b4cd0 f   GetSystemConfigMethod.obj
 0001:000b3d20       ?GetValue1@CGetSystemConfigMethod@NS_SERVLET@@QAEIXZ 004b4d20 f   GetSystemConfigMethod.obj
 0001:000b3d60       ?GetValue2@CGetSystemConfigMethod@NS_SERVLET@@QAEIXZ 004b4d60 f   GetSystemConfigMethod.obj
 0001:000b3da0       ??0CIDCheckCardMethod@NS_SERVLET@@QAE@XZ 004b4da0 f   IDCheckCardMethod.obj
 0001:000b3e10       ??_ECIDCheckCardMethod@NS_SERVLET@@UAEPAXI@Z 004b4e10 f i IDCheckCardMethod.obj
 0001:000b3e10       ??_GCIDCheckCardMethod@NS_SERVLET@@UAEPAXI@Z 004b4e10 f i IDCheckCardMethod.obj
 0001:000b3e40       ??1CIDCheckCardMethod@NS_SERVLET@@UAE@XZ 004b4e40 f   IDCheckCardMethod.obj
 0001:000b3e60       ?AddParams@CIDCheckCardMethod@NS_SERVLET@@IAEXXZ 004b4e60 f   IDCheckCardMethod.obj
 0001:000b3ef0       ?SetSerialNum@CIDCheckCardMethod@NS_SERVLET@@QAEXV?$CStringT@_WV?$StrTraitMFC_DLL@_WV?$ChTraitsCRT@_W@ATL@@@@@ATL@@@Z 004b4ef0 f   IDCheckCardMethod.obj
 0001:000b3f80       ?SetOperator@CIDCheckCardMethod@NS_SERVLET@@QAEXV?$CStringT@_WV?$StrTraitMFC_DLL@_WV?$ChTraitsCRT@_W@ATL@@@@@ATL@@@Z 004b4f80 f   IDCheckCardMethod.obj
 0001:000b4010       ?SetSerialNumType@CIDCheckCardMethod@NS_SERVLET@@QAEXI@Z 004b5010 f   IDCheckCardMethod.obj
 0001:000b4050       ?AddRespFields@CIDCheckCardMethod@NS_SERVLET@@IAEXXZ 004b5050 f   IDCheckCardMethod.obj
 0001:000b4200       ?GetCardId@CIDCheckCardMethod@NS_SERVLET@@QAEIXZ 004b5200 f   IDCheckCardMethod.obj
 0001:000b4240       ?GetCardIdAsString@CIDCheckCardMethod@NS_SERVLET@@QAE?AV?$CStringT@_WV?$StrTraitMFC_DLL@_WV?$ChTraitsCRT@_W@ATL@@@@@ATL@@XZ 004b5240 f   IDCheckCardMethod.obj
 0001:000b4290       ??0CInputParam@NS_SERVLET_HELPPER@NS_SERVLET@@QAE@XZ 004b5290 f   InputParam.obj
 0001:000b42d0       ?SetValue@CInputParam@NS_SERVLET_HELPPER@NS_SERVLET@@QAEXV?$CStringT@_WV?$StrTraitMFC_DLL@_WV?$ChTraitsCRT@_W@ATL@@@@@ATL@@@Z 004b52d0 f   InputParam.obj
 0001:000b4320       ?GetValue@CInputParam@NS_SERVLET_HELPPER@NS_SERVLET@@QAE?AV?$CStringT@_WV?$StrTraitMFC_DLL@_WV?$ChTraitsCRT@_W@ATL@@@@@ATL@@XZ 004b5320 f   InputParam.obj
 0001:000b45c0       ?HandleError@CInputParamList@NS_SERVLET_HELPPER@NS_SERVLET@@SAXAAV?$CStringT@_WV?$StrTraitMFC_DLL@_WV?$ChTraitsCRT@_W@ATL@@@@@ATL@@@Z 004b55c0 f   InputParam.obj
 0001:000b4600       ??0CInputParamList@NS_SERVLET_HELPPER@NS_SERVLET@@QAE@XZ 004b5600 f   InputParam.obj
 0001:000b4650       ??1CInputParamList@NS_SERVLET_HELPPER@NS_SERVLET@@QAE@XZ 004b5650 f   InputParam.obj
 0001:000b46b0       ?AddParam@CInputParamList@NS_SERVLET_HELPPER@NS_SERVLET@@IAEHV?$CStringT@_WV?$StrTraitMFC_DLL@_WV?$ChTraitsCRT@_W@ATL@@@@@ATL@@AAVCInputParam@23@@Z 004b56b0 f   InputParam.obj
 0001:000b47a0       ?AddParam@CInputParamList@NS_SERVLET_HELPPER@NS_SERVLET@@QAEHV?$CStringT@_WV?$StrTraitMFC_DLL@_WV?$ChTraitsCRT@_W@ATL@@@@@ATL@@W4EParamType@23@IW4EParamLengthType@23@@Z 004b57a0 f   InputParam.obj
 0001:000b4850       ?SetValue@CInputParamList@NS_SERVLET_HELPPER@NS_SERVLET@@QAEXV?$CStringT@_WV?$StrTraitMFC_DLL@_WV?$ChTraitsCRT@_W@ATL@@@@@ATL@@0@Z 004b5850 f   InputParam.obj
 0001:000b4960       ?SetValue@CInputParamList@NS_SERVLET_HELPPER@NS_SERVLET@@QAEXV?$CStringT@_WV?$StrTraitMFC_DLL@_WV?$ChTraitsCRT@_W@ATL@@@@@ATL@@I@Z 004b5960 f   InputParam.obj
 0001:000b4a20       ?SetValue@CInputParamList@NS_SERVLET_HELPPER@NS_SERVLET@@QAEXV?$CStringT@_WV?$StrTraitMFC_DLL@_WV?$ChTraitsCRT@_W@ATL@@@@@ATL@@H@Z 004b5a20 f   InputParam.obj
 0001:000b4ae0       ?GetValue@CInputParamList@NS_SERVLET_HELPPER@NS_SERVLET@@QAE?AV?$CStringT@_WV?$StrTraitMFC_DLL@_WV?$ChTraitsCRT@_W@ATL@@@@@ATL@@V45@@Z 004b5ae0 f   InputParam.obj
 0001:000b4bf0       ?RemoveAll@CInputParamList@NS_SERVLET_HELPPER@NS_SERVLET@@QAEXXZ 004b5bf0 f   InputParam.obj
 0001:000b4c10       ?GetAllValue@CInputParamList@NS_SERVLET_HELPPER@NS_SERVLET@@QAE?AV?$CStringT@_WV?$StrTraitMFC_DLL@_WV?$ChTraitsCRT@_W@ATL@@@@@ATL@@XZ 004b5c10 f   InputParam.obj
 0001:000b4db0       ?GetIndexByKey@CInputParamList@NS_SERVLET_HELPPER@NS_SERVLET@@IAEHV?$CStringT@_WV?$StrTraitMFC_DLL@_WV?$ChTraitsCRT@_W@ATL@@@@@ATL@@@Z 004b5db0 f   InputParam.obj
 0001:000b4e70       ??0?$CArray@VCInputParam@NS_SERVLET_HELPPER@NS_SERVLET@@AAV123@@@QAE@XZ 004b5e70 f i InputParam.obj
 0001:000b4ec0       ?RemoveAll@?$CArray@VCInputParam@NS_SERVLET_HELPPER@NS_SERVLET@@AAV123@@@QAEXXZ 004b5ec0 f i InputParam.obj
 0001:000b4ee0       ?Add@?$CArray@VCInputParam@NS_SERVLET_HELPPER@NS_SERVLET@@AAV123@@@QAEHAAVCInputParam@NS_SERVLET_HELPPER@NS_SERVLET@@@Z 004b5ee0 f i InputParam.obj
 0001:000b4f10       ??1?$CArray@VCInputParam@NS_SERVLET_HELPPER@NS_SERVLET@@AAV123@@@UAE@XZ 004b5f10 f i InputParam.obj
 0001:000b4fb0       ?Serialize@?$CArray@VCInputParam@NS_SERVLET_HELPPER@NS_SERVLET@@AAV123@@@UAEXAAVCArchive@@@Z 004b5fb0 f i InputParam.obj
 0001:000b5020       ?RemoveAll@?$CArray@V?$CStringT@_WV?$StrTraitMFC_DLL@_WV?$ChTraitsCRT@_W@ATL@@@@@ATL@@AAV12@@@QAEXXZ 004b6020 f i InputParam.obj
 0001:000b5040       ?Add@?$CArray@V?$CStringT@_WV?$StrTraitMFC_DLL@_WV?$ChTraitsCRT@_W@ATL@@@@@ATL@@ABV12@@@QAEHABV?$CStringT@_WV?$StrTraitMFC_DLL@_WV?$ChTraitsCRT@_W@ATL@@@@@ATL@@@Z 004b6040 f i IBADAL.obj
 0001:000b5040       ?Add@?$CArray@V?$CStringT@_WV?$StrTraitMFC_DLL@_WV?$ChTraitsCRT@_W@ATL@@@@@ATL@@AAV12@@@QAEHAAV?$CStringT@_WV?$StrTraitMFC_DLL@_WV?$ChTraitsCRT@_W@ATL@@@@@ATL@@@Z 004b6040 f i InputParam.obj
 0001:000b5070       ??_E?$CArray@VCInputParam@NS_SERVLET_HELPPER@NS_SERVLET@@AAV123@@@UAEPAXI@Z 004b6070 f i InputParam.obj
 0001:000b5070       ??_G?$CArray@VCInputParam@NS_SERVLET_HELPPER@NS_SERVLET@@AAV123@@@UAEPAXI@Z 004b6070 f i InputParam.obj
 0001:000b50a0       ?SetSize@?$CArray@VCInputParam@NS_SERVLET_HELPPER@NS_SERVLET@@AAV123@@@QAEXHH@Z 004b60a0 f i InputParam.obj
 0001:000b54e0       ?SetAtGrow@?$CArray@VCInputParam@NS_SERVLET_HELPPER@NS_SERVLET@@AAV123@@@QAEXHAAVCInputParam@NS_SERVLET_HELPPER@NS_SERVLET@@@Z 004b64e0 f i InputParam.obj
 0001:000b5530       ?SetAtGrow@?$CArray@V?$CStringT@_WV?$StrTraitMFC_DLL@_WV?$ChTraitsCRT@_W@ATL@@@@@ATL@@ABV12@@@QAEXHABV?$CStringT@_WV?$StrTraitMFC_DLL@_WV?$ChTraitsCRT@_W@ATL@@@@@ATL@@@Z 004b6530 f i IBADAL.obj
 0001:000b5530       ?SetAtGrow@?$CArray@V?$CStringT@_WV?$StrTraitMFC_DLL@_WV?$ChTraitsCRT@_W@ATL@@@@@ATL@@AAV12@@@QAEXHAAV?$CStringT@_WV?$StrTraitMFC_DLL@_WV?$ChTraitsCRT@_W@ATL@@@@@ATL@@@Z 004b6530 f i InputParam.obj
 0001:000b5580       ??4CInputParam@NS_SERVLET_HELPPER@NS_SERVLET@@QAEAAV012@ABV012@@Z 004b6580 f i InputParam.obj
 0001:000b55d0       ??0CLastTranInfo@NS_SERVLET@@QAE@XZ 004b65d0 f   LastTranInfo.obj
 0001:000b55d0       ??0CCreditHelpper@@QAE@XZ  004b65d0 f   ServletHellper.obj
 0001:000b5600       ?Load@CLastTranInfo@NS_SERVLET@@QAEXXZ 004b6600 f   LastTranInfo.obj
 0001:000b56c0       ?Save@CLastTranInfo@NS_SERVLET@@QAEXXZ 004b66c0 f   LastTranInfo.obj
 0001:000b5730       ??0CLocalModeMethod@NS_SERVLET@@QAE@XZ 004b6730 f   LocalModeMethod.obj
 0001:000b57a0       ??_ECLocalModeMethod@NS_SERVLET@@UAEPAXI@Z 004b67a0 f i LocalModeMethod.obj
 0001:000b57a0       ??_GCLocalModeMethod@NS_SERVLET@@UAEPAXI@Z 004b67a0 f i LocalModeMethod.obj
 0001:000b57d0       ??1CLocalModeMethod@NS_SERVLET@@UAE@XZ 004b67d0 f   LocalModeMethod.obj
 0001:000b57f0       ?AddParams@CLocalModeMethod@NS_SERVLET@@IAEXXZ 004b67f0 f   LocalModeMethod.obj
 0001:000b5880       ?SetOperationType@CLocalModeMethod@NS_SERVLET@@QAEXI@Z 004b6880 f   LocalModeMethod.obj
 0001:000b58c0       ?SetLastOperationTime@CLocalModeMethod@NS_SERVLET@@QAEXV?$CStringT@_WV?$StrTraitMFC_DLL@_WV?$ChTraitsCRT@_W@ATL@@@@@ATL@@@Z 004b68c0 f   LocalModeMethod.obj
 0001:000b5950       ?SetOperator@CLocalModeMethod@NS_SERVLET@@QAEXV?$CStringT@_WV?$StrTraitMFC_DLL@_WV?$ChTraitsCRT@_W@ATL@@@@@ATL@@@Z 004b6950 f   LocalModeMethod.obj
 0001:000b59e0       ??0CMemberInfoMethod@NS_SERVLET@@QAE@XZ 004b69e0 f   MemberInfoMethod.obj
 0001:000b5a60       ??_GCMemberInfoMethod@NS_SERVLET@@UAEPAXI@Z 004b6a60 f i MemberInfoMethod.obj
 0001:000b5a60       ??_ECMemberInfoMethod@NS_SERVLET@@UAEPAXI@Z 004b6a60 f i MemberInfoMethod.obj
 0001:000b5a90       ??1CMemberInfoMethod@NS_SERVLET@@UAE@XZ 004b6a90 f   MemberInfoMethod.obj
 0001:000b5b00       ?GetMethodName@CMemberInfoMethod@NS_SERVLET@@MAE?AV?$CStringT@_WV?$StrTraitMFC_DLL@_WV?$ChTraitsCRT@_W@ATL@@@@@ATL@@XZ 004b6b00 f   MemberInfoMethod.obj
 0001:000b5ba0       ?DecodeResp@CMemberInfoMethod@NS_SERVLET@@MAEHV?$CStringT@_WV?$StrTraitMFC_DLL@_WV?$ChTraitsCRT@_W@ATL@@@@@ATL@@@Z 004b6ba0 f   MemberInfoMethod.obj
 0001:000b5d00       ?AddParams@CMemberInfoMethod@NS_SERVLET@@IAEXXZ 004b6d00 f   MemberInfoMethod.obj
 0001:000b5eb0       ?SetUsername@CMemberInfoMethod@NS_SERVLET@@QAEXV?$CStringT@_WV?$StrTraitMFC_DLL@_WV?$ChTraitsCRT@_W@ATL@@@@@ATL@@@Z 004b6eb0 f   MemberInfoMethod.obj
 0001:000b5f40       ?SetPersonalId@CMemberInfoMethod@NS_SERVLET@@QAEXV?$CStringT@_WV?$StrTraitMFC_DLL@_WV?$ChTraitsCRT@_W@ATL@@@@@ATL@@@Z 004b6f40 f   MemberInfoMethod.obj
 0001:000b5fd0       ?SetSerialNum@CMemberInfoMethod@NS_SERVLET@@QAEXV?$CStringT@_WV?$StrTraitMFC_DLL@_WV?$ChTraitsCRT@_W@ATL@@@@@ATL@@@Z 004b6fd0 f   MemberInfoMethod.obj
 0001:000b6060       ?SetAvailable@CMemberInfoMethod@NS_SERVLET@@QAEXI@Z 004b7060 f   MemberInfoMethod.obj
 0001:000b60a0       ?AddRespFields@CMemberInfoMethod@NS_SERVLET@@IAEXXZ 004b70a0 f   MemberInfoMethod.obj
 0001:000b60e0       ?GetMemberCount@CMemberInfoMethod@NS_SERVLET@@QAEIXZ 004b70e0 f   MemberInfoMethod.obj
 0001:000b6120       ?GetCardId@CMemberInfoMethod@NS_SERVLET@@QAEIH@Z 004b7120 f   MemberInfoMethod.obj
 0001:000b6150       ?GetUserClass@CMemberInfoMethod@NS_SERVLET@@QAEIH@Z 004b7150 f   MemberInfoMethod.obj
 0001:000b6180       ?GetUserNameW@CMemberInfoMethod@NS_SERVLET@@QAE?AV?$CStringT@_WV?$StrTraitMFC_DLL@_WV?$ChTraitsCRT@_W@ATL@@@@@ATL@@H@Z 004b7180 f   MemberInfoMethod.obj
 0001:000b61c0       ?GetSex@CMemberInfoMethod@NS_SERVLET@@QAEIH@Z 004b71c0 f   MemberInfoMethod.obj
 0001:000b61f0       ?GetPersonalId@CMemberInfoMethod@NS_SERVLET@@QAE?AV?$CStringT@_WV?$StrTraitMFC_DLL@_WV?$ChTraitsCRT@_W@ATL@@@@@ATL@@H@Z 004b71f0 f   MemberInfoMethod.obj
 0001:000b6230       ?GetIdType@CMemberInfoMethod@NS_SERVLET@@QAEIH@Z 004b7230 f   MemberInfoMethod.obj
 0001:000b6260       ?GetSerailNum@CMemberInfoMethod@NS_SERVLET@@QAE?AV?$CStringT@_WV?$StrTraitMFC_DLL@_WV?$ChTraitsCRT@_W@ATL@@@@@ATL@@H@Z 004b7260 f   MemberInfoMethod.obj
 0001:000b62a0       ?GetTel@CMemberInfoMethod@NS_SERVLET@@QAE?AV?$CStringT@_WV?$StrTraitMFC_DLL@_WV?$ChTraitsCRT@_W@ATL@@@@@ATL@@H@Z 004b72a0 f   MemberInfoMethod.obj
 0001:000b62e0       ??0CMemberInfo@NS_SERVLET@@QAE@XZ 004b72e0 f   MemberInfoMethod.obj
 0001:000b66f0       ?GetCardId@CMemberInfo@NS_SERVLET@@QAEIXZ 004b76f0 f   MemberInfoMethod.obj
 0001:000b6720       ?GetUserClass@CMemberInfo@NS_SERVLET@@QAEIXZ 004b7720 f   MemberInfoMethod.obj
 0001:000b6750       ?GetUserNameW@CMemberInfo@NS_SERVLET@@QAE?AV?$CStringT@_WV?$StrTraitMFC_DLL@_WV?$ChTraitsCRT@_W@ATL@@@@@ATL@@XZ 004b7750 f   MemberInfoMethod.obj
 0001:000b67a0       ?GetSex@CMemberInfo@NS_SERVLET@@QAEIXZ 004b77a0 f   MemberInfoMethod.obj
 0001:000b67d0       ?GetPersonalId@CMemberInfo@NS_SERVLET@@QAE?AV?$CStringT@_WV?$StrTraitMFC_DLL@_WV?$ChTraitsCRT@_W@ATL@@@@@ATL@@XZ 004b77d0 f   MemberInfoMethod.obj
 0001:000b6820       ?GetIdType@CMemberInfo@NS_SERVLET@@QAEIXZ 004b7820 f   MemberInfoMethod.obj
 0001:000b6850       ?GetSerailNum@CMemberInfo@NS_SERVLET@@QAE?AV?$CStringT@_WV?$StrTraitMFC_DLL@_WV?$ChTraitsCRT@_W@ATL@@@@@ATL@@XZ 004b7850 f   MemberInfoMethod.obj
 0001:000b68a0       ?GetTel@CMemberInfo@NS_SERVLET@@QAE?AV?$CStringT@_WV?$StrTraitMFC_DLL@_WV?$ChTraitsCRT@_W@ATL@@@@@ATL@@XZ 004b78a0 f   MemberInfoMethod.obj
 0001:000b68f0       ??0?$CArray@VCMemberInfo@NS_SERVLET@@V12@@@QAE@XZ 004b78f0 f i MemberInfoMethod.obj
 0001:000b6940       ?SetSize@?$CArray@VCMemberInfo@NS_SERVLET@@V12@@@QAEXHH@Z 004b7940 f i MemberInfoMethod.obj
 0001:000b6d80       ?RemoveAll@?$CArray@VCMemberInfo@NS_SERVLET@@V12@@@QAEXXZ 004b7d80 f i MemberInfoMethod.obj
 0001:000b6da0       ??1?$CArray@VCMemberInfo@NS_SERVLET@@V12@@@UAE@XZ 004b7da0 f i MemberInfoMethod.obj
 0001:000b6e40       ?Serialize@?$CArray@VCMemberInfo@NS_SERVLET@@V12@@@UAEXAAVCArchive@@@Z 004b7e40 f i MemberInfoMethod.obj
 0001:000b6eb0       ??_E?$CArray@VCMemberInfo@NS_SERVLET@@V12@@@UAEPAXI@Z 004b7eb0 f i MemberInfoMethod.obj
 0001:000b6eb0       ??_G?$CArray@VCMemberInfo@NS_SERVLET@@V12@@@UAEPAXI@Z 004b7eb0 f i MemberInfoMethod.obj
 0001:000b6ee0       ??0CMergeMemberMethod@NS_SERVLET@@QAE@XZ 004b7ee0 f   MergeMemberMethod.obj
 0001:000b6f50       ??_GCMergeMemberMethod@NS_SERVLET@@UAEPAXI@Z 004b7f50 f i MergeMemberMethod.obj
 0001:000b6f50       ??_ECMergeMemberMethod@NS_SERVLET@@UAEPAXI@Z 004b7f50 f i MergeMemberMethod.obj
 0001:000b6f80       ??1CMergeMemberMethod@NS_SERVLET@@UAE@XZ 004b7f80 f   MergeMemberMethod.obj
 0001:000b6fa0       ?AddParams@CMergeMemberMethod@NS_SERVLET@@IAEXXZ 004b7fa0 f   MergeMemberMethod.obj
 0001:000b70e0       ?SetDestMemberId@CMergeMemberMethod@NS_SERVLET@@QAEXI@Z 004b80e0 f   MergeMemberMethod.obj
 0001:000b7120       ?SetPassword@CMergeMemberMethod@NS_SERVLET@@QAEXV?$CStringT@_WV?$StrTraitMFC_DLL@_WV?$ChTraitsCRT@_W@ATL@@@@@ATL@@@Z 004b8120 f   MergeMemberMethod.obj
 0001:000b7240       ?SetOperator@CMergeMemberMethod@NS_SERVLET@@QAEXV?$CStringT@_WV?$StrTraitMFC_DLL@_WV?$ChTraitsCRT@_W@ATL@@@@@ATL@@@Z 004b8240 f   MergeMemberMethod.obj
 0001:000b72d0       ??0CModifyMemberMethod@NS_SERVLET@@QAE@XZ 004b82d0 f   ModifyMemberMethod.obj
 0001:000b7340       ??_GCModifyMemberMethod@NS_SERVLET@@UAEPAXI@Z 004b8340 f i ModifyMemberMethod.obj
 0001:000b7340       ??_ECModifyMemberMethod@NS_SERVLET@@UAEPAXI@Z 004b8340 f i ModifyMemberMethod.obj
 0001:000b7370       ??1CModifyMemberMethod@NS_SERVLET@@UAE@XZ 004b8370 f   ModifyMemberMethod.obj
 0001:000b7390       ?GetMethodName@CModifyMemberMethod@NS_SERVLET@@MAE?AV?$CStringT@_WV?$StrTraitMFC_DLL@_WV?$ChTraitsCRT@_W@ATL@@@@@ATL@@XZ 004b8390 f   ModifyMemberMethod.obj
 0001:000b7430       ?AddParams@CModifyMemberMethod@NS_SERVLET@@IAEXXZ 004b8430 f   ModifyMemberMethod.obj
 0001:000b7670       ?SetMemberName@CModifyMemberMethod@NS_SERVLET@@QAEXV?$CStringT@_WV?$StrTraitMFC_DLL@_WV?$ChTraitsCRT@_W@ATL@@@@@ATL@@@Z 004b8670 f   ModifyMemberMethod.obj
 0001:000b7700       ?SetPassword@CModifyMemberMethod@NS_SERVLET@@QAEXV?$CStringT@_WV?$StrTraitMFC_DLL@_WV?$ChTraitsCRT@_W@ATL@@@@@ATL@@@Z 004b8700 f   ModifyMemberMethod.obj
 0001:000b7820       ?SetOldPersonalId@CModifyMemberMethod@NS_SERVLET@@QAEXV?$CStringT@_WV?$StrTraitMFC_DLL@_WV?$ChTraitsCRT@_W@ATL@@@@@ATL@@@Z 004b8820 f   ModifyMemberMethod.obj
 0001:000b78b0       ?SetUsername@CModifyMemberMethod@NS_SERVLET@@QAEXV?$CStringT@_WV?$StrTraitMFC_DLL@_WV?$ChTraitsCRT@_W@ATL@@@@@ATL@@@Z 004b88b0 f   ModifyMemberMethod.obj
 0001:000b7940       ?SetSex@CModifyMemberMethod@NS_SERVLET@@QAEXI@Z 004b8940 f   ModifyMemberMethod.obj
 0001:000b7980       ?SetPersonalId@CModifyMemberMethod@NS_SERVLET@@QAEXV?$CStringT@_WV?$StrTraitMFC_DLL@_WV?$ChTraitsCRT@_W@ATL@@@@@ATL@@@Z 004b8980 f   ModifyMemberMethod.obj
 0001:000b7a10       ?SetIdDepart@CModifyMemberMethod@NS_SERVLET@@QAEXV?$CStringT@_WV?$StrTraitMFC_DLL@_WV?$ChTraitsCRT@_W@ATL@@@@@ATL@@@Z 004b8a10 f   ModifyMemberMethod.obj
 0001:000b7aa0       ?SetCountryId@CModifyMemberMethod@NS_SERVLET@@QAEXV?$CStringT@_WV?$StrTraitMFC_DLL@_WV?$ChTraitsCRT@_W@ATL@@@@@ATL@@@Z 004b8aa0 f   ModifyMemberMethod.obj
 0001:000b7b30       ?SetAddress@CModifyMemberMethod@NS_SERVLET@@QAEXV?$CStringT@_WV?$StrTraitMFC_DLL@_WV?$ChTraitsCRT@_W@ATL@@@@@ATL@@@Z 004b8b30 f   ModifyMemberMethod.obj
 0001:000b7bc0       ?SetTel@CModifyMemberMethod@NS_SERVLET@@QAEXV?$CStringT@_WV?$StrTraitMFC_DLL@_WV?$ChTraitsCRT@_W@ATL@@@@@ATL@@@Z 004b8bc0 f   ModifyMemberMethod.obj
 0001:000b7c50       ?SetJob@CModifyMemberMethod@NS_SERVLET@@QAEXV?$CStringT@_WV?$StrTraitMFC_DLL@_WV?$ChTraitsCRT@_W@ATL@@@@@ATL@@@Z 004b8c50 f   ModifyMemberMethod.obj
 0001:000b7ce0       ?SetOperator@CModifyMemberMethod@NS_SERVLET@@QAEXV?$CStringT@_WV?$StrTraitMFC_DLL@_WV?$ChTraitsCRT@_W@ATL@@@@@ATL@@@Z 004b8ce0 f   ModifyMemberMethod.obj
 0001:000b7d70       ?SetOpenNetBarId@CModifyMemberMethod@NS_SERVLET@@QAEXI@Z 004b8d70 f   ModifyMemberMethod.obj
 0001:000b7db0       ??0CNetbarRoomInfo@NS_SERVLET@@QAE@XZ 004b8db0 f   NetBarRoomMethod.obj
 0001:000b7e90       ?GetPcClass@CNetbarRoomInfo@NS_SERVLET@@QAEIXZ 004b8e90 f   NetBarRoomMethod.obj
 0001:000b7ec0       ?GetAreaName@CNetbarRoomInfo@NS_SERVLET@@QAE?AV?$CStringT@_WV?$StrTraitMFC_DLL@_WV?$ChTraitsCRT@_W@ATL@@@@@ATL@@XZ 004b8ec0 f   NetBarRoomMethod.obj
 0001:000b7f10       ?GetBeginTime@CNetbarRoomInfo@NS_SERVLET@@QAE?AV?$CStringT@_WV?$StrTraitMFC_DLL@_WV?$ChTraitsCRT@_W@ATL@@@@@ATL@@XZ 004b8f10 f   NetBarRoomMethod.obj
 0001:000b7f60       ??0CNetbarRoomMethod@NS_SERVLET@@QAE@XZ 004b8f60 f   NetBarRoomMethod.obj
 0001:000b7ff0       ??_GCNetbarRoomMethod@NS_SERVLET@@UAEPAXI@Z 004b8ff0 f i NetBarRoomMethod.obj
 0001:000b7ff0       ??_ECNetbarRoomMethod@NS_SERVLET@@UAEPAXI@Z 004b8ff0 f i NetBarRoomMethod.obj
 0001:000b8020       ??1CNetbarRoomMethod@NS_SERVLET@@UAE@XZ 004b9020 f   NetBarRoomMethod.obj
 0001:000b8080       ?DecodeResp@CNetbarRoomMethod@NS_SERVLET@@MAEHV?$CStringT@_WV?$StrTraitMFC_DLL@_WV?$ChTraitsCRT@_W@ATL@@@@@ATL@@@Z 004b9080 f   NetBarRoomMethod.obj
 0001:000b81f0       ?SetOperator@CNetbarRoomMethod@NS_SERVLET@@QAEXV?$CStringT@_WV?$StrTraitMFC_DLL@_WV?$ChTraitsCRT@_W@ATL@@@@@ATL@@@Z 004b91f0 f   NetBarRoomMethod.obj
 0001:000b8280       ?GetRoomID@CNetbarRoomMethod@NS_SERVLET@@QAEIH@Z 004b9280 f   NetBarRoomMethod.obj
 0001:000b82b0       ?GetRoomName@CNetbarRoomMethod@NS_SERVLET@@QAE?AV?$CStringT@_WV?$StrTraitMFC_DLL@_WV?$ChTraitsCRT@_W@ATL@@@@@ATL@@H@Z 004b92b0 f   NetBarRoomMethod.obj
 0001:000b82f0       ?GetOpenTime@CNetbarRoomMethod@NS_SERVLET@@QAE?AV?$CStringT@_WV?$StrTraitMFC_DLL@_WV?$ChTraitsCRT@_W@ATL@@@@@ATL@@H@Z 004b92f0 f   NetBarRoomMethod.obj
 0001:000b8330       ??0?$CArray@VCNetbarRoomInfo@NS_SERVLET@@AAV12@@@QAE@XZ 004b9330 f i NetBarRoomMethod.obj
 0001:000b8380       ?SetSize@?$CArray@VCNetbarRoomInfo@NS_SERVLET@@AAV12@@@QAEXHH@Z 004b9380 f i NetBarRoomMethod.obj
 0001:000b87c0       ?RemoveAll@?$CArray@VCNetbarRoomInfo@NS_SERVLET@@AAV12@@@QAEXXZ 004b97c0 f i NetBarRoomMethod.obj
 0001:000b87e0       ??1?$CArray@VCNetbarRoomInfo@NS_SERVLET@@AAV12@@@UAE@XZ 004b97e0 f i NetBarRoomMethod.obj
 0001:000b8880       ?Serialize@?$CArray@VCNetbarRoomInfo@NS_SERVLET@@AAV12@@@UAEXAAVCArchive@@@Z 004b9880 f i NetBarRoomMethod.obj
 0001:000b88f0       ??_G?$CArray@VCNetbarRoomInfo@NS_SERVLET@@AAV12@@@UAEPAXI@Z 004b98f0 f i NetBarRoomMethod.obj
 0001:000b88f0       ??_E?$CArray@VCNetbarRoomInfo@NS_SERVLET@@AAV12@@@UAEPAXI@Z 004b98f0 f i NetBarRoomMethod.obj
 0001:000b8920       ??$SerializeElements@VCBundleTimeInfo2@NS_SERVLET@@@@YGXAAVCArchive@@PAVCBundleTimeInfo2@NS_SERVLET@@H@Z 004b9920 f i BundleTimeList2Method.obj
 0001:000b8920       ??$SerializeElements@VCNetbarRoomInfo@NS_SERVLET@@@@YGXAAVCArchive@@PAVCNetbarRoomInfo@NS_SERVLET@@H@Z 004b9920 f i NetBarRoomMethod.obj
 0001:000b8920       ??$SerializeElements@VCCreditInfo@NS_SERVLET@@@@YGXAAVCArchive@@PAVCCreditInfo@NS_SERVLET@@H@Z 004b9920 f i ShiftCreditMethod.obj
 0001:000b8920       ??$SerializeElements@VCTermConsumeInfo@NS_SERVLET@@@@YGXAAVCArchive@@PAVCTermConsumeInfo@NS_SERVLET@@H@Z 004b9920 f i TermConsumeMethod.obj
 0001:000b8920       ??$SerializeElements@VCShiftRecord@NS_SERVLET@@@@YGXAAVCArchive@@PAVCShiftRecord@NS_SERVLET@@H@Z 004b9920 f i ShiftListMethod.obj
 0001:000b8920       ??$SerializeElements@VCConsumeInfoEx@NS_SERVLET@@@@YGXAAVCArchive@@PAVCConsumeInfoEx@NS_SERVLET@@H@Z 004b9920 f i ConsumeListMethodEx.obj
 0001:000b8920       ??$SerializeElements@VCRoomInfo@NS_DAL@@@@YGXAAVCArchive@@PAVCRoomInfo@NS_DAL@@H@Z 004b9920 f i NetbarRoom.obj
 0001:000b8920       ??$SerializeElements@VCMemberInfo@NS_SERVLET@@@@YGXAAVCArchive@@PAVCMemberInfo@NS_SERVLET@@H@Z 004b9920 f i MemberInfoMethod.obj
 0001:000b8920       ??$SerializeElements@VCCardInfoRecord@NS_SERVLET@@@@YGXAAVCArchive@@PAVCCardInfoRecord@NS_SERVLET@@H@Z 004b9920 f i ShiftTotalMethod.obj
